SF:/Users/hubertshelley/Documents/silent/silent/silent/src/configs/mod.rs
FN:82,_RINvMs_NtCs9iG4RRqsTsR_6silent7configsNtB5_7Configs3getpEB7_
FN:63,_RINvMs_NtCs9iG4RRqsTsR_6silent7configsNtB5_7Configs6insertpEB7_
FN:102,_RINvMs_NtCs9iG4RRqsTsR_6silent7configsNtB5_7Configs6removepEB7_
FN:85,_RNCINvMs_NtCs9iG4RRqsTsR_6silent7configsNtB7_7Configs3getpE0B9_
FN:86,_RNCINvMs_NtCs9iG4RRqsTsR_6silent7configsNtB7_7Configs3getpEs_0B9_
FN:67,_RNCINvMs_NtCs9iG4RRqsTsR_6silent7configsNtB7_7Configs6insertpE0B9_
FN:105,_RNCINvMs_NtCs9iG4RRqsTsR_6silent7configsNtB7_7Configs6removepE0B9_
FN:106,_RNCINvMs_NtCs9iG4RRqsTsR_6silent7configsNtB7_7Configs6removepEs_0B9_
FN:157,_RNCNvMs_NtCs9iG4RRqsTsR_6silent7configsNtB6_7Configs3len0B8_
FN:141,_RNCNvMs_NtCs9iG4RRqsTsR_6silent7configsNtB6_7Configs8is_empty0B8_
FN:156,_RNvMs_NtCs9iG4RRqsTsR_6silent7configsNtB4_7Configs3lenB6_
FN:122,_RNvMs_NtCs9iG4RRqsTsR_6silent7configsNtB4_7Configs5clearB6_
FN:140,_RNvMs_NtCs9iG4RRqsTsR_6silent7configsNtB4_7Configs8is_emptyB6_
FN:162,_RNvMs_NtCs9iG4RRqsTsR_6silent7configsNtB4_7Configs11extend_fromB6_
FN:45,_RNvMs_NtCs9iG4RRqsTsR_6silent7configsNtB4_7Configs3newB6_
FN:21,_RNvXNtCs9iG4RRqsTsR_6silent7configsNtB2_8IdHasherNtNtCsiMcf32LsBml_4core4hash6Hasher5write
FN:17,_RNvXNtCs9iG4RRqsTsR_6silent7configsNtB2_8IdHasherNtNtCsiMcf32LsBml_4core4hash6Hasher6finishB4_
FN:26,_RNvXNtCs9iG4RRqsTsR_6silent7configsNtB2_8IdHasherNtNtCsiMcf32LsBml_4core4hash6Hasher9write_u64B4_
FN:173,_RNvXs0_NtCs9iG4RRqsTsR_6silent7configsNtB5_7ConfigsNtNtCsiMcf32LsBml_4core3fmt5Debug3fmt
FN:122,_RNvMs_NtCs7wZ7Ymcehhq_6silent7configsNtB4_7Configs5clearB6_
FN:21,_RNvXNtCs7wZ7Ymcehhq_6silent7configsNtB2_8IdHasherNtNtCsiMcf32LsBml_4core4hash6Hasher5write
FN:162,_RNvMs_NtCs7wZ7Ymcehhq_6silent7configsNtB4_7Configs11extend_fromB6_
FN:156,_RNvMs_NtCs7wZ7Ymcehhq_6silent7configsNtB4_7Configs3lenB6_
FN:45,_RNvMs_NtCs7wZ7Ymcehhq_6silent7configsNtB4_7Configs3newB6_
FN:140,_RNvMs_NtCs7wZ7Ymcehhq_6silent7configsNtB4_7Configs8is_emptyB6_
FN:17,_RNvXNtCs7wZ7Ymcehhq_6silent7configsNtB2_8IdHasherNtNtCsiMcf32LsBml_4core4hash6Hasher6finishB4_
FN:26,_RNvXNtCs7wZ7Ymcehhq_6silent7configsNtB2_8IdHasherNtNtCsiMcf32LsBml_4core4hash6Hasher9write_u64B4_
FN:173,_RNvXs0_NtCs7wZ7Ymcehhq_6silent7configsNtB5_7ConfigsNtNtCsiMcf32LsBml_4core3fmt5Debug3fmt
FN:185,_RNvNtNtCs7wZ7Ymcehhq_6silent7configs5testss_12test_configs
FN:244,_RNvNtNtCs7wZ7Ymcehhq_6silent7configs5testss_20test_configs_mut_ref
FN:216,_RNCNvNtNtCs7wZ7Ymcehhq_6silent7configs5testss_12test_configs0B7_
FN:265,_RNCNvNtNtCs7wZ7Ymcehhq_6silent7configs5testss_20test_configs_mut_ref0B7_
FN:82,_RINvMs_NtCs7wZ7Ymcehhq_6silent7configsNtB5_7Configs3getINtNtCskxbBfrLNYPn_5alloc4sync3ArcINtNtNtNtCsle0CjmPo1W9_3std4sync6poison6rwlock6RwLockNtNvNtB5_5testss_20test_configs_mut_ref12MyStringTypeEEEB7_
FN:82,_RINvMs_NtCs7wZ7Ymcehhq_6silent7configsNtB5_7Configs3getNtNCNvNtNtB7_9extractor5testss_25test_deeply_nested_tuples011ConfigsDataEB7_
FN:82,_RINvMs_NtCs7wZ7Ymcehhq_6silent7configsNtB5_7Configs3getNtNCNvNtNtB7_9extractor5testss_42test_configs_and_extension_and_request_ext07CfgDataEB7_
FN:82,_RINvMs_NtCs7wZ7Ymcehhq_6silent7configsNtB5_7Configs3getNtNvNtB5_5testss_12test_configs12MyStringTypeEB7_
FN:82,_RINvMs_NtCs7wZ7Ymcehhq_6silent7configsNtB5_7Configs3getNtNvNtB5_5testss_12test_configs6MyTypeEB7_
FN:82,_RINvMs_NtCs7wZ7Ymcehhq_6silent7configsNtB5_7Configs3getReEB7_
FN:82,_RINvMs_NtCs7wZ7Ymcehhq_6silent7configsNtB5_7Configs3getbEB7_
FN:82,_RINvMs_NtCs7wZ7Ymcehhq_6silent7configsNtB5_7Configs3getlEB7_
FN:63,_RINvMs_NtCs7wZ7Ymcehhq_6silent7configsNtB5_7Configs6insertINtNtCskxbBfrLNYPn_5alloc4sync3ArcINtNtNtNtCsle0CjmPo1W9_3std4sync6poison6rwlock6RwLockNtNvNtB5_5testss_20test_configs_mut_ref12MyStringTypeEEEB7_
FN:63,_RINvMs_NtCs7wZ7Ymcehhq_6silent7configsNtB5_7Configs6insertNtNCNvNtNtB7_9extractor5testss_25test_deeply_nested_tuples011ConfigsDataEB7_
FN:63,_RINvMs_NtCs7wZ7Ymcehhq_6silent7configsNtB5_7Configs6insertNtNCNvNtNtB7_9extractor5testss_42test_configs_and_extension_and_request_ext07CfgDataEB7_
FN:63,_RINvMs_NtCs7wZ7Ymcehhq_6silent7configsNtB5_7Configs6insertNtNvNtB5_5testss_12test_configs12MyStringTypeEB7_
FN:63,_RINvMs_NtCs7wZ7Ymcehhq_6silent7configsNtB5_7Configs6insertNtNvNtB5_5testss_12test_configs6MyTypeEB7_
FN:63,_RINvMs_NtCs7wZ7Ymcehhq_6silent7configsNtB5_7Configs6insertReEB7_
FN:63,_RINvMs_NtCs7wZ7Ymcehhq_6silent7configsNtB5_7Configs6insertlEB7_
FN:102,_RINvMs_NtCs7wZ7Ymcehhq_6silent7configsNtB5_7Configs6removelEB7_
FN:85,_RNCINvMs_NtCs7wZ7Ymcehhq_6silent7configsNtB7_7Configs3getINtNtCskxbBfrLNYPn_5alloc4sync3ArcINtNtNtNtCsle0CjmPo1W9_3std4sync6poison6rwlock6RwLockNtNvNtB7_5testss_20test_configs_mut_ref12MyStringTypeEEE0B9_
FN:86,_RNCINvMs_NtCs7wZ7Ymcehhq_6silent7configsNtB7_7Configs3getINtNtCskxbBfrLNYPn_5alloc4sync3ArcINtNtNtNtCsle0CjmPo1W9_3std4sync6poison6rwlock6RwLockNtNvNtB7_5testss_20test_configs_mut_ref12MyStringTypeEEEs_0B9_
FN:85,_RNCINvMs_NtCs7wZ7Ymcehhq_6silent7configsNtB7_7Configs3getNtNCNvNtNtB9_9extractor5testss_25test_deeply_nested_tuples011ConfigsDataE0B9_
FN:86,_RNCINvMs_NtCs7wZ7Ymcehhq_6silent7configsNtB7_7Configs3getNtNCNvNtNtB9_9extractor5testss_25test_deeply_nested_tuples011ConfigsDataEs_0B9_
FN:85,_RNCINvMs_NtCs7wZ7Ymcehhq_6silent7configsNtB7_7Configs3getNtNCNvNtNtB9_9extractor5testss_42test_configs_and_extension_and_request_ext07CfgDataE0B9_
FN:86,_RNCINvMs_NtCs7wZ7Ymcehhq_6silent7configsNtB7_7Configs3getNtNCNvNtNtB9_9extractor5testss_42test_configs_and_extension_and_request_ext07CfgDataEs_0B9_
FN:85,_RNCINvMs_NtCs7wZ7Ymcehhq_6silent7configsNtB7_7Configs3getNtNvNtB7_5testss_12test_configs12MyStringTypeE0B9_
FN:86,_RNCINvMs_NtCs7wZ7Ymcehhq_6silent7configsNtB7_7Configs3getNtNvNtB7_5testss_12test_configs12MyStringTypeEs_0B9_
FN:85,_RNCINvMs_NtCs7wZ7Ymcehhq_6silent7configsNtB7_7Configs3getNtNvNtB7_5testss_12test_configs6MyTypeE0B9_
FN:86,_RNCINvMs_NtCs7wZ7Ymcehhq_6silent7configsNtB7_7Configs3getNtNvNtB7_5testss_12test_configs6MyTypeEs_0B9_
FN:85,_RNCINvMs_NtCs7wZ7Ymcehhq_6silent7configsNtB7_7Configs3getReE0B9_
FN:86,_RNCINvMs_NtCs7wZ7Ymcehhq_6silent7configsNtB7_7Configs3getReEs_0B9_
FN:85,_RNCINvMs_NtCs7wZ7Ymcehhq_6silent7configsNtB7_7Configs3getbE0B9_
FN:86,_RNCINvMs_NtCs7wZ7Ymcehhq_6silent7configsNtB7_7Configs3getbEs_0B9_
FN:85,_RNCINvMs_NtCs7wZ7Ymcehhq_6silent7configsNtB7_7Configs3getlE0B9_
FN:86,_RNCINvMs_NtCs7wZ7Ymcehhq_6silent7configsNtB7_7Configs3getlEs_0B9_
FN:67,_RNCINvMs_NtCs7wZ7Ymcehhq_6silent7configsNtB7_7Configs6insertINtNtCskxbBfrLNYPn_5alloc4sync3ArcINtNtNtNtCsle0CjmPo1W9_3std4sync6poison6rwlock6RwLockNtNvNtB7_5testss_20test_configs_mut_ref12MyStringTypeEEE0B9_
FN:67,_RNCINvMs_NtCs7wZ7Ymcehhq_6silent7configsNtB7_7Configs6insertNtNCNvNtNtB9_9extractor5testss_25test_deeply_nested_tuples011ConfigsDataE0B9_
FN:67,_RNCINvMs_NtCs7wZ7Ymcehhq_6silent7configsNtB7_7Configs6insertNtNCNvNtNtB9_9extractor5testss_42test_configs_and_extension_and_request_ext07CfgDataE0B9_
FN:67,_RNCINvMs_NtCs7wZ7Ymcehhq_6silent7configsNtB7_7Configs6insertNtNvNtB7_5testss_12test_configs12MyStringTypeE0B9_
FN:67,_RNCINvMs_NtCs7wZ7Ymcehhq_6silent7configsNtB7_7Configs6insertNtNvNtB7_5testss_12test_configs6MyTypeE0B9_
FN:67,_RNCINvMs_NtCs7wZ7Ymcehhq_6silent7configsNtB7_7Configs6insertReE0B9_
FN:67,_RNCINvMs_NtCs7wZ7Ymcehhq_6silent7configsNtB7_7Configs6insertlE0B9_
FN:105,_RNCINvMs_NtCs7wZ7Ymcehhq_6silent7configsNtB7_7Configs6removelE0B9_
FN:106,_RNCINvMs_NtCs7wZ7Ymcehhq_6silent7configsNtB7_7Configs6removelEs_0B9_
FN:157,_RNCNvMs_NtCs7wZ7Ymcehhq_6silent7configsNtB6_7Configs3len0B8_
FN:141,_RNCNvMs_NtCs7wZ7Ymcehhq_6silent7configsNtB6_7Configs8is_empty0B8_
FNDA:0,_RINvMs_NtCs9iG4RRqsTsR_6silent7configsNtB5_7Configs3getpEB7_
FNDA:0,_RINvMs_NtCs9iG4RRqsTsR_6silent7configsNtB5_7Configs6insertpEB7_
FNDA:0,_RINvMs_NtCs9iG4RRqsTsR_6silent7configsNtB5_7Configs6removepEB7_
FNDA:0,_RNCINvMs_NtCs9iG4RRqsTsR_6silent7configsNtB7_7Configs3getpE0B9_
FNDA:0,_RNCINvMs_NtCs9iG4RRqsTsR_6silent7configsNtB7_7Configs3getpEs_0B9_
FNDA:0,_RNCINvMs_NtCs9iG4RRqsTsR_6silent7configsNtB7_7Configs6insertpE0B9_
FNDA:0,_RNCINvMs_NtCs9iG4RRqsTsR_6silent7configsNtB7_7Configs6removepE0B9_
FNDA:0,_RNCINvMs_NtCs9iG4RRqsTsR_6silent7configsNtB7_7Configs6removepEs_0B9_
FNDA:0,_RNCNvMs_NtCs9iG4RRqsTsR_6silent7configsNtB6_7Configs3len0B8_
FNDA:0,_RNCNvMs_NtCs9iG4RRqsTsR_6silent7configsNtB6_7Configs8is_empty0B8_
FNDA:0,_RNvMs_NtCs9iG4RRqsTsR_6silent7configsNtB4_7Configs3lenB6_
FNDA:0,_RNvMs_NtCs9iG4RRqsTsR_6silent7configsNtB4_7Configs5clearB6_
FNDA:0,_RNvMs_NtCs9iG4RRqsTsR_6silent7configsNtB4_7Configs8is_emptyB6_
FNDA:2,_RNvMs_NtCs9iG4RRqsTsR_6silent7configsNtB4_7Configs11extend_fromB6_
FNDA:1,_RNvMs_NtCs9iG4RRqsTsR_6silent7configsNtB4_7Configs3newB6_
FNDA:0,_RNvXNtCs9iG4RRqsTsR_6silent7configsNtB2_8IdHasherNtNtCsiMcf32LsBml_4core4hash6Hasher5write
FNDA:0,_RNvXNtCs9iG4RRqsTsR_6silent7configsNtB2_8IdHasherNtNtCsiMcf32LsBml_4core4hash6Hasher6finishB4_
FNDA:0,_RNvXNtCs9iG4RRqsTsR_6silent7configsNtB2_8IdHasherNtNtCsiMcf32LsBml_4core4hash6Hasher9write_u64B4_
FNDA:0,_RNvXs0_NtCs9iG4RRqsTsR_6silent7configsNtB5_7ConfigsNtNtCsiMcf32LsBml_4core3fmt5Debug3fmt
FNDA:0,_RNvMs_NtCs7wZ7Ymcehhq_6silent7configsNtB4_7Configs5clearB6_
FNDA:0,_RNvXNtCs7wZ7Ymcehhq_6silent7configsNtB2_8IdHasherNtNtCsiMcf32LsBml_4core4hash6Hasher5write
FNDA:252,_RNvMs_NtCs7wZ7Ymcehhq_6silent7configsNtB4_7Configs11extend_fromB6_
FNDA:2,_RNvMs_NtCs7wZ7Ymcehhq_6silent7configsNtB4_7Configs3lenB6_
FNDA:94,_RNvMs_NtCs7wZ7Ymcehhq_6silent7configsNtB4_7Configs3newB6_
FNDA:1,_RNvMs_NtCs7wZ7Ymcehhq_6silent7configsNtB4_7Configs8is_emptyB6_
FNDA:224,_RNvXNtCs7wZ7Ymcehhq_6silent7configsNtB2_8IdHasherNtNtCsiMcf32LsBml_4core4hash6Hasher6finishB4_
FNDA:224,_RNvXNtCs7wZ7Ymcehhq_6silent7configsNtB2_8IdHasherNtNtCsiMcf32LsBml_4core4hash6Hasher9write_u64B4_
FNDA:0,_RNvXs0_NtCs7wZ7Ymcehhq_6silent7configsNtB5_7ConfigsNtNtCsiMcf32LsBml_4core3fmt5Debug3fmt
FNDA:1,_RNvNtNtCs7wZ7Ymcehhq_6silent7configs5testss_12test_configs
FNDA:1,_RNvNtNtCs7wZ7Ymcehhq_6silent7configs5testss_20test_configs_mut_ref
FNDA:100,_RNCNvNtNtCs7wZ7Ymcehhq_6silent7configs5testss_12test_configs0B7_
FNDA:100,_RNCNvNtNtCs7wZ7Ymcehhq_6silent7configs5testss_20test_configs_mut_ref0B7_
FNDA:101,_RINvMs_NtCs7wZ7Ymcehhq_6silent7configsNtB5_7Configs3getINtNtCskxbBfrLNYPn_5alloc4sync3ArcINtNtNtNtCsle0CjmPo1W9_3std4sync6poison6rwlock6RwLockNtNvNtB5_5testss_20test_configs_mut_ref12MyStringTypeEEEB7_
FNDA:1,_RINvMs_NtCs7wZ7Ymcehhq_6silent7configsNtB5_7Configs3getNtNCNvNtNtB7_9extractor5testss_25test_deeply_nested_tuples011ConfigsDataEB7_
FNDA:1,_RINvMs_NtCs7wZ7Ymcehhq_6silent7configsNtB5_7Configs3getNtNCNvNtNtB7_9extractor5testss_42test_configs_and_extension_and_request_ext07CfgDataEB7_
FNDA:101,_RINvMs_NtCs7wZ7Ymcehhq_6silent7configsNtB5_7Configs3getNtNvNtB5_5testss_12test_configs12MyStringTypeEB7_
FNDA:1,_RINvMs_NtCs7wZ7Ymcehhq_6silent7configsNtB5_7Configs3getNtNvNtB5_5testss_12test_configs6MyTypeEB7_
FNDA:1,_RINvMs_NtCs7wZ7Ymcehhq_6silent7configsNtB5_7Configs3getReEB7_
FNDA:1,_RINvMs_NtCs7wZ7Ymcehhq_6silent7configsNtB5_7Configs3getbEB7_
FNDA:6,_RINvMs_NtCs7wZ7Ymcehhq_6silent7configsNtB5_7Configs3getlEB7_
FNDA:1,_RINvMs_NtCs7wZ7Ymcehhq_6silent7configsNtB5_7Configs6insertINtNtCskxbBfrLNYPn_5alloc4sync3ArcINtNtNtNtCsle0CjmPo1W9_3std4sync6poison6rwlock6RwLockNtNvNtB5_5testss_20test_configs_mut_ref12MyStringTypeEEEB7_
FNDA:1,_RINvMs_NtCs7wZ7Ymcehhq_6silent7configsNtB5_7Configs6insertNtNCNvNtNtB7_9extractor5testss_25test_deeply_nested_tuples011ConfigsDataEB7_
FNDA:1,_RINvMs_NtCs7wZ7Ymcehhq_6silent7configsNtB5_7Configs6insertNtNCNvNtNtB7_9extractor5testss_42test_configs_and_extension_and_request_ext07CfgDataEB7_
FNDA:1,_RINvMs_NtCs7wZ7Ymcehhq_6silent7configsNtB5_7Configs6insertNtNvNtB5_5testss_12test_configs12MyStringTypeEB7_
FNDA:1,_RINvMs_NtCs7wZ7Ymcehhq_6silent7configsNtB5_7Configs6insertNtNvNtB5_5testss_12test_configs6MyTypeEB7_
FNDA:1,_RINvMs_NtCs7wZ7Ymcehhq_6silent7configsNtB5_7Configs6insertReEB7_
FNDA:5,_RINvMs_NtCs7wZ7Ymcehhq_6silent7configsNtB5_7Configs6insertlEB7_
FNDA:1,_RINvMs_NtCs7wZ7Ymcehhq_6silent7configsNtB5_7Configs6removelEB7_
FNDA:101,_RNCINvMs_NtCs7wZ7Ymcehhq_6silent7configsNtB7_7Configs3getINtNtCskxbBfrLNYPn_5alloc4sync3ArcINtNtNtNtCsle0CjmPo1W9_3std4sync6poison6rwlock6RwLockNtNvNtB7_5testss_20test_configs_mut_ref12MyStringTypeEEE0B9_
FNDA:101,_RNCINvMs_NtCs7wZ7Ymcehhq_6silent7configsNtB7_7Configs3getINtNtCskxbBfrLNYPn_5alloc4sync3ArcINtNtNtNtCsle0CjmPo1W9_3std4sync6poison6rwlock6RwLockNtNvNtB7_5testss_20test_configs_mut_ref12MyStringTypeEEEs_0B9_
FNDA:1,_RNCINvMs_NtCs7wZ7Ymcehhq_6silent7configsNtB7_7Configs3getNtNCNvNtNtB9_9extractor5testss_25test_deeply_nested_tuples011ConfigsDataE0B9_
FNDA:1,_RNCINvMs_NtCs7wZ7Ymcehhq_6silent7configsNtB7_7Configs3getNtNCNvNtNtB9_9extractor5testss_25test_deeply_nested_tuples011ConfigsDataEs_0B9_
FNDA:1,_RNCINvMs_NtCs7wZ7Ymcehhq_6silent7configsNtB7_7Configs3getNtNCNvNtNtB9_9extractor5testss_42test_configs_and_extension_and_request_ext07CfgDataE0B9_
FNDA:1,_RNCINvMs_NtCs7wZ7Ymcehhq_6silent7configsNtB7_7Configs3getNtNCNvNtNtB9_9extractor5testss_42test_configs_and_extension_and_request_ext07CfgDataEs_0B9_
FNDA:101,_RNCINvMs_NtCs7wZ7Ymcehhq_6silent7configsNtB7_7Configs3getNtNvNtB7_5testss_12test_configs12MyStringTypeE0B9_
FNDA:101,_RNCINvMs_NtCs7wZ7Ymcehhq_6silent7configsNtB7_7Configs3getNtNvNtB7_5testss_12test_configs12MyStringTypeEs_0B9_
FNDA:1,_RNCINvMs_NtCs7wZ7Ymcehhq_6silent7configsNtB7_7Configs3getNtNvNtB7_5testss_12test_configs6MyTypeE0B9_
FNDA:1,_RNCINvMs_NtCs7wZ7Ymcehhq_6silent7configsNtB7_7Configs3getNtNvNtB7_5testss_12test_configs6MyTypeEs_0B9_
FNDA:1,_RNCINvMs_NtCs7wZ7Ymcehhq_6silent7configsNtB7_7Configs3getReE0B9_
FNDA:1,_RNCINvMs_NtCs7wZ7Ymcehhq_6silent7configsNtB7_7Configs3getReEs_0B9_
FNDA:1,_RNCINvMs_NtCs7wZ7Ymcehhq_6silent7configsNtB7_7Configs3getbE0B9_
FNDA:0,_RNCINvMs_NtCs7wZ7Ymcehhq_6silent7configsNtB7_7Configs3getbEs_0B9_
FNDA:5,_RNCINvMs_NtCs7wZ7Ymcehhq_6silent7configsNtB7_7Configs3getlE0B9_
FNDA:4,_RNCINvMs_NtCs7wZ7Ymcehhq_6silent7configsNtB7_7Configs3getlEs_0B9_
FNDA:0,_RNCINvMs_NtCs7wZ7Ymcehhq_6silent7configsNtB7_7Configs6insertINtNtCskxbBfrLNYPn_5alloc4sync3ArcINtNtNtNtCsle0CjmPo1W9_3std4sync6poison6rwlock6RwLockNtNvNtB7_5testss_20test_configs_mut_ref12MyStringTypeEEE0B9_
FNDA:0,_RNCINvMs_NtCs7wZ7Ymcehhq_6silent7configsNtB7_7Configs6insertNtNCNvNtNtB9_9extractor5testss_25test_deeply_nested_tuples011ConfigsDataE0B9_
FNDA:0,_RNCINvMs_NtCs7wZ7Ymcehhq_6silent7configsNtB7_7Configs6insertNtNCNvNtNtB9_9extractor5testss_42test_configs_and_extension_and_request_ext07CfgDataE0B9_
FNDA:0,_RNCINvMs_NtCs7wZ7Ymcehhq_6silent7configsNtB7_7Configs6insertNtNvNtB7_5testss_12test_configs12MyStringTypeE0B9_
FNDA:0,_RNCINvMs_NtCs7wZ7Ymcehhq_6silent7configsNtB7_7Configs6insertNtNvNtB7_5testss_12test_configs6MyTypeE0B9_
FNDA:0,_RNCINvMs_NtCs7wZ7Ymcehhq_6silent7configsNtB7_7Configs6insertReE0B9_
FNDA:0,_RNCINvMs_NtCs7wZ7Ymcehhq_6silent7configsNtB7_7Configs6insertlE0B9_
FNDA:1,_RNCINvMs_NtCs7wZ7Ymcehhq_6silent7configsNtB7_7Configs6removelE0B9_
FNDA:1,_RNCINvMs_NtCs7wZ7Ymcehhq_6silent7configsNtB7_7Configs6removelEs_0B9_
FNDA:1,_RNCNvMs_NtCs7wZ7Ymcehhq_6silent7configsNtB6_7Configs3len0B8_
FNDA:0,_RNCNvMs_NtCs7wZ7Ymcehhq_6silent7configsNtB6_7Configs8is_empty0B8_
FNF:23
FNH:18
DA:17,224
DA:18,224
DA:19,224
DA:21,0
DA:22,0
DA:26,224
DA:27,224
DA:28,224
DA:45,95
DA:46,95
DA:47,95
DA:63,11
DA:64,11
DA:65,11
DA:66,11
DA:67,11
DA:68,11
DA:82,213
DA:83,213
DA:84,213
DA:85,213
DA:86,213
DA:87,213
DA:102,1
DA:103,1
DA:104,1
DA:105,1
DA:106,1
DA:107,1
DA:122,0
DA:123,0
DA:124,0
DA:125,0
DA:126,0
DA:140,1
DA:141,1
DA:142,1
DA:156,2
DA:157,2
DA:158,2
DA:162,254
DA:163,254
DA:164,0
DA:165,0
DA:166,0
DA:167,0
DA:168,254
DA:169,254
DA:173,0
DA:174,0
DA:175,0
DA:185,1
DA:189,1
DA:191,1
DA:192,1
DA:194,1
DA:197,1
DA:198,1
DA:200,1
DA:201,1
DA:206,1
DA:208,1
DA:209,1
DA:210,1
DA:214,100
DA:215,100
DA:216,100
DA:217,100
DA:219,20
DA:220,20
DA:221,20
DA:223,20
DA:226,0
DA:230,80
DA:231,80
DA:232,80
DA:235,0
DA:239,100
DA:241,1
DA:244,1
DA:245,1
DA:249,1
DA:250,1
DA:251,1
DA:252,1
DA:253,1
DA:254,1
DA:255,1
DA:256,1
DA:257,1
DA:258,1
DA:263,100
DA:264,100
DA:265,100
DA:266,100
DA:267,20
DA:268,20
DA:269,20
DA:270,20
DA:271,20
DA:272,20
DA:275,0
DA:279,0
DA:283,80
DA:284,80
DA:285,80
DA:286,80
DA:289,0
DA:293,0
DA:297,100
DA:299,1
BRF:0
BRH:0
LF:120
LH:98
end_of_record
SF:/Users/hubertshelley/Documents/silent/silent/silent/src/cookie/cookie_ext.rs
FN:43,_RINvXININtNtCs9iG4RRqsTsR_6silent6cookie10cookie_exts_0pEINtNtNtBa_4core8response8ResponsepENtB6_9CookieExt6cookiepEBa_
FN:26,_RINvXNtNtCs9iG4RRqsTsR_6silent6cookie10cookie_extNtNtNtB7_4core7request7RequestNtB3_9CookieExt6cookiepEB7_
FN:36,_RNvXININtNtCs9iG4RRqsTsR_6silent6cookie10cookie_exts_0pEINtNtNtB9_4core8response8ResponsepENtB5_9CookieExt11cookies_mutB9_
FN:32,_RNvXs_NtNtCs9iG4RRqsTsR_6silent6cookie10cookie_extNtNtNtB8_4core8response8ResponseNtB4_9CookieExt7cookiesB8_
FN:19,_RNvXNtNtCs9iG4RRqsTsR_6silent6cookie10cookie_extNtNtNtB6_4core7request7RequestNtB2_9CookieExt11cookies_mut
FN:15,_RNvXNtNtCs9iG4RRqsTsR_6silent6cookie10cookie_extNtNtNtB6_4core7request7RequestNtB2_9CookieExt7cookies
FN:26,_RINvXNtNtCs7wZ7Ymcehhq_6silent6cookie10cookie_extNtNtNtB7_4core7request7RequestNtB3_9CookieExt6cookieNtNtCskxbBfrLNYPn_5alloc6string6StringEB7_
FN:26,_RINvXNtNtCs7wZ7Ymcehhq_6silent6cookie10cookie_extNtNtNtB7_4core7request7RequestNtB3_9CookieExt6cookieReEB7_
FN:320,_RNvNtNtNtCs7wZ7Ymcehhq_6silent6cookie10cookie_ext5testss_22test_cookies_isolation
FN:102,_RNvNtNtNtCs7wZ7Ymcehhq_6silent6cookie10cookie_ext5testss_24test_request_cookie_none
FN:109,_RNvNtNtNtCs7wZ7Ymcehhq_6silent6cookie10cookie_ext5testss_24test_request_cookie_some
FN:197,_RNvNtNtNtCs7wZ7Ymcehhq_6silent6cookie10cookie_ext5testss_25test_response_cookie_none
FN:204,_RNvNtNtNtCs7wZ7Ymcehhq_6silent6cookie10cookie_ext5testss_25test_response_cookie_some
FN:339,_RNvNtNtNtCs7wZ7Ymcehhq_6silent6cookie10cookie_ext5testss_27test_request_cookies_cloned
FN:56,_RNvNtNtNtCs7wZ7Ymcehhq_6silent6cookie10cookie_ext5testss_28test_request_cookies_default
FN:353,_RNvNtNtNtCs7wZ7Ymcehhq_6silent6cookie10cookie_ext5testss_28test_response_cookies_cloned
FN:123,_RNvNtNtNtCs7wZ7Ymcehhq_6silent6cookie10cookie_ext5testss_29test_request_cookie_not_found
FN:65,_RNvNtNtNtCs7wZ7Ymcehhq_6silent6cookie10cookie_ext5testss_29test_request_cookies_with_jar
FN:246,_RNvNtNtNtCs7wZ7Ymcehhq_6silent6cookie10cookie_ext5testss_29test_request_multiple_cookies
FN:151,_RNvNtNtNtCs7wZ7Ymcehhq_6silent6cookie10cookie_ext5testss_29test_response_cookies_default
FN:276,_RNvNtNtNtCs7wZ7Ymcehhq_6silent6cookie10cookie_ext5testss_30test_request_empty_cookie_name
FN:218,_RNvNtNtNtCs7wZ7Ymcehhq_6silent6cookie10cookie_ext5testss_30test_response_cookie_not_found
FN:160,_RNvNtNtNtCs7wZ7Ymcehhq_6silent6cookie10cookie_ext5testss_30test_response_cookies_with_jar
FN:260,_RNvNtNtNtCs7wZ7Ymcehhq_6silent6cookie10cookie_ext5testss_30test_response_multiple_cookies
FN:135,_RNvNtNtNtCs7wZ7Ymcehhq_6silent6cookie10cookie_ext5testss_31test_request_cookie_with_string
FN:288,_RNvNtNtNtCs7wZ7Ymcehhq_6silent6cookie10cookie_ext5testss_31test_response_empty_cookie_name
FN:230,_RNvNtNtNtCs7wZ7Ymcehhq_6silent6cookie10cookie_ext5testss_32test_response_cookie_with_string
FN:89,_RNvNtNtNtCs7wZ7Ymcehhq_6silent6cookie10cookie_ext5testss_33test_request_cookies_mut_persists
FN:300,_RNvNtNtNtCs7wZ7Ymcehhq_6silent6cookie10cookie_ext5testss_33test_request_special_cookie_value
FN:184,_RNvNtNtNtCs7wZ7Ymcehhq_6silent6cookie10cookie_ext5testss_34test_response_cookies_mut_persists
FN:310,_RNvNtNtNtCs7wZ7Ymcehhq_6silent6cookie10cookie_ext5testss_34test_response_special_cookie_value
FN:76,_RNvNtNtNtCs7wZ7Ymcehhq_6silent6cookie10cookie_ext5testss_36test_request_cookies_mut_initializes
FN:171,_RNvNtNtNtCs7wZ7Ymcehhq_6silent6cookie10cookie_ext5testss_37test_response_cookies_mut_initializes
FN:367,_RNvNtNtNtCs7wZ7Ymcehhq_6silent6cookie10cookie_ext5testss_38test_request_cookies_mut_same_instance
FN:387,_RNvNtNtNtCs7wZ7Ymcehhq_6silent6cookie10cookie_ext5testss_39test_response_cookies_mut_same_instance
FN:43,_RINvXs_NtNtCs7wZ7Ymcehhq_6silent6cookie10cookie_extNtNtNtB9_4core8response8ResponseNtB5_9CookieExt6cookieNtNtCskxbBfrLNYPn_5alloc6string6StringEB9_
FN:43,_RINvXs_NtNtCs7wZ7Ymcehhq_6silent6cookie10cookie_extNtNtNtB9_4core8response8ResponseNtB5_9CookieExt6cookieReEB9_
FN:36,_RNvXs_NtNtCs7wZ7Ymcehhq_6silent6cookie10cookie_extNtNtNtB8_4core8response8ResponseNtB4_9CookieExt11cookies_mutB8_
FN:32,_RNvXs_NtNtCs7wZ7Ymcehhq_6silent6cookie10cookie_extNtNtNtB8_4core8response8ResponseNtB4_9CookieExt7cookiesB8_
FN:348,_RNCNvNtNtNtCs7wZ7Ymcehhq_6silent6cookie10cookie_ext5testss_27test_request_cookies_cloned0B9_
FN:349,_RNCNvNtNtNtCs7wZ7Ymcehhq_6silent6cookie10cookie_ext5testss_27test_request_cookies_cloneds_0B9_
FN:362,_RNCNvNtNtNtCs7wZ7Ymcehhq_6silent6cookie10cookie_ext5testss_28test_response_cookies_cloned0B9_
FN:363,_RNCNvNtNtNtCs7wZ7Ymcehhq_6silent6cookie10cookie_ext5testss_28test_response_cookies_cloneds_0B9_
FN:98,_RNCNvNtNtNtCs7wZ7Ymcehhq_6silent6cookie10cookie_ext5testss_33test_request_cookies_mut_persists0B9_
FN:193,_RNCNvNtNtNtCs7wZ7Ymcehhq_6silent6cookie10cookie_ext5testss_34test_response_cookies_mut_persists0B9_
FN:19,_RNvXNtNtCs7wZ7Ymcehhq_6silent6cookie10cookie_extNtNtNtB6_4core7request7RequestNtB2_9CookieExt11cookies_mut
FN:15,_RNvXNtNtCs7wZ7Ymcehhq_6silent6cookie10cookie_extNtNtNtB6_4core7request7RequestNtB2_9CookieExt7cookies
FNDA:0,_RINvXININtNtCs9iG4RRqsTsR_6silent6cookie10cookie_exts_0pEINtNtNtBa_4core8response8ResponsepENtB6_9CookieExt6cookiepEBa_
FNDA:0,_RINvXNtNtCs9iG4RRqsTsR_6silent6cookie10cookie_extNtNtNtB7_4core7request7RequestNtB3_9CookieExt6cookiepEB7_
FNDA:0,_RNvXININtNtCs9iG4RRqsTsR_6silent6cookie10cookie_exts_0pEINtNtNtB9_4core8response8ResponsepENtB5_9CookieExt11cookies_mutB9_
FNDA:0,_RNvXs_NtNtCs9iG4RRqsTsR_6silent6cookie10cookie_extNtNtNtB8_4core8response8ResponseNtB4_9CookieExt7cookiesB8_
FNDA:0,_RNvXNtNtCs9iG4RRqsTsR_6silent6cookie10cookie_extNtNtNtB6_4core7request7RequestNtB2_9CookieExt11cookies_mut
FNDA:0,_RNvXNtNtCs9iG4RRqsTsR_6silent6cookie10cookie_extNtNtNtB6_4core7request7RequestNtB2_9CookieExt7cookies
FNDA:1,_RINvXNtNtCs7wZ7Ymcehhq_6silent6cookie10cookie_extNtNtNtB7_4core7request7RequestNtB3_9CookieExt6cookieNtNtCskxbBfrLNYPn_5alloc6string6StringEB7_
FNDA:12,_RINvXNtNtCs7wZ7Ymcehhq_6silent6cookie10cookie_extNtNtNtB7_4core7request7RequestNtB3_9CookieExt6cookieReEB7_
FNDA:1,_RNvNtNtNtCs7wZ7Ymcehhq_6silent6cookie10cookie_ext5testss_22test_cookies_isolation
FNDA:1,_RNvNtNtNtCs7wZ7Ymcehhq_6silent6cookie10cookie_ext5testss_24test_request_cookie_none
FNDA:1,_RNvNtNtNtCs7wZ7Ymcehhq_6silent6cookie10cookie_ext5testss_24test_request_cookie_some
FNDA:1,_RNvNtNtNtCs7wZ7Ymcehhq_6silent6cookie10cookie_ext5testss_25test_response_cookie_none
FNDA:1,_RNvNtNtNtCs7wZ7Ymcehhq_6silent6cookie10cookie_ext5testss_25test_response_cookie_some
FNDA:1,_RNvNtNtNtCs7wZ7Ymcehhq_6silent6cookie10cookie_ext5testss_27test_request_cookies_cloned
FNDA:1,_RNvNtNtNtCs7wZ7Ymcehhq_6silent6cookie10cookie_ext5testss_28test_request_cookies_default
FNDA:1,_RNvNtNtNtCs7wZ7Ymcehhq_6silent6cookie10cookie_ext5testss_28test_response_cookies_cloned
FNDA:1,_RNvNtNtNtCs7wZ7Ymcehhq_6silent6cookie10cookie_ext5testss_29test_request_cookie_not_found
FNDA:1,_RNvNtNtNtCs7wZ7Ymcehhq_6silent6cookie10cookie_ext5testss_29test_request_cookies_with_jar
FNDA:1,_RNvNtNtNtCs7wZ7Ymcehhq_6silent6cookie10cookie_ext5testss_29test_request_multiple_cookies
FNDA:1,_RNvNtNtNtCs7wZ7Ymcehhq_6silent6cookie10cookie_ext5testss_29test_response_cookies_default
FNDA:1,_RNvNtNtNtCs7wZ7Ymcehhq_6silent6cookie10cookie_ext5testss_30test_request_empty_cookie_name
FNDA:1,_RNvNtNtNtCs7wZ7Ymcehhq_6silent6cookie10cookie_ext5testss_30test_response_cookie_not_found
FNDA:1,_RNvNtNtNtCs7wZ7Ymcehhq_6silent6cookie10cookie_ext5testss_30test_response_cookies_with_jar
FNDA:1,_RNvNtNtNtCs7wZ7Ymcehhq_6silent6cookie10cookie_ext5testss_30test_response_multiple_cookies
FNDA:1,_RNvNtNtNtCs7wZ7Ymcehhq_6silent6cookie10cookie_ext5testss_31test_request_cookie_with_string
FNDA:1,_RNvNtNtNtCs7wZ7Ymcehhq_6silent6cookie10cookie_ext5testss_31test_response_empty_cookie_name
FNDA:1,_RNvNtNtNtCs7wZ7Ymcehhq_6silent6cookie10cookie_ext5testss_32test_response_cookie_with_string
FNDA:1,_RNvNtNtNtCs7wZ7Ymcehhq_6silent6cookie10cookie_ext5testss_33test_request_cookies_mut_persists
FNDA:1,_RNvNtNtNtCs7wZ7Ymcehhq_6silent6cookie10cookie_ext5testss_33test_request_special_cookie_value
FNDA:1,_RNvNtNtNtCs7wZ7Ymcehhq_6silent6cookie10cookie_ext5testss_34test_response_cookies_mut_persists
FNDA:1,_RNvNtNtNtCs7wZ7Ymcehhq_6silent6cookie10cookie_ext5testss_34test_response_special_cookie_value
FNDA:1,_RNvNtNtNtCs7wZ7Ymcehhq_6silent6cookie10cookie_ext5testss_36test_request_cookies_mut_initializes
FNDA:1,_RNvNtNtNtCs7wZ7Ymcehhq_6silent6cookie10cookie_ext5testss_37test_response_cookies_mut_initializes
FNDA:1,_RNvNtNtNtCs7wZ7Ymcehhq_6silent6cookie10cookie_ext5testss_38test_request_cookies_mut_same_instance
FNDA:1,_RNvNtNtNtCs7wZ7Ymcehhq_6silent6cookie10cookie_ext5testss_39test_response_cookies_mut_same_instance
FNDA:1,_RINvXs_NtNtCs7wZ7Ymcehhq_6silent6cookie10cookie_extNtNtNtB9_4core8response8ResponseNtB5_9CookieExt6cookieNtNtCskxbBfrLNYPn_5alloc6string6StringEB9_
FNDA:12,_RINvXs_NtNtCs7wZ7Ymcehhq_6silent6cookie10cookie_extNtNtNtB9_4core8response8ResponseNtB5_9CookieExt6cookieReEB9_
FNDA:13,_RNvXs_NtNtCs7wZ7Ymcehhq_6silent6cookie10cookie_extNtNtNtB8_4core8response8ResponseNtB4_9CookieExt11cookies_mutB8_
FNDA:31,_RNvXs_NtNtCs7wZ7Ymcehhq_6silent6cookie10cookie_extNtNtNtB8_4core8response8ResponseNtB4_9CookieExt7cookiesB8_
FNDA:1,_RNCNvNtNtNtCs7wZ7Ymcehhq_6silent6cookie10cookie_ext5testss_27test_request_cookies_cloned0B9_
FNDA:1,_RNCNvNtNtNtCs7wZ7Ymcehhq_6silent6cookie10cookie_ext5testss_27test_request_cookies_cloneds_0B9_
FNDA:1,_RNCNvNtNtNtCs7wZ7Ymcehhq_6silent6cookie10cookie_ext5testss_28test_response_cookies_cloned0B9_
FNDA:1,_RNCNvNtNtNtCs7wZ7Ymcehhq_6silent6cookie10cookie_ext5testss_28test_response_cookies_cloneds_0B9_
FNDA:1,_RNCNvNtNtNtCs7wZ7Ymcehhq_6silent6cookie10cookie_ext5testss_33test_request_cookies_mut_persists0B9_
FNDA:1,_RNCNvNtNtNtCs7wZ7Ymcehhq_6silent6cookie10cookie_ext5testss_34test_response_cookies_mut_persists0B9_
FNDA:13,_RNvXNtNtCs7wZ7Ymcehhq_6silent6cookie10cookie_extNtNtNtB6_4core7request7RequestNtB2_9CookieExt11cookies_mut
FNDA:12,_RNvXNtNtCs7wZ7Ymcehhq_6silent6cookie10cookie_extNtNtNtB6_4core7request7RequestNtB2_9CookieExt7cookies
FNF:39
FNH:39
DA:15,12
DA:16,12
DA:17,12
DA:19,13
DA:20,13
DA:21,11
DA:22,11
DA:23,13
DA:24,13
DA:26,13
DA:27,13
DA:28,13
DA:32,31
DA:33,31
DA:34,31
DA:36,13
DA:37,13
DA:38,11
DA:39,11
DA:40,13
DA:41,13
DA:43,13
DA:44,13
DA:45,13
DA:56,1
DA:57,1
DA:59,1
DA:61,1
DA:62,1
DA:65,1
DA:66,1
DA:68,1
DA:70,1
DA:72,1
DA:73,1
DA:76,1
DA:77,1
DA:79,1
DA:80,1
DA:83,1
DA:84,1
DA:85,1
DA:86,1
DA:89,1
DA:90,1
DA:93,1
DA:94,1
DA:97,1
DA:98,1
DA:99,1
DA:102,1
DA:103,1
DA:105,1
DA:106,1
DA:109,1
DA:110,1
DA:113,1
DA:114,1
DA:117,1
DA:118,1
DA:119,1
DA:120,1
DA:123,1
DA:124,1
DA:127,1
DA:128,1
DA:131,1
DA:132,1
DA:135,1
DA:136,1
DA:137,1
DA:138,1
DA:141,1
DA:144,1
DA:145,1
DA:146,1
DA:151,1
DA:152,1
DA:154,1
DA:156,1
DA:157,1
DA:160,1
DA:161,1
DA:163,1
DA:165,1
DA:167,1
DA:168,1
DA:171,1
DA:172,1
DA:174,1
DA:175,1
DA:178,1
DA:179,1
DA:180,1
DA:181,1
DA:184,1
DA:185,1
DA:188,1
DA:189,1
DA:192,1
DA:193,1
DA:194,1
DA:197,1
DA:198,1
DA:200,1
DA:201,1
DA:204,1
DA:205,1
DA:208,1
DA:209,1
DA:212,1
DA:213,1
DA:214,1
DA:215,1
DA:218,1
DA:219,1
DA:222,1
DA:223,1
DA:226,1
DA:227,1
DA:230,1
DA:231,1
DA:232,1
DA:233,1
DA:236,1
DA:239,1
DA:240,1
DA:241,1
DA:246,1
DA:247,1
DA:248,1
DA:250,1
DA:251,1
DA:252,1
DA:254,1
DA:255,1
DA:256,1
DA:257,1
DA:260,1
DA:261,1
DA:262,1
DA:264,1
DA:265,1
DA:266,1
DA:268,1
DA:269,1
DA:270,1
DA:271,1
DA:276,1
DA:277,1
DA:278,1
DA:279,1
DA:282,1
DA:283,1
DA:284,1
DA:285,1
DA:288,1
DA:289,1
DA:290,1
DA:291,1
DA:294,1
DA:295,1
DA:296,1
DA:297,1
DA:300,1
DA:301,1
DA:302,1
DA:303,1
DA:305,1
DA:306,1
DA:307,1
DA:310,1
DA:311,1
DA:312,1
DA:313,1
DA:315,1
DA:316,1
DA:317,1
DA:320,1
DA:322,1
DA:323,1
DA:325,1
DA:326,1
DA:327,1
DA:328,1
DA:329,1
DA:330,1
DA:333,1
DA:335,1
DA:336,1
DA:339,1
DA:340,1
DA:341,1
DA:344,1
DA:345,1
DA:348,1
DA:349,1
DA:350,1
DA:353,1
DA:354,1
DA:355,1
DA:358,1
DA:359,1
DA:362,1
DA:363,1
DA:364,1
DA:367,1
DA:368,1
DA:371,1
DA:372,1
DA:373,1
DA:374,1
DA:376,1
DA:377,1
DA:378,1
DA:379,1
DA:382,1
DA:383,1
DA:384,1
DA:387,1
DA:388,1
DA:391,1
DA:392,1
DA:393,1
DA:394,1
DA:396,1
DA:397,1
DA:398,1
DA:399,1
DA:402,1
DA:403,1
DA:404,1
BRF:0
BRH:0
LF:238
LH:238
end_of_record
SF:/Users/hubertshelley/Documents/silent/silent/silent/src/cookie/middleware.rs
FN:10,_RNvMNtNtCs9iG4RRqsTsR_6silent6cookie10middlewareNtB2_16CookieMiddleware3new
FN:17,_RNvXs1_NtNtCs9iG4RRqsTsR_6silent6cookie10middlewareNtB5_16CookieMiddlewareNtNtNtB9_10middleware16middleware_trait17MiddleWareHandler6handle
FN:22,_RNCNCNvXs1_NtNtCs9iG4RRqsTsR_6silent6cookie10middlewareNtB9_16CookieMiddlewareNtNtNtBd_10middleware16middleware_trait17MiddleWareHandler6handle00Bd_
FN:31,_RNCNCNvXs1_NtNtCs9iG4RRqsTsR_6silent6cookie10middlewareNtB9_16CookieMiddlewareNtNtNtBd_10middleware16middleware_trait17MiddleWareHandler6handle0s0_0Bd_
FN:29,_RNCNCNvXs1_NtNtCs9iG4RRqsTsR_6silent6cookie10middlewareNtB9_16CookieMiddlewareNtNtNtBd_10middleware16middleware_trait17MiddleWareHandler6handle0s_0Bd_
FN:22,_RNCNCNvXs1_NtNtCs7wZ7Ymcehhq_6silent6cookie10middlewareNtB9_16CookieMiddlewareNtNtNtBd_10middleware16middleware_trait17MiddleWareHandler6handle00Bd_
FN:31,_RNCNCNvXs1_NtNtCs7wZ7Ymcehhq_6silent6cookie10middlewareNtB9_16CookieMiddlewareNtNtNtBd_10middleware16middleware_trait17MiddleWareHandler6handle0s0_0Bd_
FN:29,_RNCNCNvXs1_NtNtCs7wZ7Ymcehhq_6silent6cookie10middlewareNtB9_16CookieMiddlewareNtNtNtBd_10middleware16middleware_trait17MiddleWareHandler6handle0s_0Bd_
FN:10,_RNvMNtNtCs7wZ7Ymcehhq_6silent6cookie10middlewareNtB2_16CookieMiddleware3new
FN:17,_RNvXs1_NtNtCs7wZ7Ymcehhq_6silent6cookie10middlewareNtB5_16CookieMiddlewareNtNtNtB9_10middleware16middleware_trait17MiddleWareHandler6handle
FN:162,_RNCNCNCNvNtNtNtCs7wZ7Ymcehhq_6silent6cookie10middleware5testss_33test_cookie_middleware_no_cookies000Bd_
FN:384,_RNCNCNCNvNtNtNtCs7wZ7Ymcehhq_6silent6cookie10middleware5testss_36test_cookie_middleware_single_cookie000Bd_
FN:220,_RNCNCNCNvNtNtNtCs7wZ7Ymcehhq_6silent6cookie10middleware5testss_39test_cookie_middleware_multiple_cookies000Bd_
FN:250,_RNCNCNCNvNtNtNtCs7wZ7Ymcehhq_6silent6cookie10middleware5testss_41test_cookie_middleware_cookie_with_spaces000Bd_
FN:278,_RNCNCNCNvNtNtNtCs7wZ7Ymcehhq_6silent6cookie10middleware5testss_41test_cookie_middleware_empty_cookie_value000Bd_
FN:353,_RNCNCNCNvNtNtNtCs7wZ7Ymcehhq_6silent6cookie10middleware5testss_42test_cookie_middleware_concurrent_requests000Bd_
FN:360,_RNCNCNCNvNtNtNtCs7wZ7Ymcehhq_6silent6cookie10middleware5testss_42test_cookie_middleware_concurrent_requests0s_00Bd_
FN:105,_RNCNCNCNvNtNtNtCs7wZ7Ymcehhq_6silent6cookie10middleware5testss_44test_cookie_middleware_parse_request_cookies000Bd_
FN:134,_RNCNCNCNvNtNtNtCs7wZ7Ymcehhq_6silent6cookie10middleware5testss_44test_cookie_middleware_with_response_cookies000Bd_
FN:463,_RNCNCNCNvNtNtNtCs7wZ7Ymcehhq_6silent6cookie10middleware5testss_45test_cookie_middleware_different_http_methods000Bd_
FN:468,_RNCNCNCNvNtNtNtCs7wZ7Ymcehhq_6silent6cookie10middleware5testss_45test_cookie_middleware_different_http_methods0s_00Bd_
FN:185,_RNCNCNCNvNtNtNtCs7wZ7Ymcehhq_6silent6cookie10middleware5testss_45test_cookie_middleware_malformed_cookie_value000Bd_
FN:330,_RNCNCNCNvNtNtNtCs7wZ7Ymcehhq_6silent6cookie10middleware5testss_46test_cookie_middleware_response_has_cookie_jar000Bd_
FN:409,_RNCNCNCNvNtNtNtCs7wZ7Ymcehhq_6silent6cookie10middleware5testss_48test_cookie_middleware_cookie_with_special_chars000Bd_
FN:304,_RNCNCNCNvNtNtNtCs7wZ7Ymcehhq_6silent6cookie10middleware5testss_49test_cookie_middleware_preserves_original_cookies000Bd_
FN:436,_RNCNCNCNvNtNtNtCs7wZ7Ymcehhq_6silent6cookie10middleware5testss_50test_cookie_middleware_chain_with_other_middleware000Bd_
FN:441,_RNCNCNCNvNtNtNtCs7wZ7Ymcehhq_6silent6cookie10middleware5testss_50test_cookie_middleware_chain_with_other_middleware0s_00Bd_
FN:167,_RNCNCNvNtNtNtCs7wZ7Ymcehhq_6silent6cookie10middleware5testss_33test_cookie_middleware_no_cookies00Bb_
FN:388,_RNCNCNvNtNtNtCs7wZ7Ymcehhq_6silent6cookie10middleware5testss_36test_cookie_middleware_single_cookie00Bb_
FN:224,_RNCNCNvNtNtNtCs7wZ7Ymcehhq_6silent6cookie10middleware5testss_39test_cookie_middleware_multiple_cookies00Bb_
FN:254,_RNCNCNvNtNtNtCs7wZ7Ymcehhq_6silent6cookie10middleware5testss_41test_cookie_middleware_cookie_with_spaces00Bb_
FN:282,_RNCNCNvNtNtNtCs7wZ7Ymcehhq_6silent6cookie10middleware5testss_41test_cookie_middleware_empty_cookie_value00Bb_
FN:353,_RNCNCNvNtNtNtCs7wZ7Ymcehhq_6silent6cookie10middleware5testss_42test_cookie_middleware_concurrent_requests00Bb_
FN:358,_RNCNCNvNtNtNtCs7wZ7Ymcehhq_6silent6cookie10middleware5testss_42test_cookie_middleware_concurrent_requests0s_0Bb_
FN:110,_RNCNCNvNtNtNtCs7wZ7Ymcehhq_6silent6cookie10middleware5testss_44test_cookie_middleware_parse_request_cookies00Bb_
FN:144,_RNCNCNvNtNtNtCs7wZ7Ymcehhq_6silent6cookie10middleware5testss_44test_cookie_middleware_with_response_cookies00Bb_
FN:467,_RNCNCNvNtNtNtCs7wZ7Ymcehhq_6silent6cookie10middleware5testss_45test_cookie_middleware_different_http_methods00Bb_
FN:472,_RNCNCNvNtNtNtCs7wZ7Ymcehhq_6silent6cookie10middleware5testss_45test_cookie_middleware_different_http_methods0s_0Bb_
FN:190,_RNCNCNvNtNtNtCs7wZ7Ymcehhq_6silent6cookie10middleware5testss_45test_cookie_middleware_malformed_cookie_value00Bb_
FN:330,_RNCNCNvNtNtNtCs7wZ7Ymcehhq_6silent6cookie10middleware5testss_46test_cookie_middleware_response_has_cookie_jar00Bb_
FN:413,_RNCNCNvNtNtNtCs7wZ7Ymcehhq_6silent6cookie10middleware5testss_48test_cookie_middleware_cookie_with_special_chars00Bb_
FN:309,_RNCNCNvNtNtNtCs7wZ7Ymcehhq_6silent6cookie10middleware5testss_49test_cookie_middleware_preserves_original_cookies00Bb_
FN:436,_RNCNCNvNtNtNtCs7wZ7Ymcehhq_6silent6cookie10middleware5testss_50test_cookie_middleware_chain_with_other_middleware00Bb_
FN:445,_RNCNCNvNtNtNtCs7wZ7Ymcehhq_6silent6cookie10middleware5testss_50test_cookie_middleware_chain_with_other_middleware0s_0Bb_
FN:155,_RNCNvNtNtNtCs7wZ7Ymcehhq_6silent6cookie10middleware5testss_33test_cookie_middleware_no_cookies0B9_
FN:377,_RNCNvNtNtNtCs7wZ7Ymcehhq_6silent6cookie10middleware5testss_36test_cookie_middleware_single_cookie0B9_
FN:213,_RNCNvNtNtNtCs7wZ7Ymcehhq_6silent6cookie10middleware5testss_39test_cookie_middleware_multiple_cookies0B9_
FN:243,_RNCNvNtNtNtCs7wZ7Ymcehhq_6silent6cookie10middleware5testss_41test_cookie_middleware_cookie_with_spaces0B9_
FN:271,_RNCNvNtNtNtCs7wZ7Ymcehhq_6silent6cookie10middleware5testss_41test_cookie_middleware_empty_cookie_value0B9_
FN:346,_RNCNvNtNtNtCs7wZ7Ymcehhq_6silent6cookie10middleware5testss_42test_cookie_middleware_concurrent_requests0B9_
FN:98,_RNCNvNtNtNtCs7wZ7Ymcehhq_6silent6cookie10middleware5testss_44test_cookie_middleware_parse_request_cookies0B9_
FN:127,_RNCNvNtNtNtCs7wZ7Ymcehhq_6silent6cookie10middleware5testss_44test_cookie_middleware_with_response_cookies0B9_
FN:456,_RNCNvNtNtNtCs7wZ7Ymcehhq_6silent6cookie10middleware5testss_45test_cookie_middleware_different_http_methods0B9_
FN:178,_RNCNvNtNtNtCs7wZ7Ymcehhq_6silent6cookie10middleware5testss_45test_cookie_middleware_malformed_cookie_value0B9_
FN:323,_RNCNvNtNtNtCs7wZ7Ymcehhq_6silent6cookie10middleware5testss_46test_cookie_middleware_response_has_cookie_jar0B9_
FN:402,_RNCNvNtNtNtCs7wZ7Ymcehhq_6silent6cookie10middleware5testss_48test_cookie_middleware_cookie_with_special_chars0B9_
FN:297,_RNCNvNtNtNtCs7wZ7Ymcehhq_6silent6cookie10middleware5testss_49test_cookie_middleware_preserves_original_cookies0B9_
FN:430,_RNCNvNtNtNtCs7wZ7Ymcehhq_6silent6cookie10middleware5testss_50test_cookie_middleware_chain_with_other_middleware0B9_
FN:58,_RNvNtNtNtCs7wZ7Ymcehhq_6silent6cookie10middleware5testss_26test_cookie_middleware_new
FN:87,_RNvNtNtNtCs7wZ7Ymcehhq_6silent6cookie10middleware5testss_27test_cookie_middleware_size
FN:81,_RNvNtNtNtCs7wZ7Ymcehhq_6silent6cookie10middleware5testss_27test_cookie_middleware_type
FN:72,_RNvNtNtNtCs7wZ7Ymcehhq_6silent6cookie10middleware5testss_28test_cookie_middleware_debug
FN:64,_RNvNtNtNtCs7wZ7Ymcehhq_6silent6cookie10middleware5testss_30test_cookie_middleware_default
FN:155,_RNvNtNtNtCs7wZ7Ymcehhq_6silent6cookie10middleware5testss_33test_cookie_middleware_no_cookies
FN:377,_RNvNtNtNtCs7wZ7Ymcehhq_6silent6cookie10middleware5testss_36test_cookie_middleware_single_cookie
FN:213,_RNvNtNtNtCs7wZ7Ymcehhq_6silent6cookie10middleware5testss_39test_cookie_middleware_multiple_cookies
FN:243,_RNvNtNtNtCs7wZ7Ymcehhq_6silent6cookie10middleware5testss_41test_cookie_middleware_cookie_with_spaces
FN:271,_RNvNtNtNtCs7wZ7Ymcehhq_6silent6cookie10middleware5testss_41test_cookie_middleware_empty_cookie_value
FN:346,_RNvNtNtNtCs7wZ7Ymcehhq_6silent6cookie10middleware5testss_42test_cookie_middleware_concurrent_requests
FN:98,_RNvNtNtNtCs7wZ7Ymcehhq_6silent6cookie10middleware5testss_44test_cookie_middleware_parse_request_cookies
FN:127,_RNvNtNtNtCs7wZ7Ymcehhq_6silent6cookie10middleware5testss_44test_cookie_middleware_with_response_cookies
FN:456,_RNvNtNtNtCs7wZ7Ymcehhq_6silent6cookie10middleware5testss_45test_cookie_middleware_different_http_methods
FN:178,_RNvNtNtNtCs7wZ7Ymcehhq_6silent6cookie10middleware5testss_45test_cookie_middleware_malformed_cookie_value
FN:323,_RNvNtNtNtCs7wZ7Ymcehhq_6silent6cookie10middleware5testss_46test_cookie_middleware_response_has_cookie_jar
FN:402,_RNvNtNtNtCs7wZ7Ymcehhq_6silent6cookie10middleware5testss_48test_cookie_middleware_cookie_with_special_chars
FN:297,_RNvNtNtNtCs7wZ7Ymcehhq_6silent6cookie10middleware5testss_49test_cookie_middleware_preserves_original_cookies
FN:430,_RNvNtNtNtCs7wZ7Ymcehhq_6silent6cookie10middleware5testss_50test_cookie_middleware_chain_with_other_middleware
FNDA:0,_RNvMNtNtCs9iG4RRqsTsR_6silent6cookie10middlewareNtB2_16CookieMiddleware3new
FNDA:0,_RNvXs1_NtNtCs9iG4RRqsTsR_6silent6cookie10middlewareNtB5_16CookieMiddlewareNtNtNtB9_10middleware16middleware_trait17MiddleWareHandler6handle
FNDA:0,_RNCNCNvXs1_NtNtCs9iG4RRqsTsR_6silent6cookie10middlewareNtB9_16CookieMiddlewareNtNtNtBd_10middleware16middleware_trait17MiddleWareHandler6handle00Bd_
FNDA:0,_RNCNCNvXs1_NtNtCs9iG4RRqsTsR_6silent6cookie10middlewareNtB9_16CookieMiddlewareNtNtNtBd_10middleware16middleware_trait17MiddleWareHandler6handle0s0_0Bd_
FNDA:0,_RNCNCNvXs1_NtNtCs9iG4RRqsTsR_6silent6cookie10middlewareNtB9_16CookieMiddlewareNtNtNtBd_10middleware16middleware_trait17MiddleWareHandler6handle0s_0Bd_
FNDA:1,_RNCNCNvXs1_NtNtCs7wZ7Ymcehhq_6silent6cookie10middlewareNtB9_16CookieMiddlewareNtNtNtBd_10middleware16middleware_trait17MiddleWareHandler6handle00Bd_
FNDA:12,_RNCNCNvXs1_NtNtCs7wZ7Ymcehhq_6silent6cookie10middlewareNtB9_16CookieMiddlewareNtNtNtBd_10middleware16middleware_trait17MiddleWareHandler6handle0s0_0Bd_
FNDA:12,_RNCNCNvXs1_NtNtCs7wZ7Ymcehhq_6silent6cookie10middlewareNtB9_16CookieMiddlewareNtNtNtBd_10middleware16middleware_trait17MiddleWareHandler6handle0s_0Bd_
FNDA:17,_RNvMNtNtCs7wZ7Ymcehhq_6silent6cookie10middlewareNtB2_16CookieMiddleware3new
FNDA:19,_RNvXs1_NtNtCs7wZ7Ymcehhq_6silent6cookie10middlewareNtB5_16CookieMiddlewareNtNtNtB9_10middleware16middleware_trait17MiddleWareHandler6handle
FNDA:1,_RNCNCNCNvNtNtNtCs7wZ7Ymcehhq_6silent6cookie10middleware5testss_33test_cookie_middleware_no_cookies000Bd_
FNDA:1,_RNCNCNCNvNtNtNtCs7wZ7Ymcehhq_6silent6cookie10middleware5testss_36test_cookie_middleware_single_cookie000Bd_
FNDA:1,_RNCNCNCNvNtNtNtCs7wZ7Ymcehhq_6silent6cookie10middleware5testss_39test_cookie_middleware_multiple_cookies000Bd_
FNDA:1,_RNCNCNCNvNtNtNtCs7wZ7Ymcehhq_6silent6cookie10middleware5testss_41test_cookie_middleware_cookie_with_spaces000Bd_
FNDA:1,_RNCNCNCNvNtNtNtCs7wZ7Ymcehhq_6silent6cookie10middleware5testss_41test_cookie_middleware_empty_cookie_value000Bd_
FNDA:5,_RNCNCNCNvNtNtNtCs7wZ7Ymcehhq_6silent6cookie10middleware5testss_42test_cookie_middleware_concurrent_requests000Bd_
FNDA:5,_RNCNCNCNvNtNtNtCs7wZ7Ymcehhq_6silent6cookie10middleware5testss_42test_cookie_middleware_concurrent_requests0s_00Bd_
FNDA:1,_RNCNCNCNvNtNtNtCs7wZ7Ymcehhq_6silent6cookie10middleware5testss_44test_cookie_middleware_parse_request_cookies000Bd_
FNDA:1,_RNCNCNCNvNtNtNtCs7wZ7Ymcehhq_6silent6cookie10middleware5testss_44test_cookie_middleware_with_response_cookies000Bd_
FNDA:1,_RNCNCNCNvNtNtNtCs7wZ7Ymcehhq_6silent6cookie10middleware5testss_45test_cookie_middleware_different_http_methods000Bd_
FNDA:1,_RNCNCNCNvNtNtNtCs7wZ7Ymcehhq_6silent6cookie10middleware5testss_45test_cookie_middleware_different_http_methods0s_00Bd_
FNDA:0,_RNCNCNCNvNtNtNtCs7wZ7Ymcehhq_6silent6cookie10middleware5testss_45test_cookie_middleware_malformed_cookie_value000Bd_
FNDA:1,_RNCNCNCNvNtNtNtCs7wZ7Ymcehhq_6silent6cookie10middleware5testss_46test_cookie_middleware_response_has_cookie_jar000Bd_
FNDA:1,_RNCNCNCNvNtNtNtCs7wZ7Ymcehhq_6silent6cookie10middleware5testss_48test_cookie_middleware_cookie_with_special_chars000Bd_
FNDA:1,_RNCNCNCNvNtNtNtCs7wZ7Ymcehhq_6silent6cookie10middleware5testss_49test_cookie_middleware_preserves_original_cookies000Bd_
FNDA:1,_RNCNCNCNvNtNtNtCs7wZ7Ymcehhq_6silent6cookie10middleware5testss_50test_cookie_middleware_chain_with_other_middleware000Bd_
FNDA:1,_RNCNCNCNvNtNtNtCs7wZ7Ymcehhq_6silent6cookie10middleware5testss_50test_cookie_middleware_chain_with_other_middleware0s_00Bd_
FNDA:1,_RNCNCNvNtNtNtCs7wZ7Ymcehhq_6silent6cookie10middleware5testss_33test_cookie_middleware_no_cookies00Bb_
FNDA:1,_RNCNCNvNtNtNtCs7wZ7Ymcehhq_6silent6cookie10middleware5testss_36test_cookie_middleware_single_cookie00Bb_
FNDA:1,_RNCNCNvNtNtNtCs7wZ7Ymcehhq_6silent6cookie10middleware5testss_39test_cookie_middleware_multiple_cookies00Bb_
FNDA:1,_RNCNCNvNtNtNtCs7wZ7Ymcehhq_6silent6cookie10middleware5testss_41test_cookie_middleware_cookie_with_spaces00Bb_
FNDA:1,_RNCNCNvNtNtNtCs7wZ7Ymcehhq_6silent6cookie10middleware5testss_41test_cookie_middleware_empty_cookie_value00Bb_
FNDA:5,_RNCNCNvNtNtNtCs7wZ7Ymcehhq_6silent6cookie10middleware5testss_42test_cookie_middleware_concurrent_requests00Bb_
FNDA:5,_RNCNCNvNtNtNtCs7wZ7Ymcehhq_6silent6cookie10middleware5testss_42test_cookie_middleware_concurrent_requests0s_0Bb_
FNDA:1,_RNCNCNvNtNtNtCs7wZ7Ymcehhq_6silent6cookie10middleware5testss_44test_cookie_middleware_parse_request_cookies00Bb_
FNDA:1,_RNCNCNvNtNtNtCs7wZ7Ymcehhq_6silent6cookie10middleware5testss_44test_cookie_middleware_with_response_cookies00Bb_
FNDA:1,_RNCNCNvNtNtNtCs7wZ7Ymcehhq_6silent6cookie10middleware5testss_45test_cookie_middleware_different_http_methods00Bb_
FNDA:1,_RNCNCNvNtNtNtCs7wZ7Ymcehhq_6silent6cookie10middleware5testss_45test_cookie_middleware_different_http_methods0s_0Bb_
FNDA:0,_RNCNCNvNtNtNtCs7wZ7Ymcehhq_6silent6cookie10middleware5testss_45test_cookie_middleware_malformed_cookie_value00Bb_
FNDA:1,_RNCNCNvNtNtNtCs7wZ7Ymcehhq_6silent6cookie10middleware5testss_46test_cookie_middleware_response_has_cookie_jar00Bb_
FNDA:1,_RNCNCNvNtNtNtCs7wZ7Ymcehhq_6silent6cookie10middleware5testss_48test_cookie_middleware_cookie_with_special_chars00Bb_
FNDA:1,_RNCNCNvNtNtNtCs7wZ7Ymcehhq_6silent6cookie10middleware5testss_49test_cookie_middleware_preserves_original_cookies00Bb_
FNDA:1,_RNCNCNvNtNtNtCs7wZ7Ymcehhq_6silent6cookie10middleware5testss_50test_cookie_middleware_chain_with_other_middleware00Bb_
FNDA:1,_RNCNCNvNtNtNtCs7wZ7Ymcehhq_6silent6cookie10middleware5testss_50test_cookie_middleware_chain_with_other_middleware0s_0Bb_
FNDA:1,_RNCNvNtNtNtCs7wZ7Ymcehhq_6silent6cookie10middleware5testss_33test_cookie_middleware_no_cookies0B9_
FNDA:1,_RNCNvNtNtNtCs7wZ7Ymcehhq_6silent6cookie10middleware5testss_36test_cookie_middleware_single_cookie0B9_
FNDA:1,_RNCNvNtNtNtCs7wZ7Ymcehhq_6silent6cookie10middleware5testss_39test_cookie_middleware_multiple_cookies0B9_
FNDA:1,_RNCNvNtNtNtCs7wZ7Ymcehhq_6silent6cookie10middleware5testss_41test_cookie_middleware_cookie_with_spaces0B9_
FNDA:1,_RNCNvNtNtNtCs7wZ7Ymcehhq_6silent6cookie10middleware5testss_41test_cookie_middleware_empty_cookie_value0B9_
FNDA:1,_RNCNvNtNtNtCs7wZ7Ymcehhq_6silent6cookie10middleware5testss_42test_cookie_middleware_concurrent_requests0B9_
FNDA:1,_RNCNvNtNtNtCs7wZ7Ymcehhq_6silent6cookie10middleware5testss_44test_cookie_middleware_parse_request_cookies0B9_
FNDA:1,_RNCNvNtNtNtCs7wZ7Ymcehhq_6silent6cookie10middleware5testss_44test_cookie_middleware_with_response_cookies0B9_
FNDA:1,_RNCNvNtNtNtCs7wZ7Ymcehhq_6silent6cookie10middleware5testss_45test_cookie_middleware_different_http_methods0B9_
FNDA:1,_RNCNvNtNtNtCs7wZ7Ymcehhq_6silent6cookie10middleware5testss_45test_cookie_middleware_malformed_cookie_value0B9_
FNDA:1,_RNCNvNtNtNtCs7wZ7Ymcehhq_6silent6cookie10middleware5testss_46test_cookie_middleware_response_has_cookie_jar0B9_
FNDA:1,_RNCNvNtNtNtCs7wZ7Ymcehhq_6silent6cookie10middleware5testss_48test_cookie_middleware_cookie_with_special_chars0B9_
FNDA:1,_RNCNvNtNtNtCs7wZ7Ymcehhq_6silent6cookie10middleware5testss_49test_cookie_middleware_preserves_original_cookies0B9_
FNDA:1,_RNCNvNtNtNtCs7wZ7Ymcehhq_6silent6cookie10middleware5testss_50test_cookie_middleware_chain_with_other_middleware0B9_
FNDA:1,_RNvNtNtNtCs7wZ7Ymcehhq_6silent6cookie10middleware5testss_26test_cookie_middleware_new
FNDA:1,_RNvNtNtNtCs7wZ7Ymcehhq_6silent6cookie10middleware5testss_27test_cookie_middleware_size
FNDA:1,_RNvNtNtNtCs7wZ7Ymcehhq_6silent6cookie10middleware5testss_27test_cookie_middleware_type
FNDA:1,_RNvNtNtNtCs7wZ7Ymcehhq_6silent6cookie10middleware5testss_28test_cookie_middleware_debug
FNDA:1,_RNvNtNtNtCs7wZ7Ymcehhq_6silent6cookie10middleware5testss_30test_cookie_middleware_default
FNDA:1,_RNvNtNtNtCs7wZ7Ymcehhq_6silent6cookie10middleware5testss_33test_cookie_middleware_no_cookies
FNDA:1,_RNvNtNtNtCs7wZ7Ymcehhq_6silent6cookie10middleware5testss_36test_cookie_middleware_single_cookie
FNDA:1,_RNvNtNtNtCs7wZ7Ymcehhq_6silent6cookie10middleware5testss_39test_cookie_middleware_multiple_cookies
FNDA:1,_RNvNtNtNtCs7wZ7Ymcehhq_6silent6cookie10middleware5testss_41test_cookie_middleware_cookie_with_spaces
FNDA:1,_RNvNtNtNtCs7wZ7Ymcehhq_6silent6cookie10middleware5testss_41test_cookie_middleware_empty_cookie_value
FNDA:1,_RNvNtNtNtCs7wZ7Ymcehhq_6silent6cookie10middleware5testss_42test_cookie_middleware_concurrent_requests
FNDA:1,_RNvNtNtNtCs7wZ7Ymcehhq_6silent6cookie10middleware5testss_44test_cookie_middleware_parse_request_cookies
FNDA:1,_RNvNtNtNtCs7wZ7Ymcehhq_6silent6cookie10middleware5testss_44test_cookie_middleware_with_response_cookies
FNDA:1,_RNvNtNtNtCs7wZ7Ymcehhq_6silent6cookie10middleware5testss_45test_cookie_middleware_different_http_methods
FNDA:1,_RNvNtNtNtCs7wZ7Ymcehhq_6silent6cookie10middleware5testss_45test_cookie_middleware_malformed_cookie_value
FNDA:1,_RNvNtNtNtCs7wZ7Ymcehhq_6silent6cookie10middleware5testss_46test_cookie_middleware_response_has_cookie_jar
FNDA:1,_RNvNtNtNtCs7wZ7Ymcehhq_6silent6cookie10middleware5testss_48test_cookie_middleware_cookie_with_special_chars
FNDA:1,_RNvNtNtNtCs7wZ7Ymcehhq_6silent6cookie10middleware5testss_49test_cookie_middleware_preserves_original_cookies
FNDA:1,_RNvNtNtNtCs7wZ7Ymcehhq_6silent6cookie10middleware5testss_50test_cookie_middleware_chain_with_other_middleware
FNF:72
FNH:70
DA:10,17
DA:11,17
DA:12,17
DA:17,19
DA:22,1
DA:23,1
DA:25,1
DA:27,1
DA:29,12
DA:31,12
DA:47,19
DA:58,1
DA:59,1
DA:60,1
DA:61,1
DA:64,1
DA:65,1
DA:66,1
DA:67,1
DA:72,1
DA:73,1
DA:74,1
DA:75,1
DA:76,1
DA:81,1
DA:82,1
DA:83,1
DA:84,1
DA:87,1
DA:89,1
DA:91,1
DA:92,1
DA:98,1
DA:101,1
DA:103,1
DA:104,1
DA:105,1
DA:107,1
DA:108,1
DA:109,1
DA:110,2
DA:112,1
DA:115,1
DA:116,1
DA:117,1
DA:118,1
DA:121,1
DA:122,1
DA:123,1
DA:127,1
DA:130,1
DA:132,1
DA:133,1
DA:134,1
DA:136,1
DA:137,1
DA:138,1
DA:139,1
DA:140,1
DA:141,1
DA:142,1
DA:143,1
DA:144,2
DA:146,1
DA:147,1
DA:149,1
DA:150,1
DA:151,1
DA:155,1
DA:158,1
DA:160,1
DA:161,1
DA:162,1
DA:164,1
DA:165,1
DA:166,1
DA:167,2
DA:169,1
DA:170,1
DA:172,1
DA:173,1
DA:174,1
DA:178,1
DA:181,1
DA:183,1
DA:184,1
DA:185,1
DA:187,0
DA:188,0
DA:189,0
DA:190,0
DA:192,1
DA:195,1
DA:197,1
DA:198,1
DA:199,1
DA:200,1
DA:203,1
DA:205,1
DA:206,1
DA:207,1
DA:208,1
DA:209,1
DA:213,1
DA:216,1
DA:218,1
DA:219,1
DA:220,1
DA:221,1
DA:222,1
DA:223,1
DA:224,2
DA:226,1
DA:229,1
DA:230,1
DA:231,1
DA:232,1
DA:233,1
DA:234,1
DA:237,1
DA:238,1
DA:239,1
DA:243,1
DA:246,1
DA:248,1
DA:249,1
DA:250,1
DA:251,1
DA:252,1
DA:253,1
DA:254,2
DA:256,1
DA:259,1
DA:260,1
DA:261,1
DA:262,1
DA:265,1
DA:266,1
DA:267,1
DA:271,1
DA:274,1
DA:276,1
DA:277,1
DA:278,1
DA:279,1
DA:280,1
DA:281,1
DA:282,2
DA:284,1
DA:287,1
DA:288,1
DA:289,1
DA:291,1
DA:292,1
DA:293,1
DA:297,1
DA:300,1
DA:302,1
DA:303,1
DA:304,1
DA:306,1
DA:307,1
DA:308,1
DA:309,2
DA:311,1
DA:313,1
DA:314,1
DA:315,1
DA:317,1
DA:318,1
DA:319,1
DA:323,1
DA:326,1
DA:328,1
DA:329,1
DA:330,2
DA:332,1
DA:333,1
DA:335,1
DA:336,1
DA:338,1
DA:340,1
DA:341,1
DA:342,1
DA:346,1
DA:349,1
DA:351,1
DA:352,1
DA:353,10
DA:355,1
DA:358,5
DA:359,5
DA:360,5
DA:361,5
DA:362,5
DA:363,5
DA:364,5
DA:365,5
DA:367,5
DA:368,5
DA:369,5
DA:370,1
DA:371,1
DA:377,1
DA:380,1
DA:382,1
DA:383,1
DA:384,1
DA:385,1
DA:386,1
DA:387,1
DA:388,2
DA:390,1
DA:392,1
DA:393,1
DA:394,1
DA:396,1
DA:397,1
DA:398,1
DA:402,1
DA:405,1
DA:407,1
DA:408,1
DA:409,1
DA:410,1
DA:411,1
DA:412,1
DA:413,2
DA:415,1
DA:418,1
DA:419,1
DA:420,1
DA:421,1
DA:424,1
DA:425,1
DA:426,1
DA:430,1
DA:434,1
DA:435,1
DA:436,2
DA:438,1
DA:439,1
DA:440,1
DA:441,1
DA:442,1
DA:443,1
DA:444,1
DA:445,2
DA:447,1
DA:448,1
DA:450,1
DA:451,1
DA:452,1
DA:456,1
DA:459,1
DA:461,1
DA:462,1
DA:463,1
DA:464,1
DA:465,1
DA:466,1
DA:467,2
DA:468,1
DA:469,1
DA:470,1
DA:471,1
DA:472,2
DA:474,1
DA:477,1
DA:478,1
DA:479,1
DA:480,1
DA:483,1
DA:484,1
DA:485,1
DA:486,1
DA:487,1
BRF:0
BRH:0
LF:343
LH:336
end_of_record
SF:/Users/hubertshelley/Documents/silent/silent/silent/src/core/form.rs
FN:41,_RNCNCNvMNtNtCs9iG4RRqsTsR_6silent4core4formNtB6_8FormData4read00Ba_
FN:46,_RNCNCNvMNtNtCs9iG4RRqsTsR_6silent4core4formNtB6_8FormData4read0s0_0Ba_
FN:42,_RNCNCNvMNtNtCs9iG4RRqsTsR_6silent4core4formNtB6_8FormData4read0s_0Ba_
FN:139,_RNCNCNvMs0_NtNtCs9iG4RRqsTsR_6silent4core4formNtB9_8FilePart6create00Bd_
FN:144,_RNCNCNvMs0_NtNtCs9iG4RRqsTsR_6silent4core4formNtB9_8FilePart6create0s_0Bd_
FN:37,_RNCNvMNtNtCs9iG4RRqsTsR_6silent4core4formNtB4_8FormData4read0B8_
FN:125,_RNCNvMs0_NtNtCs9iG4RRqsTsR_6silent4core4formNtB7_8FilePart4save0Bb_
FN:132,_RNCNvMs0_NtNtCs9iG4RRqsTsR_6silent4core4formNtB7_8FilePart6create0Bb_
FN:28,_RNvMNtNtCs9iG4RRqsTsR_6silent4core4formNtB2_8FormData3newB6_
FN:117,_RNvMs0_NtNtCs9iG4RRqsTsR_6silent4core4formNtB5_8FilePart21do_not_delete_on_dropB9_
FN:87,_RNvMs0_NtNtCs9iG4RRqsTsR_6silent4core4formNtB5_8FilePart4nameB9_
FN:106,_RNvMs0_NtNtCs9iG4RRqsTsR_6silent4core4formNtB5_8FilePart4pathB9_
FN:122,_RNvMs0_NtNtCs9iG4RRqsTsR_6silent4core4formNtB5_8FilePart4saveB9_
FN:111,_RNvMs0_NtNtCs9iG4RRqsTsR_6silent4core4formNtB5_8FilePart4sizeB9_
FN:132,_RNvMs0_NtNtCs9iG4RRqsTsR_6silent4core4formNtB5_8FilePart6createB9_
FN:97,_RNvMs0_NtNtCs9iG4RRqsTsR_6silent4core4formNtB5_8FilePart7headersB9_
FN:92,_RNvMs0_NtNtCs9iG4RRqsTsR_6silent4core4formNtB5_8FilePart8name_mutB9_
FN:63,_RNvXs_NtNtCs9iG4RRqsTsR_6silent4core4formNtB4_8FormDataNtNtCsiMcf32LsBml_4core7default7Default7defaultB8_
FN:164,_RNvXs1_NtNtCs9iG4RRqsTsR_6silent4core4formNtB5_8FilePartNtNtNtCsiMcf32LsBml_4core3ops4drop4Drop4drop
FN:37,_RNvMNtNtCs9iG4RRqsTsR_6silent4core4formNtB2_8FormData4read
FN:101,_RNvMs0_NtNtCs9iG4RRqsTsR_6silent4core4formNtB5_8FilePart11headers_mut
FN:168,_RNCNvXs1_NtNtCs9iG4RRqsTsR_6silent4core4formNtB7_8FilePartNtNtNtCsiMcf32LsBml_4core3ops4drop4Drop4drop0Bb_
FN:41,_RNCNCNvMNtNtCs7wZ7Ymcehhq_6silent4core4formNtB6_8FormData4read00Ba_
FN:46,_RNCNCNvMNtNtCs7wZ7Ymcehhq_6silent4core4formNtB6_8FormData4read0s0_0Ba_
FN:42,_RNCNCNvMNtNtCs7wZ7Ymcehhq_6silent4core4formNtB6_8FormData4read0s_0Ba_
FN:139,_RNCNCNvMs0_NtNtCs7wZ7Ymcehhq_6silent4core4formNtB9_8FilePart6create00Bd_
FN:144,_RNCNCNvMs0_NtNtCs7wZ7Ymcehhq_6silent4core4formNtB9_8FilePart6create0s_0Bd_
FN:37,_RNCNvMNtNtCs7wZ7Ymcehhq_6silent4core4formNtB4_8FormData4read0B8_
FN:125,_RNCNvMs0_NtNtCs7wZ7Ymcehhq_6silent4core4formNtB7_8FilePart4save0Bb_
FN:132,_RNCNvMs0_NtNtCs7wZ7Ymcehhq_6silent4core4formNtB7_8FilePart6create0Bb_
FN:168,_RNCNvXs1_NtNtCs7wZ7Ymcehhq_6silent4core4formNtB7_8FilePartNtNtNtCsiMcf32LsBml_4core3ops4drop4Drop4drop0Bb_
FN:28,_RNvMNtNtCs7wZ7Ymcehhq_6silent4core4formNtB2_8FormData3newB6_
FN:37,_RNvMNtNtCs7wZ7Ymcehhq_6silent4core4formNtB2_8FormData4read
FN:101,_RNvMs0_NtNtCs7wZ7Ymcehhq_6silent4core4formNtB5_8FilePart11headers_mut
FN:117,_RNvMs0_NtNtCs7wZ7Ymcehhq_6silent4core4formNtB5_8FilePart21do_not_delete_on_dropB9_
FN:87,_RNvMs0_NtNtCs7wZ7Ymcehhq_6silent4core4formNtB5_8FilePart4nameB9_
FN:106,_RNvMs0_NtNtCs7wZ7Ymcehhq_6silent4core4formNtB5_8FilePart4pathB9_
FN:122,_RNvMs0_NtNtCs7wZ7Ymcehhq_6silent4core4formNtB5_8FilePart4saveB9_
FN:111,_RNvMs0_NtNtCs7wZ7Ymcehhq_6silent4core4formNtB5_8FilePart4sizeB9_
FN:132,_RNvMs0_NtNtCs7wZ7Ymcehhq_6silent4core4formNtB5_8FilePart6createB9_
FN:97,_RNvMs0_NtNtCs7wZ7Ymcehhq_6silent4core4formNtB5_8FilePart7headersB9_
FN:92,_RNvMs0_NtNtCs7wZ7Ymcehhq_6silent4core4formNtB5_8FilePart8name_mutB9_
FN:63,_RNvXs_NtNtCs7wZ7Ymcehhq_6silent4core4formNtB4_8FormDataNtNtCsiMcf32LsBml_4core7default7Default7defaultB8_
FN:210,_RNCNvNtNtNtCs7wZ7Ymcehhq_6silent4core4form5testss_30test_form_data_read_empty_body0B9_
FN:199,_RNCNvNtNtNtCs7wZ7Ymcehhq_6silent4core4form5testss_35test_form_data_read_no_content_type0B9_
FN:515,_RNCNvNtNtNtCs7wZ7Ymcehhq_6silent4core4form5testss_38test_form_data_read_malformed_boundary0B9_
FN:224,_RNCNvNtNtNtCs7wZ7Ymcehhq_6silent4core4form5testss_40test_form_data_read_invalid_content_type0B9_
FN:184,_RNvNtNtNtCs7wZ7Ymcehhq_6silent4core4form5testss_18test_form_data_new
FN:234,_RNvNtNtNtCs7wZ7Ymcehhq_6silent4core4form5testss_19test_file_part_name
FN:337,_RNvNtNtNtCs7wZ7Ymcehhq_6silent4core4form5testss_19test_file_part_path
FN:372,_RNvNtNtNtCs7wZ7Ymcehhq_6silent4core4form5testss_19test_file_part_save
FN:354,_RNvNtNtNtCs7wZ7Ymcehhq_6silent4core4form5testss_19test_file_part_size
FN:442,_RNvNtNtNtCs7wZ7Ymcehhq_6silent4core4form5testss_20test_file_part_clone
FN:571,_RNvNtNtNtCs7wZ7Ymcehhq_6silent4core4form5testss_20test_file_part_debug
FN:564,_RNvNtNtNtCs7wZ7Ymcehhq_6silent4core4form5testss_20test_form_data_debug
FN:699,_RNvNtNtNtCs7wZ7Ymcehhq_6silent4core4form5testss_21test_file_part_rename
FN:288,_RNvNtNtNtCs7wZ7Ymcehhq_6silent4core4form5testss_22test_file_part_headers
FN:191,_RNvNtNtNtCs7wZ7Ymcehhq_6silent4core4form5testss_22test_form_data_default
FN:268,_RNvNtNtNtCs7wZ7Ymcehhq_6silent4core4form5testss_23test_file_part_name_mut
FN:251,_RNvNtNtNtCs7wZ7Ymcehhq_6silent4core4form5testss_24test_file_part_name_none
FN:528,_RNvNtNtNtCs7wZ7Ymcehhq_6silent4core4form5testss_24test_file_part_zero_size
FN:546,_RNvNtNtNtCs7wZ7Ymcehhq_6silent4core4form5testss_25test_file_part_large_size
FN:311,_RNvNtNtNtCs7wZ7Ymcehhq_6silent4core4form5testss_26test_file_part_headers_mut
FN:643,_RNvNtNtNtCs7wZ7Ymcehhq_6silent4core4form5testss_28test_file_part_temp_dir_none
FN:662,_RNvNtNtNtCs7wZ7Ymcehhq_6silent4core4form5testss_28test_file_part_temp_dir_some
FN:721,_RNvNtNtNtCs7wZ7Ymcehhq_6silent4core4form5testss_29test_file_part_empty_filename
FN:480,_RNvNtNtNtCs7wZ7Ymcehhq_6silent4core4form5testss_29test_form_data_files_multimap
FN:463,_RNvNtNtNtCs7wZ7Ymcehhq_6silent4core4form5testss_30test_form_data_fields_multimap
FN:210,_RNvNtNtNtCs7wZ7Ymcehhq_6silent4core4form5testss_30test_form_data_read_empty_body
FN:739,_RNvNtNtNtCs7wZ7Ymcehhq_6silent4core4form5testss_31test_file_part_unicode_filename
FN:681,_RNvNtNtNtCs7wZ7Ymcehhq_6silent4core4form5testss_31test_form_data_duplicate_fields
FN:394,_RNvNtNtNtCs7wZ7Ymcehhq_6silent4core4form5testss_32test_file_part_save_invalid_path
FN:434,_RNvNtNtNtCs7wZ7Ymcehhq_6silent4core4form5testss_33test_file_part_size_and_alignment
FN:590,_RNvNtNtNtCs7wZ7Ymcehhq_6silent4core4form5testss_34test_file_part_with_custom_headers
FN:199,_RNvNtNtNtCs7wZ7Ymcehhq_6silent4core4form5testss_35test_form_data_read_no_content_type
FN:414,_RNvNtNtNtCs7wZ7Ymcehhq_6silent4core4form5testss_36test_file_part_do_not_delete_on_drop
FN:515,_RNvNtNtNtCs7wZ7Ymcehhq_6silent4core4form5testss_38test_form_data_read_malformed_boundary
FN:758,_RNvNtNtNtCs7wZ7Ymcehhq_6silent4core4form5testss_40test_form_data_multiple_fields_and_files
FN:224,_RNvNtNtNtCs7wZ7Ymcehhq_6silent4core4form5testss_40test_form_data_read_invalid_content_type
FN:623,_RNvNtNtNtCs7wZ7Ymcehhq_6silent4core4form5testss_43test_file_part_path_with_special_characters
FN:164,_RNvXs1_NtNtCs7wZ7Ymcehhq_6silent4core4formNtB5_8FilePartNtNtNtCsiMcf32LsBml_4core3ops4drop4Drop4drop
FNDA:0,_RNCNCNvMNtNtCs9iG4RRqsTsR_6silent4core4formNtB6_8FormData4read00Ba_
FNDA:0,_RNCNCNvMNtNtCs9iG4RRqsTsR_6silent4core4formNtB6_8FormData4read0s0_0Ba_
FNDA:0,_RNCNCNvMNtNtCs9iG4RRqsTsR_6silent4core4formNtB6_8FormData4read0s_0Ba_
FNDA:0,_RNCNCNvMs0_NtNtCs9iG4RRqsTsR_6silent4core4formNtB9_8FilePart6create00Bd_
FNDA:0,_RNCNCNvMs0_NtNtCs9iG4RRqsTsR_6silent4core4formNtB9_8FilePart6create0s_0Bd_
FNDA:0,_RNCNvMNtNtCs9iG4RRqsTsR_6silent4core4formNtB4_8FormData4read0B8_
FNDA:0,_RNCNvMs0_NtNtCs9iG4RRqsTsR_6silent4core4formNtB7_8FilePart4save0Bb_
FNDA:0,_RNCNvMs0_NtNtCs9iG4RRqsTsR_6silent4core4formNtB7_8FilePart6create0Bb_
FNDA:0,_RNvMNtNtCs9iG4RRqsTsR_6silent4core4formNtB2_8FormData3newB6_
FNDA:0,_RNvMs0_NtNtCs9iG4RRqsTsR_6silent4core4formNtB5_8FilePart21do_not_delete_on_dropB9_
FNDA:0,_RNvMs0_NtNtCs9iG4RRqsTsR_6silent4core4formNtB5_8FilePart4nameB9_
FNDA:0,_RNvMs0_NtNtCs9iG4RRqsTsR_6silent4core4formNtB5_8FilePart4pathB9_
FNDA:0,_RNvMs0_NtNtCs9iG4RRqsTsR_6silent4core4formNtB5_8FilePart4saveB9_
FNDA:0,_RNvMs0_NtNtCs9iG4RRqsTsR_6silent4core4formNtB5_8FilePart4sizeB9_
FNDA:0,_RNvMs0_NtNtCs9iG4RRqsTsR_6silent4core4formNtB5_8FilePart6createB9_
FNDA:0,_RNvMs0_NtNtCs9iG4RRqsTsR_6silent4core4formNtB5_8FilePart7headersB9_
FNDA:0,_RNvMs0_NtNtCs9iG4RRqsTsR_6silent4core4formNtB5_8FilePart8name_mutB9_
FNDA:0,_RNvXs_NtNtCs9iG4RRqsTsR_6silent4core4formNtB4_8FormDataNtNtCsiMcf32LsBml_4core7default7Default7defaultB8_
FNDA:0,_RNvXs1_NtNtCs9iG4RRqsTsR_6silent4core4formNtB5_8FilePartNtNtNtCsiMcf32LsBml_4core3ops4drop4Drop4drop
FNDA:0,_RNvMNtNtCs9iG4RRqsTsR_6silent4core4formNtB2_8FormData4read
FNDA:0,_RNvMs0_NtNtCs9iG4RRqsTsR_6silent4core4formNtB5_8FilePart11headers_mut
FNDA:0,_RNCNvXs1_NtNtCs9iG4RRqsTsR_6silent4core4formNtB7_8FilePartNtNtNtCsiMcf32LsBml_4core3ops4drop4Drop4drop0Bb_
FNDA:4,_RNCNCNvMNtNtCs7wZ7Ymcehhq_6silent4core4formNtB6_8FormData4read00Ba_
FNDA:0,_RNCNCNvMNtNtCs7wZ7Ymcehhq_6silent4core4formNtB6_8FormData4read0s0_0Ba_
FNDA:4,_RNCNCNvMNtNtCs7wZ7Ymcehhq_6silent4core4formNtB6_8FormData4read0s_0Ba_
FNDA:0,_RNCNCNvMs0_NtNtCs7wZ7Ymcehhq_6silent4core4formNtB9_8FilePart6create00Bd_
FNDA:0,_RNCNCNvMs0_NtNtCs7wZ7Ymcehhq_6silent4core4formNtB9_8FilePart6create0s_0Bd_
FNDA:5,_RNCNvMNtNtCs7wZ7Ymcehhq_6silent4core4formNtB4_8FormData4read0B8_
FNDA:1,_RNCNvMs0_NtNtCs7wZ7Ymcehhq_6silent4core4formNtB7_8FilePart4save0Bb_
FNDA:0,_RNCNvMs0_NtNtCs7wZ7Ymcehhq_6silent4core4formNtB7_8FilePart6create0Bb_
FNDA:25,_RNCNvXs1_NtNtCs7wZ7Ymcehhq_6silent4core4formNtB7_8FilePartNtNtNtCsiMcf32LsBml_4core3ops4drop4Drop4drop0Bb_
FNDA:12,_RNvMNtNtCs7wZ7Ymcehhq_6silent4core4formNtB2_8FormData3newB6_
FNDA:5,_RNvMNtNtCs7wZ7Ymcehhq_6silent4core4formNtB2_8FormData4read
FNDA:1,_RNvMs0_NtNtCs7wZ7Ymcehhq_6silent4core4formNtB5_8FilePart11headers_mut
FNDA:1,_RNvMs0_NtNtCs7wZ7Ymcehhq_6silent4core4formNtB5_8FilePart21do_not_delete_on_dropB9_
FNDA:9,_RNvMs0_NtNtCs7wZ7Ymcehhq_6silent4core4formNtB5_8FilePart4nameB9_
FNDA:7,_RNvMs0_NtNtCs7wZ7Ymcehhq_6silent4core4formNtB5_8FilePart4pathB9_
FNDA:2,_RNvMs0_NtNtCs7wZ7Ymcehhq_6silent4core4formNtB5_8FilePart4saveB9_
FNDA:5,_RNvMs0_NtNtCs7wZ7Ymcehhq_6silent4core4formNtB5_8FilePart4sizeB9_
FNDA:0,_RNvMs0_NtNtCs7wZ7Ymcehhq_6silent4core4formNtB5_8FilePart6createB9_
FNDA:5,_RNvMs0_NtNtCs7wZ7Ymcehhq_6silent4core4formNtB5_8FilePart7headersB9_
FNDA:2,_RNvMs0_NtNtCs7wZ7Ymcehhq_6silent4core4formNtB5_8FilePart8name_mutB9_
FNDA:1,_RNvXs_NtNtCs7wZ7Ymcehhq_6silent4core4formNtB4_8FormDataNtNtCsiMcf32LsBml_4core7default7Default7defaultB8_
FNDA:1,_RNCNvNtNtNtCs7wZ7Ymcehhq_6silent4core4form5testss_30test_form_data_read_empty_body0B9_
FNDA:1,_RNCNvNtNtNtCs7wZ7Ymcehhq_6silent4core4form5testss_35test_form_data_read_no_content_type0B9_
FNDA:1,_RNCNvNtNtNtCs7wZ7Ymcehhq_6silent4core4form5testss_38test_form_data_read_malformed_boundary0B9_
FNDA:1,_RNCNvNtNtNtCs7wZ7Ymcehhq_6silent4core4form5testss_40test_form_data_read_invalid_content_type0B9_
FNDA:1,_RNvNtNtNtCs7wZ7Ymcehhq_6silent4core4form5testss_18test_form_data_new
FNDA:1,_RNvNtNtNtCs7wZ7Ymcehhq_6silent4core4form5testss_19test_file_part_name
FNDA:1,_RNvNtNtNtCs7wZ7Ymcehhq_6silent4core4form5testss_19test_file_part_path
FNDA:1,_RNvNtNtNtCs7wZ7Ymcehhq_6silent4core4form5testss_19test_file_part_save
FNDA:1,_RNvNtNtNtCs7wZ7Ymcehhq_6silent4core4form5testss_19test_file_part_size
FNDA:1,_RNvNtNtNtCs7wZ7Ymcehhq_6silent4core4form5testss_20test_file_part_clone
FNDA:1,_RNvNtNtNtCs7wZ7Ymcehhq_6silent4core4form5testss_20test_file_part_debug
FNDA:1,_RNvNtNtNtCs7wZ7Ymcehhq_6silent4core4form5testss_20test_form_data_debug
FNDA:1,_RNvNtNtNtCs7wZ7Ymcehhq_6silent4core4form5testss_21test_file_part_rename
FNDA:1,_RNvNtNtNtCs7wZ7Ymcehhq_6silent4core4form5testss_22test_file_part_headers
FNDA:1,_RNvNtNtNtCs7wZ7Ymcehhq_6silent4core4form5testss_22test_form_data_default
FNDA:1,_RNvNtNtNtCs7wZ7Ymcehhq_6silent4core4form5testss_23test_file_part_name_mut
FNDA:1,_RNvNtNtNtCs7wZ7Ymcehhq_6silent4core4form5testss_24test_file_part_name_none
FNDA:1,_RNvNtNtNtCs7wZ7Ymcehhq_6silent4core4form5testss_24test_file_part_zero_size
FNDA:1,_RNvNtNtNtCs7wZ7Ymcehhq_6silent4core4form5testss_25test_file_part_large_size
FNDA:1,_RNvNtNtNtCs7wZ7Ymcehhq_6silent4core4form5testss_26test_file_part_headers_mut
FNDA:1,_RNvNtNtNtCs7wZ7Ymcehhq_6silent4core4form5testss_28test_file_part_temp_dir_none
FNDA:1,_RNvNtNtNtCs7wZ7Ymcehhq_6silent4core4form5testss_28test_file_part_temp_dir_some
FNDA:1,_RNvNtNtNtCs7wZ7Ymcehhq_6silent4core4form5testss_29test_file_part_empty_filename
FNDA:1,_RNvNtNtNtCs7wZ7Ymcehhq_6silent4core4form5testss_29test_form_data_files_multimap
FNDA:1,_RNvNtNtNtCs7wZ7Ymcehhq_6silent4core4form5testss_30test_form_data_fields_multimap
FNDA:1,_RNvNtNtNtCs7wZ7Ymcehhq_6silent4core4form5testss_30test_form_data_read_empty_body
FNDA:1,_RNvNtNtNtCs7wZ7Ymcehhq_6silent4core4form5testss_31test_file_part_unicode_filename
FNDA:1,_RNvNtNtNtCs7wZ7Ymcehhq_6silent4core4form5testss_31test_form_data_duplicate_fields
FNDA:1,_RNvNtNtNtCs7wZ7Ymcehhq_6silent4core4form5testss_32test_file_part_save_invalid_path
FNDA:1,_RNvNtNtNtCs7wZ7Ymcehhq_6silent4core4form5testss_33test_file_part_size_and_alignment
FNDA:1,_RNvNtNtNtCs7wZ7Ymcehhq_6silent4core4form5testss_34test_file_part_with_custom_headers
FNDA:1,_RNvNtNtNtCs7wZ7Ymcehhq_6silent4core4form5testss_35test_form_data_read_no_content_type
FNDA:1,_RNvNtNtNtCs7wZ7Ymcehhq_6silent4core4form5testss_36test_file_part_do_not_delete_on_drop
FNDA:1,_RNvNtNtNtCs7wZ7Ymcehhq_6silent4core4form5testss_38test_form_data_read_malformed_boundary
FNDA:1,_RNvNtNtNtCs7wZ7Ymcehhq_6silent4core4form5testss_40test_form_data_multiple_fields_and_files
FNDA:1,_RNvNtNtNtCs7wZ7Ymcehhq_6silent4core4form5testss_40test_form_data_read_invalid_content_type
FNDA:1,_RNvNtNtNtCs7wZ7Ymcehhq_6silent4core4form5testss_43test_file_part_path_with_special_characters
FNDA:27,_RNvXs1_NtNtCs7wZ7Ymcehhq_6silent4core4formNtB5_8FilePartNtNtNtCsiMcf32LsBml_4core3ops4drop4Drop4drop
FNF:59
FNH:54
DA:28,12
DA:29,12
DA:30,12
DA:31,12
DA:32,12
DA:33,12
DA:34,12
DA:37,5
DA:38,5
DA:39,5
DA:40,5
DA:41,5
DA:42,5
DA:44,3
DA:45,3
DA:46,0
DA:47,0
DA:48,0
DA:49,0
DA:50,0
DA:52,0
DA:54,0
DA:56,2
DA:57,2
DA:58,5
DA:63,1
DA:64,1
DA:65,1
DA:87,9
DA:88,9
DA:89,9
DA:92,2
DA:93,2
DA:94,2
DA:97,5
DA:98,5
DA:99,5
DA:101,1
DA:102,1
DA:103,1
DA:106,7
DA:107,7
DA:108,7
DA:111,5
DA:112,5
DA:113,5
DA:117,1
DA:118,1
DA:119,1
DA:122,2
DA:123,2
DA:125,1
DA:126,1
DA:127,2
DA:132,0
DA:134,0
DA:135,0
DA:136,0
DA:137,0
DA:138,0
DA:139,0
DA:140,0
DA:142,0
DA:143,0
DA:144,0
DA:145,0
DA:147,0
DA:148,0
DA:149,0
DA:150,0
DA:151,0
DA:153,0
DA:154,0
DA:155,0
DA:156,0
DA:157,0
DA:158,0
DA:159,0
DA:160,0
DA:164,27
DA:165,27
DA:166,25
DA:167,25
DA:168,25
DA:169,25
DA:170,25
DA:171,25
DA:172,2
DA:173,27
DA:184,1
DA:185,1
DA:186,1
DA:187,1
DA:188,1
DA:191,1
DA:192,1
DA:193,1
DA:194,1
DA:195,1
DA:199,1
DA:200,1
DA:201,1
DA:202,1
DA:203,1
DA:204,1
DA:205,1
DA:206,1
DA:207,1
DA:210,1
DA:211,1
DA:212,1
DA:213,1
DA:214,1
DA:216,1
DA:217,1
DA:220,1
DA:221,1
DA:224,1
DA:225,1
DA:226,1
DA:227,1
DA:228,1
DA:229,1
DA:230,1
DA:234,1
DA:235,1
DA:236,1
DA:237,1
DA:239,1
DA:240,1
DA:241,1
DA:242,1
DA:243,1
DA:244,1
DA:245,1
DA:247,1
DA:248,1
DA:251,1
DA:252,1
DA:253,1
DA:254,1
DA:256,1
DA:257,1
DA:258,1
DA:259,1
DA:260,1
DA:261,1
DA:262,1
DA:264,1
DA:265,1
DA:268,1
DA:269,1
DA:270,1
DA:271,1
DA:273,1
DA:274,1
DA:275,1
DA:276,1
DA:277,1
DA:278,1
DA:279,1
DA:281,1
DA:282,1
DA:283,1
DA:284,1
DA:285,1
DA:288,1
DA:289,1
DA:290,1
DA:291,1
DA:293,1
DA:294,1
DA:296,1
DA:297,1
DA:298,1
DA:299,1
DA:300,1
DA:301,1
DA:302,1
DA:304,1
DA:305,1
DA:308,1
DA:311,1
DA:312,1
DA:313,1
DA:314,1
DA:316,1
DA:317,1
DA:319,1
DA:320,1
DA:321,1
DA:322,1
DA:323,1
DA:324,1
DA:325,1
DA:327,1
DA:328,1
DA:329,1
DA:330,1
DA:331,1
DA:334,1
DA:337,1
DA:338,1
DA:339,1
DA:340,1
DA:342,1
DA:343,1
DA:344,1
DA:345,1
DA:346,1
DA:347,1
DA:348,1
DA:350,1
DA:351,1
DA:354,1
DA:355,1
DA:356,1
DA:357,1
DA:359,1
DA:360,1
DA:361,1
DA:362,1
DA:363,1
DA:364,1
DA:365,1
DA:367,1
DA:368,1
DA:372,1
DA:373,1
DA:374,1
DA:375,1
DA:376,1
DA:378,1
DA:379,1
DA:380,1
DA:381,1
DA:382,1
DA:383,1
DA:384,1
DA:386,1
DA:387,1
DA:388,1
DA:389,1
DA:390,1
DA:391,1
DA:394,1
DA:395,1
DA:396,1
DA:397,1
DA:399,1
DA:400,1
DA:401,1
DA:402,1
DA:403,1
DA:404,1
DA:405,1
DA:408,1
DA:409,1
DA:410,1
DA:414,1
DA:415,1
DA:416,1
DA:417,1
DA:419,1
DA:420,1
DA:421,1
DA:422,1
DA:423,1
DA:424,1
DA:425,1
DA:428,1
DA:429,1
DA:430,1
DA:434,1
DA:435,1
DA:436,1
DA:437,1
DA:438,1
DA:439,1
DA:442,1
DA:443,1
DA:444,1
DA:445,1
DA:447,1
DA:448,1
DA:449,1
DA:450,1
DA:451,1
DA:452,1
DA:453,1
DA:455,1
DA:456,1
DA:457,1
DA:458,1
DA:459,1
DA:463,1
DA:464,1
DA:465,1
DA:466,1
DA:467,1
DA:468,1
DA:469,1
DA:470,1
DA:473,1
DA:474,1
DA:475,1
DA:476,1
DA:477,1
DA:480,1
DA:481,1
DA:482,1
DA:483,1
DA:484,1
DA:485,1
DA:487,1
DA:488,1
DA:489,1
DA:490,1
DA:491,1
DA:492,1
DA:493,1
DA:494,1
DA:495,1
DA:496,1
DA:498,1
DA:499,1
DA:500,1
DA:501,1
DA:502,1
DA:503,1
DA:504,1
DA:505,1
DA:506,1
DA:509,1
DA:510,1
DA:511,1
DA:515,1
DA:516,1
DA:517,1
DA:518,1
DA:519,1
DA:521,1
DA:522,1
DA:524,1
DA:525,1
DA:528,1
DA:529,1
DA:530,1
DA:531,1
DA:533,1
DA:534,1
DA:535,1
DA:536,1
DA:537,1
DA:538,1
DA:539,1
DA:541,1
DA:542,1
DA:543,1
DA:546,1
DA:547,1
DA:548,1
DA:549,1
DA:551,1
DA:552,1
DA:553,1
DA:554,1
DA:555,1
DA:556,1
DA:557,1
DA:559,1
DA:560,1
DA:564,1
DA:565,1
DA:566,1
DA:567,1
DA:568,1
DA:571,1
DA:572,1
DA:573,1
DA:574,1
DA:576,1
DA:577,1
DA:578,1
DA:579,1
DA:580,1
DA:581,1
DA:582,1
DA:584,1
DA:585,1
DA:586,1
DA:590,1
DA:591,1
DA:592,1
DA:593,1
DA:595,1
DA:596,1
DA:597,1
DA:599,1
DA:602,1
DA:603,1
DA:604,1
DA:605,1
DA:606,1
DA:607,1
DA:608,1
DA:610,1
DA:611,1
DA:612,1
DA:615,1
DA:616,1
DA:619,1
DA:623,1
DA:624,1
DA:625,1
DA:626,1
DA:627,1
DA:629,1
DA:630,1
DA:631,1
DA:632,1
DA:633,1
DA:634,1
DA:635,1
DA:637,1
DA:638,1
DA:639,1
DA:643,1
DA:644,1
DA:645,1
DA:646,1
DA:649,1
DA:650,1
DA:651,1
DA:652,1
DA:653,1
DA:654,1
DA:655,1
DA:657,1
DA:658,1
DA:659,1
DA:662,1
DA:663,1
DA:664,1
DA:665,1
DA:667,1
DA:668,1
DA:669,1
DA:670,1
DA:671,1
DA:672,1
DA:673,1
DA:675,1
DA:676,1
DA:677,1
DA:681,1
DA:682,1
DA:683,1
DA:684,1
DA:685,1
DA:686,1
DA:687,1
DA:688,1
DA:689,1
DA:690,1
DA:691,1
DA:693,1
DA:694,1
DA:695,1
DA:699,1
DA:700,1
DA:701,1
DA:702,1
DA:704,1
DA:705,1
DA:706,1
DA:707,1
DA:708,1
DA:709,1
DA:710,1
DA:712,1
DA:713,1
DA:714,1
DA:716,1
DA:717,1
DA:721,1
DA:722,1
DA:723,1
DA:724,1
DA:726,1
DA:727,1
DA:728,1
DA:729,1
DA:730,1
DA:731,1
DA:732,1
DA:734,1
DA:735,1
DA:739,1
DA:740,1
DA:741,1
DA:742,1
DA:743,1
DA:745,1
DA:746,1
DA:747,1
DA:748,1
DA:749,1
DA:750,1
DA:751,1
DA:753,1
DA:754,1
DA:758,1
DA:759,1
DA:762,1
DA:763,1
DA:764,1
DA:765,1
DA:766,1
DA:767,1
DA:770,1
DA:771,3
DA:772,3
DA:773,3
DA:774,3
DA:775,3
DA:776,3
DA:777,3
DA:778,3
DA:779,3
DA:780,3
DA:781,3
DA:782,3
DA:783,3
DA:784,3
DA:786,1
DA:787,1
DA:788,1
BRF:0
BRH:0
LF:554
LH:518
end_of_record
SF:/Users/hubertshelley/Documents/silent/silent/silent/src/core/next.rs
FN:19,_RNvMNtNtCs9iG4RRqsTsR_6silent4core4nextNtB2_4Next5build
FN:42,_RNvXs1_NtNtCs9iG4RRqsTsR_6silent4core4nextNtB5_4NextNtNtNtB9_7handler13handler_trait7Handler4call
FN:54,_RNvXs2_NtNtCs9iG4RRqsTsR_6silent4core4nextNtB5_4NextNtNtNtB9_10middleware16middleware_trait17MiddleWareHandler6handle
FN:54,_RNvXs2_NtNtCs7wZ7Ymcehhq_6silent4core4nextNtB5_4NextNtNtNtB9_10middleware16middleware_trait17MiddleWareHandler6handle
FN:19,_RNvMNtNtCs7wZ7Ymcehhq_6silent4core4nextNtB2_4Next5build
FN:42,_RNvXs1_NtNtCs7wZ7Ymcehhq_6silent4core4nextNtB5_4NextNtNtNtB9_7handler13handler_trait7Handler4call
FNDA:3,_RNvMNtNtCs9iG4RRqsTsR_6silent4core4nextNtB2_4Next5build
FNDA:5,_RNvXs1_NtNtCs9iG4RRqsTsR_6silent4core4nextNtB5_4NextNtNtNtB9_7handler13handler_trait7Handler4call
FNDA:0,_RNvXs2_NtNtCs9iG4RRqsTsR_6silent4core4nextNtB5_4NextNtNtNtB9_10middleware16middleware_trait17MiddleWareHandler6handle
FNDA:0,_RNvXs2_NtNtCs7wZ7Ymcehhq_6silent4core4nextNtB5_4NextNtNtNtB9_10middleware16middleware_trait17MiddleWareHandler6handle
FNDA:277,_RNvMNtNtCs7wZ7Ymcehhq_6silent4core4nextNtB2_4Next5build
FNDA:392,_RNvXs1_NtNtCs7wZ7Ymcehhq_6silent4core4nextNtB5_4NextNtNtNtB9_7handler13handler_trait7Handler4call
FNF:3
FNH:2
DA:19,280
DA:20,280
DA:21,280
DA:22,280
DA:23,280
DA:24,280
DA:25,280
DA:26,280
DA:27,280
DA:28,169
DA:29,111
DA:30,120
DA:31,120
DA:32,120
DA:33,120
DA:34,120
DA:35,120
DA:36,111
DA:37,280
DA:42,397
DA:49,397
DA:54,0
DA:56,0
BRF:0
BRH:0
LF:23
LH:21
end_of_record
SF:/Users/hubertshelley/Documents/silent/silent/silent/src/core/path_param.rs
FN:124,_RNvXs9_NtNtCs9iG4RRqsTsR_6silent4core10path_paramNtNtCskxbBfrLNYPn_5alloc6string6StringINtNtCsiMcf32LsBml_4core7convert7TryFromRNtB5_9PathParamE8try_from
FN:29,_RNvMNtNtCs9iG4RRqsTsR_6silent4core10path_paramNtB2_9PathParam12borrowed_str
FN:33,_RNvMNtNtCs9iG4RRqsTsR_6silent4core10path_paramNtB2_9PathParam13borrowed_path
FN:162,_RNvMsb_NtNtCs9iG4RRqsTsR_6silent4core10path_paramNtB5_10PathString6as_cow
FN:155,_RNvMsb_NtNtCs9iG4RRqsTsR_6silent4core10path_paramNtB5_10PathString6as_str
FN:151,_RNvMsb_NtNtCs9iG4RRqsTsR_6silent4core10path_paramNtB5_10PathString8borrowed
FN:186,_RNvMsc_NtNtCs9iG4RRqsTsR_6silent4core10path_paramNtB5_9PathSlice5range
FN:178,_RNvMsc_NtNtCs9iG4RRqsTsR_6silent4core10path_paramNtB5_9PathSlice6as_str
FN:182,_RNvMsc_NtNtCs9iG4RRqsTsR_6silent4core10path_paramNtB5_9PathSlice6source
FN:45,_RNvXs0_NtNtCs9iG4RRqsTsR_6silent4core10path_paramNtB5_9PathParamINtNtCsiMcf32LsBml_4core7convert4FromlE4from
FN:51,_RNvXs1_NtNtCs9iG4RRqsTsR_6silent4core10path_paramNtB5_9PathParamINtNtCsiMcf32LsBml_4core7convert4FromxE4from
FN:57,_RNvXs2_NtNtCs9iG4RRqsTsR_6silent4core10path_paramNtB5_9PathParamINtNtCsiMcf32LsBml_4core7convert4FromyE4from
FN:63,_RNvXs3_NtNtCs9iG4RRqsTsR_6silent4core10path_paramNtB5_9PathParamINtNtCsiMcf32LsBml_4core7convert4FrommE4from
FN:69,_RNvXs4_NtNtCs9iG4RRqsTsR_6silent4core10path_paramNtB5_9PathParamINtNtCsiMcf32LsBml_4core7convert4FromNtCs4X3qLxTmIcq_4uuid4UuidE4from
FN:77,_RNvXs5_NtNtCs9iG4RRqsTsR_6silent4core10path_paramlINtNtCsiMcf32LsBml_4core7convert7TryFromRNtB5_9PathParamE8try_from
FN:89,_RNvXs6_NtNtCs9iG4RRqsTsR_6silent4core10path_paramxINtNtCsiMcf32LsBml_4core7convert7TryFromRNtB5_9PathParamE8try_from
FN:102,_RNvXs7_NtNtCs9iG4RRqsTsR_6silent4core10path_paramyINtNtCsiMcf32LsBml_4core7convert7TryFromRNtB5_9PathParamE8try_from
FN:113,_RNvXs8_NtNtCs9iG4RRqsTsR_6silent4core10path_parammINtNtCsiMcf32LsBml_4core7convert7TryFromRNtB5_9PathParamE8try_from
FN:39,_RNvXs_NtNtCs9iG4RRqsTsR_6silent4core10path_paramNtB4_9PathParamINtNtCsiMcf32LsBml_4core7convert4FromNtNtCskxbBfrLNYPn_5alloc6string6StringE4from
FN:135,_RNvXsa_NtNtCs9iG4RRqsTsR_6silent4core10path_paramNtCs4X3qLxTmIcq_4uuid4UuidINtNtCsiMcf32LsBml_4core7convert7TryFromRNtB5_9PathParamE8try_from
FN:603,_RNvNtNtNtCs7wZ7Ymcehhq_6silent4core10path_param5testss_21test_path_slice_clone
FN:593,_RNvNtNtNtCs7wZ7Ymcehhq_6silent4core10path_param5testss_21test_path_slice_debug
FN:471,_RNvNtNtNtCs7wZ7Ymcehhq_6silent4core10path_param5testss_21test_path_slice_range
FN:452,_RNvNtNtNtCs7wZ7Ymcehhq_6silent4core10path_param5testss_22test_path_slice_as_str
FN:460,_RNvNtNtNtCs7wZ7Ymcehhq_6silent4core10path_param5testss_22test_path_slice_source
FN:633,_RNvNtNtNtCs7wZ7Ymcehhq_6silent4core10path_param5testss_23test_path_param_max_int
FN:639,_RNvNtNtNtCs7wZ7Ymcehhq_6silent4core10path_param5testss_23test_path_param_min_int
FN:208,_RNvNtNtNtCs7wZ7Ymcehhq_6silent4core10path_param5testss_24test_path_param_from_i32
FN:216,_RNvNtNtNtCs7wZ7Ymcehhq_6silent4core10path_param5testss_24test_path_param_from_i64
FN:232,_RNvNtNtNtCs7wZ7Ymcehhq_6silent4core10path_param5testss_24test_path_param_from_u32
FN:224,_RNvNtNtNtCs7wZ7Ymcehhq_6silent4core10path_param5testss_24test_path_param_from_u64
FN:627,_RNvNtNtNtCs7wZ7Ymcehhq_6silent4core10path_param5testss_24test_path_param_zero_int
FN:748,_RNvNtNtNtCs7wZ7Ymcehhq_6silent4core10path_param5testss_24test_try_from_error_type
FN:514,_RNvNtNtNtCs7wZ7Ymcehhq_6silent4core10path_param5testss_25test_path_param_clone_int
FN:507,_RNvNtNtNtCs7wZ7Ymcehhq_6silent4core10path_param5testss_25test_path_param_clone_str
FN:490,_RNvNtNtNtCs7wZ7Ymcehhq_6silent4core10path_param5testss_25test_path_param_debug_int
FN:483,_RNvNtNtNtCs7wZ7Ymcehhq_6silent4core10path_param5testss_25test_path_param_debug_str
FN:240,_RNvNtNtNtCs7wZ7Ymcehhq_6silent4core10path_param5testss_25test_path_param_from_uuid
FN:740,_RNvNtNtNtCs7wZ7Ymcehhq_6silent4core10path_param5testss_25test_path_param_large_i64
FN:733,_RNvNtNtNtCs7wZ7Ymcehhq_6silent4core10path_param5testss_25test_path_param_large_u64
FN:408,_RNvNtNtNtCs7wZ7Ymcehhq_6silent4core10path_param5testss_25test_path_string_borrowed
FN:498,_RNvNtNtNtCs7wZ7Ymcehhq_6silent4core10path_param5testss_26test_path_param_debug_uuid
FN:614,_RNvNtNtNtCs7wZ7Ymcehhq_6silent4core10path_param5testss_26test_path_slice_partial_eq
FN:197,_RNvNtNtNtCs7wZ7Ymcehhq_6silent4core10path_param5testss_27test_path_param_from_string
FN:709,_RNvNtNtNtCs7wZ7Ymcehhq_6silent4core10path_param5testss_27test_path_param_path_vs_str
FN:248,_RNvNtNtNtCs7wZ7Ymcehhq_6silent4core10path_param5testss_28test_path_param_borrowed_str
FN:645,_RNvNtNtNtCs7wZ7Ymcehhq_6silent4core10path_param5testss_28test_path_param_empty_string
FN:760,_RNvNtNtNtCs7wZ7Ymcehhq_6silent4core10path_param5testss_28test_path_slice_range_at_end
FN:558,_RNvNtNtNtCs7wZ7Ymcehhq_6silent4core10path_param5testss_28test_path_string_clone_owned
FN:541,_RNvNtNtNtCs7wZ7Ymcehhq_6silent4core10path_param5testss_28test_path_string_debug_owned
FN:260,_RNvNtNtNtCs7wZ7Ymcehhq_6silent4core10path_param5testss_29test_path_param_borrowed_path
FN:699,_RNvNtNtNtCs7wZ7Ymcehhq_6silent4core10path_param5testss_29test_path_param_special_chars
FN:433,_RNvNtNtNtCs7wZ7Ymcehhq_6silent4core10path_param5testss_29test_path_string_as_cow_owned
FN:418,_RNvNtNtNtCs7wZ7Ymcehhq_6silent4core10path_param5testss_29test_path_string_as_str_owned
FN:522,_RNvNtNtNtCs7wZ7Ymcehhq_6silent4core10path_param5testss_30test_path_param_partial_eq_int
FN:531,_RNvNtNtNtCs7wZ7Ymcehhq_6silent4core10path_param5testss_30test_path_param_partial_eq_str
FN:680,_RNvNtNtNtCs7wZ7Ymcehhq_6silent4core10path_param5testss_30test_path_param_unicode_string
FN:768,_RNvNtNtNtCs7wZ7Ymcehhq_6silent4core10path_param5testss_30test_path_slice_range_at_start
FN:664,_RNvNtNtNtCs7wZ7Ymcehhq_6silent4core10path_param5testss_31test_arc_sharing_between_slices
FN:565,_RNvNtNtNtCs7wZ7Ymcehhq_6silent4core10path_param5testss_31test_path_string_clone_borrowed
FN:548,_RNvNtNtNtCs7wZ7Ymcehhq_6silent4core10path_param5testss_31test_path_string_debug_borrowed
FN:655,_RNvNtNtNtCs7wZ7Ymcehhq_6silent4core10path_param5testss_31test_path_string_empty_borrowed
FN:441,_RNvNtNtNtCs7wZ7Ymcehhq_6silent4core10path_param5testss_32test_path_string_as_cow_borrowed
FN:424,_RNvNtNtNtCs7wZ7Ymcehhq_6silent4core10path_param5testss_32test_path_string_as_str_borrowed
FN:575,_RNvNtNtNtCs7wZ7Ymcehhq_6silent4core10path_param5testss_33test_path_string_partial_eq_owned
FN:690,_RNvNtNtNtCs7wZ7Ymcehhq_6silent4core10path_param5testss_33test_path_string_unicode_borrowed
FN:777,_RNvNtNtNtCs7wZ7Ymcehhq_6silent4core10path_param5testss_36test_multiple_path_params_comparison
FN:584,_RNvNtNtNtCs7wZ7Ymcehhq_6silent4core10path_param5testss_36test_path_string_partial_eq_borrowed
FN:272,_RNvNtNtNtCs7wZ7Ymcehhq_6silent4core10path_param5testss_40test_try_from_path_param_to_i32_from_int
FN:295,_RNvNtNtNtCs7wZ7Ymcehhq_6silent4core10path_param5testss_40test_try_from_path_param_to_i32_from_str
FN:311,_RNvNtNtNtCs7wZ7Ymcehhq_6silent4core10path_param5testss_40test_try_from_path_param_to_i64_from_int
FN:359,_RNvNtNtNtCs7wZ7Ymcehhq_6silent4core10path_param5testss_40test_try_from_path_param_to_u32_from_int
FN:343,_RNvNtNtNtCs7wZ7Ymcehhq_6silent4core10path_param5testss_40test_try_from_path_param_to_u64_from_int
FN:400,_RNvNtNtNtCs7wZ7Ymcehhq_6silent4core10path_param5testss_41test_try_from_path_param_to_uuid_from_str
FN:280,_RNvNtNtNtCs7wZ7Ymcehhq_6silent4core10path_param5testss_42test_try_from_path_param_to_i32_from_int32
FN:288,_RNvNtNtNtCs7wZ7Ymcehhq_6silent4core10path_param5testss_42test_try_from_path_param_to_i32_from_int64
FN:319,_RNvNtNtNtCs7wZ7Ymcehhq_6silent4core10path_param5testss_42test_try_from_path_param_to_i64_from_int32
FN:303,_RNvNtNtNtCs7wZ7Ymcehhq_6silent4core10path_param5testss_42test_try_from_path_param_to_i64_from_int64
FN:391,_RNvNtNtNtCs7wZ7Ymcehhq_6silent4core10path_param5testss_42test_try_from_path_param_to_uuid_from_uuid
FN:327,_RNvNtNtNtCs7wZ7Ymcehhq_6silent4core10path_param5testss_43test_try_from_path_param_to_i64_from_uint64
FN:383,_RNvNtNtNtCs7wZ7Ymcehhq_6silent4core10path_param5testss_43test_try_from_path_param_to_string_from_int
FN:367,_RNvNtNtNtCs7wZ7Ymcehhq_6silent4core10path_param5testss_43test_try_from_path_param_to_string_from_str
FN:351,_RNvNtNtNtCs7wZ7Ymcehhq_6silent4core10path_param5testss_43test_try_from_path_param_to_u32_from_uint32
FN:335,_RNvNtNtNtCs7wZ7Ymcehhq_6silent4core10path_param5testss_43test_try_from_path_param_to_u64_from_uint64
FN:375,_RNvNtNtNtCs7wZ7Ymcehhq_6silent4core10path_param5testss_44test_try_from_path_param_to_string_from_path
FN:720,_RNvNtNtNtCs7wZ7Ymcehhq_6silent4core10path_param5testss_47test_path_string_owned_vs_borrowed_same_content
FN:124,_RNvXs9_NtNtCs7wZ7Ymcehhq_6silent4core10path_paramNtNtCskxbBfrLNYPn_5alloc6string6StringINtNtCsiMcf32LsBml_4core7convert7TryFromRNtB5_9PathParamE8try_from
FN:29,_RNvMNtNtCs7wZ7Ymcehhq_6silent4core10path_paramNtB2_9PathParam12borrowed_str
FN:33,_RNvMNtNtCs7wZ7Ymcehhq_6silent4core10path_paramNtB2_9PathParam13borrowed_path
FN:162,_RNvMsb_NtNtCs7wZ7Ymcehhq_6silent4core10path_paramNtB5_10PathString6as_cow
FN:155,_RNvMsb_NtNtCs7wZ7Ymcehhq_6silent4core10path_paramNtB5_10PathString6as_str
FN:151,_RNvMsb_NtNtCs7wZ7Ymcehhq_6silent4core10path_paramNtB5_10PathString8borrowed
FN:186,_RNvMsc_NtNtCs7wZ7Ymcehhq_6silent4core10path_paramNtB5_9PathSlice5range
FN:178,_RNvMsc_NtNtCs7wZ7Ymcehhq_6silent4core10path_paramNtB5_9PathSlice6as_str
FN:182,_RNvMsc_NtNtCs7wZ7Ymcehhq_6silent4core10path_paramNtB5_9PathSlice6source
FN:45,_RNvXs0_NtNtCs7wZ7Ymcehhq_6silent4core10path_paramNtB5_9PathParamINtNtCsiMcf32LsBml_4core7convert4FromlE4from
FN:51,_RNvXs1_NtNtCs7wZ7Ymcehhq_6silent4core10path_paramNtB5_9PathParamINtNtCsiMcf32LsBml_4core7convert4FromxE4from
FN:57,_RNvXs2_NtNtCs7wZ7Ymcehhq_6silent4core10path_paramNtB5_9PathParamINtNtCsiMcf32LsBml_4core7convert4FromyE4from
FN:63,_RNvXs3_NtNtCs7wZ7Ymcehhq_6silent4core10path_paramNtB5_9PathParamINtNtCsiMcf32LsBml_4core7convert4FrommE4from
FN:69,_RNvXs4_NtNtCs7wZ7Ymcehhq_6silent4core10path_paramNtB5_9PathParamINtNtCsiMcf32LsBml_4core7convert4FromNtCs4X3qLxTmIcq_4uuid4UuidE4from
FN:77,_RNvXs5_NtNtCs7wZ7Ymcehhq_6silent4core10path_paramlINtNtCsiMcf32LsBml_4core7convert7TryFromRNtB5_9PathParamE8try_from
FN:89,_RNvXs6_NtNtCs7wZ7Ymcehhq_6silent4core10path_paramxINtNtCsiMcf32LsBml_4core7convert7TryFromRNtB5_9PathParamE8try_from
FN:102,_RNvXs7_NtNtCs7wZ7Ymcehhq_6silent4core10path_paramyINtNtCsiMcf32LsBml_4core7convert7TryFromRNtB5_9PathParamE8try_from
FN:113,_RNvXs8_NtNtCs7wZ7Ymcehhq_6silent4core10path_parammINtNtCsiMcf32LsBml_4core7convert7TryFromRNtB5_9PathParamE8try_from
FN:39,_RNvXs_NtNtCs7wZ7Ymcehhq_6silent4core10path_paramNtB4_9PathParamINtNtCsiMcf32LsBml_4core7convert4FromNtNtCskxbBfrLNYPn_5alloc6string6StringE4from
FN:135,_RNvXsa_NtNtCs7wZ7Ymcehhq_6silent4core10path_paramNtCs4X3qLxTmIcq_4uuid4UuidINtNtCsiMcf32LsBml_4core7convert7TryFromRNtB5_9PathParamE8try_from
FNDA:0,_RNvXs9_NtNtCs9iG4RRqsTsR_6silent4core10path_paramNtNtCskxbBfrLNYPn_5alloc6string6StringINtNtCsiMcf32LsBml_4core7convert7TryFromRNtB5_9PathParamE8try_from
FNDA:0,_RNvMNtNtCs9iG4RRqsTsR_6silent4core10path_paramNtB2_9PathParam12borrowed_str
FNDA:0,_RNvMNtNtCs9iG4RRqsTsR_6silent4core10path_paramNtB2_9PathParam13borrowed_path
FNDA:0,_RNvMsb_NtNtCs9iG4RRqsTsR_6silent4core10path_paramNtB5_10PathString6as_cow
FNDA:0,_RNvMsb_NtNtCs9iG4RRqsTsR_6silent4core10path_paramNtB5_10PathString6as_str
FNDA:0,_RNvMsb_NtNtCs9iG4RRqsTsR_6silent4core10path_paramNtB5_10PathString8borrowed
FNDA:0,_RNvMsc_NtNtCs9iG4RRqsTsR_6silent4core10path_paramNtB5_9PathSlice5range
FNDA:0,_RNvMsc_NtNtCs9iG4RRqsTsR_6silent4core10path_paramNtB5_9PathSlice6as_str
FNDA:0,_RNvMsc_NtNtCs9iG4RRqsTsR_6silent4core10path_paramNtB5_9PathSlice6source
FNDA:0,_RNvXs0_NtNtCs9iG4RRqsTsR_6silent4core10path_paramNtB5_9PathParamINtNtCsiMcf32LsBml_4core7convert4FromlE4from
FNDA:0,_RNvXs1_NtNtCs9iG4RRqsTsR_6silent4core10path_paramNtB5_9PathParamINtNtCsiMcf32LsBml_4core7convert4FromxE4from
FNDA:0,_RNvXs2_NtNtCs9iG4RRqsTsR_6silent4core10path_paramNtB5_9PathParamINtNtCsiMcf32LsBml_4core7convert4FromyE4from
FNDA:0,_RNvXs3_NtNtCs9iG4RRqsTsR_6silent4core10path_paramNtB5_9PathParamINtNtCsiMcf32LsBml_4core7convert4FrommE4from
FNDA:0,_RNvXs4_NtNtCs9iG4RRqsTsR_6silent4core10path_paramNtB5_9PathParamINtNtCsiMcf32LsBml_4core7convert4FromNtCs4X3qLxTmIcq_4uuid4UuidE4from
FNDA:0,_RNvXs5_NtNtCs9iG4RRqsTsR_6silent4core10path_paramlINtNtCsiMcf32LsBml_4core7convert7TryFromRNtB5_9PathParamE8try_from
FNDA:0,_RNvXs6_NtNtCs9iG4RRqsTsR_6silent4core10path_paramxINtNtCsiMcf32LsBml_4core7convert7TryFromRNtB5_9PathParamE8try_from
FNDA:0,_RNvXs7_NtNtCs9iG4RRqsTsR_6silent4core10path_paramyINtNtCsiMcf32LsBml_4core7convert7TryFromRNtB5_9PathParamE8try_from
FNDA:0,_RNvXs8_NtNtCs9iG4RRqsTsR_6silent4core10path_parammINtNtCsiMcf32LsBml_4core7convert7TryFromRNtB5_9PathParamE8try_from
FNDA:0,_RNvXs_NtNtCs9iG4RRqsTsR_6silent4core10path_paramNtB4_9PathParamINtNtCsiMcf32LsBml_4core7convert4FromNtNtCskxbBfrLNYPn_5alloc6string6StringE4from
FNDA:0,_RNvXsa_NtNtCs9iG4RRqsTsR_6silent4core10path_paramNtCs4X3qLxTmIcq_4uuid4UuidINtNtCsiMcf32LsBml_4core7convert7TryFromRNtB5_9PathParamE8try_from
FNDA:1,_RNvNtNtNtCs7wZ7Ymcehhq_6silent4core10path_param5testss_21test_path_slice_clone
FNDA:1,_RNvNtNtNtCs7wZ7Ymcehhq_6silent4core10path_param5testss_21test_path_slice_debug
FNDA:1,_RNvNtNtNtCs7wZ7Ymcehhq_6silent4core10path_param5testss_21test_path_slice_range
FNDA:1,_RNvNtNtNtCs7wZ7Ymcehhq_6silent4core10path_param5testss_22test_path_slice_as_str
FNDA:1,_RNvNtNtNtCs7wZ7Ymcehhq_6silent4core10path_param5testss_22test_path_slice_source
FNDA:1,_RNvNtNtNtCs7wZ7Ymcehhq_6silent4core10path_param5testss_23test_path_param_max_int
FNDA:1,_RNvNtNtNtCs7wZ7Ymcehhq_6silent4core10path_param5testss_23test_path_param_min_int
FNDA:1,_RNvNtNtNtCs7wZ7Ymcehhq_6silent4core10path_param5testss_24test_path_param_from_i32
FNDA:1,_RNvNtNtNtCs7wZ7Ymcehhq_6silent4core10path_param5testss_24test_path_param_from_i64
FNDA:1,_RNvNtNtNtCs7wZ7Ymcehhq_6silent4core10path_param5testss_24test_path_param_from_u32
FNDA:1,_RNvNtNtNtCs7wZ7Ymcehhq_6silent4core10path_param5testss_24test_path_param_from_u64
FNDA:1,_RNvNtNtNtCs7wZ7Ymcehhq_6silent4core10path_param5testss_24test_path_param_zero_int
FNDA:1,_RNvNtNtNtCs7wZ7Ymcehhq_6silent4core10path_param5testss_24test_try_from_error_type
FNDA:1,_RNvNtNtNtCs7wZ7Ymcehhq_6silent4core10path_param5testss_25test_path_param_clone_int
FNDA:1,_RNvNtNtNtCs7wZ7Ymcehhq_6silent4core10path_param5testss_25test_path_param_clone_str
FNDA:1,_RNvNtNtNtCs7wZ7Ymcehhq_6silent4core10path_param5testss_25test_path_param_debug_int
FNDA:1,_RNvNtNtNtCs7wZ7Ymcehhq_6silent4core10path_param5testss_25test_path_param_debug_str
FNDA:1,_RNvNtNtNtCs7wZ7Ymcehhq_6silent4core10path_param5testss_25test_path_param_from_uuid
FNDA:1,_RNvNtNtNtCs7wZ7Ymcehhq_6silent4core10path_param5testss_25test_path_param_large_i64
FNDA:1,_RNvNtNtNtCs7wZ7Ymcehhq_6silent4core10path_param5testss_25test_path_param_large_u64
FNDA:1,_RNvNtNtNtCs7wZ7Ymcehhq_6silent4core10path_param5testss_25test_path_string_borrowed
FNDA:1,_RNvNtNtNtCs7wZ7Ymcehhq_6silent4core10path_param5testss_26test_path_param_debug_uuid
FNDA:1,_RNvNtNtNtCs7wZ7Ymcehhq_6silent4core10path_param5testss_26test_path_slice_partial_eq
FNDA:1,_RNvNtNtNtCs7wZ7Ymcehhq_6silent4core10path_param5testss_27test_path_param_from_string
FNDA:1,_RNvNtNtNtCs7wZ7Ymcehhq_6silent4core10path_param5testss_27test_path_param_path_vs_str
FNDA:1,_RNvNtNtNtCs7wZ7Ymcehhq_6silent4core10path_param5testss_28test_path_param_borrowed_str
FNDA:1,_RNvNtNtNtCs7wZ7Ymcehhq_6silent4core10path_param5testss_28test_path_param_empty_string
FNDA:1,_RNvNtNtNtCs7wZ7Ymcehhq_6silent4core10path_param5testss_28test_path_slice_range_at_end
FNDA:1,_RNvNtNtNtCs7wZ7Ymcehhq_6silent4core10path_param5testss_28test_path_string_clone_owned
FNDA:1,_RNvNtNtNtCs7wZ7Ymcehhq_6silent4core10path_param5testss_28test_path_string_debug_owned
FNDA:1,_RNvNtNtNtCs7wZ7Ymcehhq_6silent4core10path_param5testss_29test_path_param_borrowed_path
FNDA:1,_RNvNtNtNtCs7wZ7Ymcehhq_6silent4core10path_param5testss_29test_path_param_special_chars
FNDA:1,_RNvNtNtNtCs7wZ7Ymcehhq_6silent4core10path_param5testss_29test_path_string_as_cow_owned
FNDA:1,_RNvNtNtNtCs7wZ7Ymcehhq_6silent4core10path_param5testss_29test_path_string_as_str_owned
FNDA:1,_RNvNtNtNtCs7wZ7Ymcehhq_6silent4core10path_param5testss_30test_path_param_partial_eq_int
FNDA:1,_RNvNtNtNtCs7wZ7Ymcehhq_6silent4core10path_param5testss_30test_path_param_partial_eq_str
FNDA:1,_RNvNtNtNtCs7wZ7Ymcehhq_6silent4core10path_param5testss_30test_path_param_unicode_string
FNDA:1,_RNvNtNtNtCs7wZ7Ymcehhq_6silent4core10path_param5testss_30test_path_slice_range_at_start
FNDA:1,_RNvNtNtNtCs7wZ7Ymcehhq_6silent4core10path_param5testss_31test_arc_sharing_between_slices
FNDA:1,_RNvNtNtNtCs7wZ7Ymcehhq_6silent4core10path_param5testss_31test_path_string_clone_borrowed
FNDA:1,_RNvNtNtNtCs7wZ7Ymcehhq_6silent4core10path_param5testss_31test_path_string_debug_borrowed
FNDA:1,_RNvNtNtNtCs7wZ7Ymcehhq_6silent4core10path_param5testss_31test_path_string_empty_borrowed
FNDA:1,_RNvNtNtNtCs7wZ7Ymcehhq_6silent4core10path_param5testss_32test_path_string_as_cow_borrowed
FNDA:1,_RNvNtNtNtCs7wZ7Ymcehhq_6silent4core10path_param5testss_32test_path_string_as_str_borrowed
FNDA:1,_RNvNtNtNtCs7wZ7Ymcehhq_6silent4core10path_param5testss_33test_path_string_partial_eq_owned
FNDA:1,_RNvNtNtNtCs7wZ7Ymcehhq_6silent4core10path_param5testss_33test_path_string_unicode_borrowed
FNDA:1,_RNvNtNtNtCs7wZ7Ymcehhq_6silent4core10path_param5testss_36test_multiple_path_params_comparison
FNDA:1,_RNvNtNtNtCs7wZ7Ymcehhq_6silent4core10path_param5testss_36test_path_string_partial_eq_borrowed
FNDA:1,_RNvNtNtNtCs7wZ7Ymcehhq_6silent4core10path_param5testss_40test_try_from_path_param_to_i32_from_int
FNDA:1,_RNvNtNtNtCs7wZ7Ymcehhq_6silent4core10path_param5testss_40test_try_from_path_param_to_i32_from_str
FNDA:1,_RNvNtNtNtCs7wZ7Ymcehhq_6silent4core10path_param5testss_40test_try_from_path_param_to_i64_from_int
FNDA:1,_RNvNtNtNtCs7wZ7Ymcehhq_6silent4core10path_param5testss_40test_try_from_path_param_to_u32_from_int
FNDA:1,_RNvNtNtNtCs7wZ7Ymcehhq_6silent4core10path_param5testss_40test_try_from_path_param_to_u64_from_int
FNDA:1,_RNvNtNtNtCs7wZ7Ymcehhq_6silent4core10path_param5testss_41test_try_from_path_param_to_uuid_from_str
FNDA:1,_RNvNtNtNtCs7wZ7Ymcehhq_6silent4core10path_param5testss_42test_try_from_path_param_to_i32_from_int32
FNDA:1,_RNvNtNtNtCs7wZ7Ymcehhq_6silent4core10path_param5testss_42test_try_from_path_param_to_i32_from_int64
FNDA:1,_RNvNtNtNtCs7wZ7Ymcehhq_6silent4core10path_param5testss_42test_try_from_path_param_to_i64_from_int32
FNDA:1,_RNvNtNtNtCs7wZ7Ymcehhq_6silent4core10path_param5testss_42test_try_from_path_param_to_i64_from_int64
FNDA:1,_RNvNtNtNtCs7wZ7Ymcehhq_6silent4core10path_param5testss_42test_try_from_path_param_to_uuid_from_uuid
FNDA:1,_RNvNtNtNtCs7wZ7Ymcehhq_6silent4core10path_param5testss_43test_try_from_path_param_to_i64_from_uint64
FNDA:1,_RNvNtNtNtCs7wZ7Ymcehhq_6silent4core10path_param5testss_43test_try_from_path_param_to_string_from_int
FNDA:1,_RNvNtNtNtCs7wZ7Ymcehhq_6silent4core10path_param5testss_43test_try_from_path_param_to_string_from_str
FNDA:1,_RNvNtNtNtCs7wZ7Ymcehhq_6silent4core10path_param5testss_43test_try_from_path_param_to_u32_from_uint32
FNDA:1,_RNvNtNtNtCs7wZ7Ymcehhq_6silent4core10path_param5testss_43test_try_from_path_param_to_u64_from_uint64
FNDA:1,_RNvNtNtNtCs7wZ7Ymcehhq_6silent4core10path_param5testss_44test_try_from_path_param_to_string_from_path
FNDA:1,_RNvNtNtNtCs7wZ7Ymcehhq_6silent4core10path_param5testss_47test_path_string_owned_vs_borrowed_same_content
FNDA:12,_RNvXs9_NtNtCs7wZ7Ymcehhq_6silent4core10path_paramNtNtCskxbBfrLNYPn_5alloc6string6StringINtNtCsiMcf32LsBml_4core7convert7TryFromRNtB5_9PathParamE8try_from
FNDA:4,_RNvMNtNtCs7wZ7Ymcehhq_6silent4core10path_paramNtB2_9PathParam12borrowed_str
FNDA:5,_RNvMNtNtCs7wZ7Ymcehhq_6silent4core10path_paramNtB2_9PathParam13borrowed_path
FNDA:2,_RNvMsb_NtNtCs7wZ7Ymcehhq_6silent4core10path_paramNtB5_10PathString6as_cow
FNDA:21,_RNvMsb_NtNtCs7wZ7Ymcehhq_6silent4core10path_paramNtB5_10PathString6as_str
FNDA:19,_RNvMsb_NtNtCs7wZ7Ymcehhq_6silent4core10path_paramNtB5_10PathString8borrowed
FNDA:3,_RNvMsc_NtNtCs7wZ7Ymcehhq_6silent4core10path_paramNtB5_9PathSlice5range
FNDA:12,_RNvMsc_NtNtCs7wZ7Ymcehhq_6silent4core10path_paramNtB5_9PathSlice6as_str
FNDA:7,_RNvMsc_NtNtCs7wZ7Ymcehhq_6silent4core10path_paramNtB5_9PathSlice6source
FNDA:6,_RNvXs0_NtNtCs7wZ7Ymcehhq_6silent4core10path_paramNtB5_9PathParamINtNtCsiMcf32LsBml_4core7convert4FromlE4from
FNDA:4,_RNvXs1_NtNtCs7wZ7Ymcehhq_6silent4core10path_paramNtB5_9PathParamINtNtCsiMcf32LsBml_4core7convert4FromxE4from
FNDA:3,_RNvXs2_NtNtCs7wZ7Ymcehhq_6silent4core10path_paramNtB5_9PathParamINtNtCsiMcf32LsBml_4core7convert4FromyE4from
FNDA:1,_RNvXs3_NtNtCs7wZ7Ymcehhq_6silent4core10path_paramNtB5_9PathParamINtNtCsiMcf32LsBml_4core7convert4FrommE4from
FNDA:2,_RNvXs4_NtNtCs7wZ7Ymcehhq_6silent4core10path_paramNtB5_9PathParamINtNtCsiMcf32LsBml_4core7convert4FromNtCs4X3qLxTmIcq_4uuid4UuidE4from
FNDA:6,_RNvXs5_NtNtCs7wZ7Ymcehhq_6silent4core10path_paramlINtNtCsiMcf32LsBml_4core7convert7TryFromRNtB5_9PathParamE8try_from
FNDA:4,_RNvXs6_NtNtCs7wZ7Ymcehhq_6silent4core10path_paramxINtNtCsiMcf32LsBml_4core7convert7TryFromRNtB5_9PathParamE8try_from
FNDA:2,_RNvXs7_NtNtCs7wZ7Ymcehhq_6silent4core10path_paramyINtNtCsiMcf32LsBml_4core7convert7TryFromRNtB5_9PathParamE8try_from
FNDA:2,_RNvXs8_NtNtCs7wZ7Ymcehhq_6silent4core10path_parammINtNtCsiMcf32LsBml_4core7convert7TryFromRNtB5_9PathParamE8try_from
FNDA:11,_RNvXs_NtNtCs7wZ7Ymcehhq_6silent4core10path_paramNtB4_9PathParamINtNtCsiMcf32LsBml_4core7convert4FromNtNtCskxbBfrLNYPn_5alloc6string6StringE4from
FNDA:3,_RNvXsa_NtNtCs7wZ7Ymcehhq_6silent4core10path_paramNtCs4X3qLxTmIcq_4uuid4UuidINtNtCsiMcf32LsBml_4core7convert7TryFromRNtB5_9PathParamE8try_from
FNF:86
FNH:86
DA:29,4
DA:30,4
DA:31,4
DA:33,5
DA:34,5
DA:35,5
DA:39,11
DA:40,11
DA:41,11
DA:45,6
DA:46,6
DA:47,6
DA:51,4
DA:52,4
DA:53,4
DA:57,3
DA:58,3
DA:59,3
DA:63,1
DA:64,1
DA:65,1
DA:69,2
DA:70,2
DA:71,2
DA:77,6
DA:78,6
DA:79,2
DA:80,1
DA:81,3
DA:83,6
DA:89,4
DA:90,4
DA:91,1
DA:92,1
DA:93,1
DA:94,1
DA:96,4
DA:102,2
DA:103,2
DA:104,1
DA:105,1
DA:107,2
DA:113,2
DA:114,2
DA:115,1
DA:116,1
DA:118,2
DA:124,12
DA:125,12
DA:126,11
DA:127,1
DA:129,12
DA:135,3
DA:136,3
DA:137,2
DA:138,1
DA:140,3
DA:151,19
DA:152,19
DA:153,19
DA:155,21
DA:156,21
DA:157,6
DA:158,15
DA:160,21
DA:162,2
DA:163,2
DA:164,1
DA:165,1
DA:167,2
DA:178,12
DA:179,12
DA:180,12
DA:182,7
DA:183,7
DA:184,7
DA:186,3
DA:187,3
DA:188,3
DA:197,1
DA:198,1
DA:199,1
DA:200,1
DA:201,1
DA:202,1
DA:203,0
DA:204,1
DA:208,1
DA:209,1
DA:210,1
DA:211,1
DA:212,1
DA:216,1
DA:217,1
DA:218,1
DA:219,1
DA:220,1
DA:224,1
DA:225,1
DA:226,1
DA:227,1
DA:228,1
DA:232,1
DA:233,1
DA:234,1
DA:235,1
DA:236,1
DA:240,1
DA:241,1
DA:242,1
DA:243,1
DA:244,1
DA:248,1
DA:249,1
DA:250,1
DA:251,1
DA:252,1
DA:253,1
DA:254,1
DA:255,0
DA:256,1
DA:260,1
DA:261,1
DA:262,1
DA:263,1
DA:264,1
DA:265,1
DA:266,1
DA:267,0
DA:268,1
DA:272,1
DA:273,1
DA:274,1
DA:275,1
DA:276,1
DA:277,1
DA:280,1
DA:281,1
DA:282,1
DA:283,1
DA:284,1
DA:285,1
DA:288,1
DA:289,1
DA:290,1
DA:291,1
DA:292,1
DA:295,1
DA:296,1
DA:297,1
DA:298,1
DA:299,1
DA:303,1
DA:304,1
DA:305,1
DA:306,1
DA:307,1
DA:308,1
DA:311,1
DA:312,1
DA:313,1
DA:314,1
DA:315,1
DA:316,1
DA:319,1
DA:320,1
DA:321,1
DA:322,1
DA:323,1
DA:324,1
DA:327,1
DA:328,1
DA:329,1
DA:330,1
DA:331,1
DA:335,1
DA:336,1
DA:337,1
DA:338,1
DA:339,1
DA:340,1
DA:343,1
DA:344,1
DA:345,1
DA:346,1
DA:347,1
DA:351,1
DA:352,1
DA:353,1
DA:354,1
DA:355,1
DA:356,1
DA:359,1
DA:360,1
DA:361,1
DA:362,1
DA:363,1
DA:367,1
DA:368,1
DA:369,1
DA:370,1
DA:371,1
DA:372,1
DA:375,1
DA:376,1
DA:377,1
DA:378,1
DA:379,1
DA:380,1
DA:383,1
DA:384,1
DA:385,1
DA:386,1
DA:387,1
DA:391,1
DA:392,1
DA:393,1
DA:394,1
DA:395,1
DA:396,1
DA:397,1
DA:400,1
DA:401,1
DA:402,1
DA:403,1
DA:404,1
DA:408,1
DA:409,1
DA:410,1
DA:411,1
DA:412,1
DA:413,1
DA:414,1
DA:418,1
DA:419,1
DA:420,1
DA:421,1
DA:424,1
DA:425,1
DA:426,1
DA:427,1
DA:428,1
DA:429,1
DA:433,1
DA:434,1
DA:435,1
DA:436,1
DA:437,1
DA:438,1
DA:441,1
DA:442,1
DA:443,1
DA:444,1
DA:445,1
DA:446,1
DA:447,1
DA:448,1
DA:452,1
DA:453,1
DA:454,1
DA:455,1
DA:456,1
DA:457,1
DA:460,1
DA:461,1
DA:462,1
DA:463,1
DA:464,1
DA:465,1
DA:466,1
DA:467,1
DA:468,1
DA:471,1
DA:472,1
DA:473,1
DA:474,1
DA:475,1
DA:476,1
DA:477,1
DA:478,1
DA:479,1
DA:483,1
DA:484,1
DA:485,1
DA:486,1
DA:487,1
DA:490,1
DA:491,1
DA:492,1
DA:493,1
DA:494,1
DA:495,1
DA:498,1
DA:499,1
DA:500,1
DA:501,1
DA:502,1
DA:503,1
DA:507,1
DA:508,1
DA:509,1
DA:510,1
DA:511,1
DA:514,1
DA:515,1
DA:516,1
DA:517,1
DA:518,1
DA:522,1
DA:523,1
DA:524,1
DA:525,1
DA:526,1
DA:527,1
DA:528,1
DA:531,1
DA:532,1
DA:533,1
DA:534,1
DA:535,1
DA:536,1
DA:537,1
DA:541,1
DA:542,1
DA:543,1
DA:544,1
DA:545,1
DA:548,1
DA:549,1
DA:550,1
DA:551,1
DA:552,1
DA:553,1
DA:554,1
DA:558,1
DA:559,1
DA:560,1
DA:561,1
DA:562,1
DA:565,1
DA:566,1
DA:567,1
DA:568,1
DA:569,1
DA:570,1
DA:571,1
DA:575,1
DA:576,1
DA:577,1
DA:578,1
DA:579,1
DA:580,1
DA:581,1
DA:584,1
DA:585,1
DA:586,1
DA:587,1
DA:588,1
DA:589,1
DA:593,1
DA:594,1
DA:595,1
DA:596,1
DA:597,1
DA:598,1
DA:599,1
DA:603,1
DA:604,1
DA:605,1
DA:606,1
DA:607,1
DA:608,1
DA:609,1
DA:610,1
DA:614,1
DA:615,1
DA:616,1
DA:617,1
DA:618,1
DA:619,1
DA:620,1
DA:621,1
DA:622,1
DA:623,1
DA:627,1
DA:628,1
DA:629,1
DA:630,1
DA:633,1
DA:634,1
DA:635,1
DA:636,1
DA:639,1
DA:640,1
DA:641,1
DA:642,1
DA:645,1
DA:646,1
DA:647,1
DA:648,1
DA:649,1
DA:650,1
DA:651,0
DA:652,1
DA:655,1
DA:656,1
DA:657,1
DA:658,1
DA:659,1
DA:660,1
DA:664,1
DA:665,1
DA:666,1
DA:667,1
DA:668,1
DA:669,1
DA:670,1
DA:671,1
DA:672,1
DA:673,1
DA:674,1
DA:675,1
DA:676,1
DA:680,1
DA:681,1
DA:682,1
DA:683,1
DA:684,1
DA:685,1
DA:686,0
DA:687,1
DA:690,1
DA:691,1
DA:692,1
DA:693,1
DA:694,1
DA:695,1
DA:699,1
DA:700,1
DA:701,1
DA:702,1
DA:703,1
DA:704,0
DA:705,1
DA:709,1
DA:710,1
DA:711,1
DA:712,1
DA:714,1
DA:715,1
DA:716,1
DA:720,1
DA:721,1
DA:722,1
DA:723,1
DA:726,1
DA:728,1
DA:729,1
DA:733,1
DA:734,1
DA:735,1
DA:736,1
DA:737,1
DA:740,1
DA:741,1
DA:742,1
DA:743,1
DA:744,1
DA:748,1
DA:749,1
DA:750,1
DA:751,1
DA:752,1
DA:754,1
DA:755,0
DA:756,1
DA:760,1
DA:761,1
DA:762,1
DA:763,1
DA:764,1
DA:765,1
DA:768,1
DA:769,1
DA:770,1
DA:771,1
DA:772,1
DA:773,1
DA:777,1
DA:778,1
DA:779,1
DA:780,1
DA:781,1
DA:782,1
DA:783,1
DA:785,1
DA:786,1
DA:787,1
DA:788,1
DA:790,1
BRF:0
BRH:0
LF:500
LH:493
end_of_record
SF:/Users/hubertshelley/Documents/silent/silent/silent/src/core/remote_addr.rs
FN:24,_RNvMNtNtCs9iG4RRqsTsR_6silent4core11remote_addrNtB2_10RemoteAddr2ipB6_
FN:44,_RNvXs0_NtNtCs9iG4RRqsTsR_6silent4core11remote_addrNtB5_10RemoteAddrINtNtCsiMcf32LsBml_4core7convert4FromNtNtNtB18_3net11socket_addr10SocketAddrE4from
FN:51,_RNvXs1_NtNtCs9iG4RRqsTsR_6silent4core11remote_addrNtB5_10RemoteAddrINtNtCsiMcf32LsBml_4core7convert4FromNtNtNtNtNtCsle0CjmPo1W9_3std2os4unix3net4addr10SocketAddrE4from
FN:59,_RNvXs2_NtNtCs9iG4RRqsTsR_6silent4core11remote_addrNtB5_10RemoteAddrNtNtNtCsiMcf32LsBml_4core3str6traits7FromStr8from_str
FN:86,_RNvXs3_NtNtCs9iG4RRqsTsR_6silent4core11remote_addrNtB5_10RemoteAddrNtNtCsiMcf32LsBml_4core3fmt5Debug3fmt
FN:96,_RNvXs4_NtNtCs9iG4RRqsTsR_6silent4core11remote_addrNtB5_10RemoteAddrNtNtCsiMcf32LsBml_4core3fmt7Display3fmt
FN:38,_RNvXs_NtNtCs9iG4RRqsTsR_6silent4core11remote_addrNtB4_10RemoteAddrINtNtCsiMcf32LsBml_4core7convert4FromNtNtB6_11socket_addr10SocketAddrE4from
FN:341,_RNvNtNtNtCs7wZ7Ymcehhq_6silent4core11remote_addr5testss_15test_clone_ipv4
FN:349,_RNvNtNtNtCs7wZ7Ymcehhq_6silent4core11remote_addr5testss_15test_clone_ipv6
FN:311,_RNvNtNtNtCs7wZ7Ymcehhq_6silent4core11remote_addr5testss_15test_debug_ipv4
FN:319,_RNvNtNtNtCs7wZ7Ymcehhq_6silent4core11remote_addr5testss_15test_debug_ipv6
FN:280,_RNvNtNtNtCs7wZ7Ymcehhq_6silent4core11remote_addr5testss_17test_display_ipv4
FN:286,_RNvNtNtNtCs7wZ7Ymcehhq_6silent4core11remote_addr5testss_17test_display_ipv6
FN:591,_RNvNtNtNtCs7wZ7Ymcehhq_6silent4core11remote_addr5testss_18test_ip_is_private
FN:223,_RNvNtNtNtCs7wZ7Ymcehhq_6silent4core11remote_addr5testss_18test_ip_tcp_socket
FN:418,_RNvNtNtNtCs7wZ7Ymcehhq_6silent4core11remote_addr5testss_18test_ip_tls_socket
FN:582,_RNvNtNtNtCs7wZ7Ymcehhq_6silent4core11remote_addr5testss_19test_ip_is_loopback
FN:481,_RNvNtNtNtCs7wZ7Ymcehhq_6silent4core11remote_addr5testss_19test_ipv4_broadcast
FN:570,_RNvNtNtNtCs7wZ7Ymcehhq_6silent4core11remote_addr5testss_19test_ipv4_multicast
FN:576,_RNvNtNtNtCs7wZ7Ymcehhq_6silent4core11remote_addr5testss_19test_ipv6_multicast
FN:236,_RNvNtNtNtCs7wZ7Ymcehhq_6silent4core11remote_addr5testss_20test_ip_ipv4_variant
FN:246,_RNvNtNtNtCs7wZ7Ymcehhq_6silent4core11remote_addr5testss_20test_ip_ipv6_variant
FN:300,_RNvNtNtNtCs7wZ7Ymcehhq_6silent4core11remote_addr5testss_21test_debug_tcp_socket
FN:639,_RNvNtNtNtCs7wZ7Ymcehhq_6silent4core11remote_addr5testss_21test_debug_tls_socket
FN:200,_RNvNtNtNtCs7wZ7Ymcehhq_6silent4core11remote_addr5testss_21test_from_str_invalid
FN:502,_RNvNtNtNtCs7wZ7Ymcehhq_6silent4core11remote_addr5testss_21test_ipv6_full_format
FN:495,_RNvNtNtNtCs7wZ7Ymcehhq_6silent4core11remote_addr5testss_21test_ipv6_unspecified
FN:329,_RNvNtNtNtCs7wZ7Ymcehhq_6silent4core11remote_addr5testss_22test_clone_remote_addr
FN:547,_RNvNtNtNtCs7wZ7Ymcehhq_6silent4core11remote_addr5testss_22test_clone_unix_socket
FN:465,_RNvNtNtNtCs7wZ7Ymcehhq_6silent4core11remote_addr5testss_22test_debug_unix_socket
FN:488,_RNvNtNtNtCs7wZ7Ymcehhq_6silent4core11remote_addr5testss_22test_ipv4_zero_address
FN:272,_RNvNtNtNtCs7wZ7Ymcehhq_6silent4core11remote_addr5testss_23test_display_tcp_socket
FN:626,_RNvNtNtNtCs7wZ7Ymcehhq_6silent4core11remote_addr5testss_23test_display_tls_socket
FN:170,_RNvNtNtNtCs7wZ7Ymcehhq_6silent4core11remote_addr5testss_23test_from_str_ipv4_only
FN:184,_RNvNtNtNtCs7wZ7Ymcehhq_6silent4core11remote_addr5testss_23test_from_str_ipv6_full
FN:177,_RNvNtNtNtCs7wZ7Ymcehhq_6silent4core11remote_addr5testss_23test_from_str_ipv6_only
FN:359,_RNvNtNtNtCs7wZ7Ymcehhq_6silent4core11remote_addr5testss_23test_from_str_localhost
FN:450,_RNvNtNtNtCs7wZ7Ymcehhq_6silent4core11remote_addr5testss_24test_display_unix_socket
FN:434,_RNvNtNtNtCs7wZ7Ymcehhq_6silent4core11remote_addr5testss_24test_from_str_tls_socket
FN:257,_RNvNtNtNtCs7wZ7Ymcehhq_6silent4core11remote_addr5testss_24test_ip_unix_socket_none
FN:377,_RNvNtNtNtCs7wZ7Ymcehhq_6silent4core11remote_addr5testss_24test_ipv4_private_ranges
FN:192,_RNvNtNtNtCs7wZ7Ymcehhq_6silent4core11remote_addr5testss_25test_from_str_unix_socket
FN:600,_RNvNtNtNtCs7wZ7Ymcehhq_6silent4core11remote_addr5testss_25test_remote_addr_equality
FN:292,_RNvNtNtNtCs7wZ7Ymcehhq_6silent4core11remote_addr5testss_26test_display_ipv6_loopback
FN:208,_RNvNtNtNtCs7wZ7Ymcehhq_6silent4core11remote_addr5testss_26test_from_str_empty_string
FN:534,_RNvNtNtNtCs7wZ7Ymcehhq_6silent4core11remote_addr5testss_27test_from_str_ipv4_max_port
FN:541,_RNvNtNtNtCs7wZ7Ymcehhq_6silent4core11remote_addr5testss_28test_from_str_ipv6_with_port
FN:525,_RNvNtNtNtCs7wZ7Ymcehhq_6silent4core11remote_addr5testss_29test_from_str_ipv6_mixed_case
FN:511,_RNvNtNtNtCs7wZ7Ymcehhq_6silent4core11remote_addr5testss_29test_from_str_with_whitespace
FN:156,_RNvNtNtNtCs7wZ7Ymcehhq_6silent4core11remote_addr5testss_30test_from_str_socket_addr_ipv4
FN:163,_RNvNtNtNtCs7wZ7Ymcehhq_6silent4core11remote_addr5testss_30test_from_str_socket_addr_ipv6
FN:651,_RNvNtNtNtCs7wZ7Ymcehhq_6silent4core11remote_addr5testss_32test_from_str_invalid_characters
FN:406,_RNvNtNtNtCs7wZ7Ymcehhq_6silent4core11remote_addr5testss_32test_remote_addr_from_tls_socket
FN:662,_RNvNtNtNtCs7wZ7Ymcehhq_6silent4core11remote_addr5testss_33test_remote_addr_pattern_matching
FN:392,_RNvNtNtNtCs7wZ7Ymcehhq_6silent4core11remote_addr5testss_34test_ipv6_loopback_various_formats
FN:610,_RNvNtNtNtCs7wZ7Ymcehhq_6silent4core11remote_addr5testss_35test_display_socket_addr_variations
FN:115,_RNvNtNtNtCs7wZ7Ymcehhq_6silent4core11remote_addr5testss_37test_remote_addr_from_socket_addr_tcp
FN:141,_RNvNtNtNtCs7wZ7Ymcehhq_6silent4core11remote_addr5testss_38test_remote_addr_from_unix_socket_addr
FN:124,_RNvNtNtNtCs7wZ7Ymcehhq_6silent4core11remote_addr5testss_42test_remote_addr_from_std_socket_addr_ipv4
FN:132,_RNvNtNtNtCs7wZ7Ymcehhq_6silent4core11remote_addr5testss_42test_remote_addr_from_std_socket_addr_ipv6
FN:24,_RNvMNtNtCs7wZ7Ymcehhq_6silent4core11remote_addrNtB2_10RemoteAddr2ipB6_
FN:44,_RNvXs0_NtNtCs7wZ7Ymcehhq_6silent4core11remote_addrNtB5_10RemoteAddrINtNtCsiMcf32LsBml_4core7convert4FromNtNtNtB18_3net11socket_addr10SocketAddrE4from
FN:51,_RNvXs1_NtNtCs7wZ7Ymcehhq_6silent4core11remote_addrNtB5_10RemoteAddrINtNtCsiMcf32LsBml_4core7convert4FromNtNtNtNtNtCsle0CjmPo1W9_3std2os4unix3net4addr10SocketAddrE4from
FN:59,_RNvXs2_NtNtCs7wZ7Ymcehhq_6silent4core11remote_addrNtB5_10RemoteAddrNtNtNtCsiMcf32LsBml_4core3str6traits7FromStr8from_str
FN:86,_RNvXs3_NtNtCs7wZ7Ymcehhq_6silent4core11remote_addrNtB5_10RemoteAddrNtNtCsiMcf32LsBml_4core3fmt5Debug3fmt
FN:96,_RNvXs4_NtNtCs7wZ7Ymcehhq_6silent4core11remote_addrNtB5_10RemoteAddrNtNtCsiMcf32LsBml_4core3fmt7Display3fmt
FN:38,_RNvXs_NtNtCs7wZ7Ymcehhq_6silent4core11remote_addrNtB4_10RemoteAddrINtNtCsiMcf32LsBml_4core7convert4FromNtNtB6_11socket_addr10SocketAddrE4from
FNDA:0,_RNvMNtNtCs9iG4RRqsTsR_6silent4core11remote_addrNtB2_10RemoteAddr2ipB6_
FNDA:1,_RNvXs0_NtNtCs9iG4RRqsTsR_6silent4core11remote_addrNtB5_10RemoteAddrINtNtCsiMcf32LsBml_4core7convert4FromNtNtNtB18_3net11socket_addr10SocketAddrE4from
FNDA:0,_RNvXs1_NtNtCs9iG4RRqsTsR_6silent4core11remote_addrNtB5_10RemoteAddrINtNtCsiMcf32LsBml_4core7convert4FromNtNtNtNtNtCsle0CjmPo1W9_3std2os4unix3net4addr10SocketAddrE4from
FNDA:1,_RNvXs2_NtNtCs9iG4RRqsTsR_6silent4core11remote_addrNtB5_10RemoteAddrNtNtNtCsiMcf32LsBml_4core3str6traits7FromStr8from_str
FNDA:0,_RNvXs3_NtNtCs9iG4RRqsTsR_6silent4core11remote_addrNtB5_10RemoteAddrNtNtCsiMcf32LsBml_4core3fmt5Debug3fmt
FNDA:1,_RNvXs4_NtNtCs9iG4RRqsTsR_6silent4core11remote_addrNtB5_10RemoteAddrNtNtCsiMcf32LsBml_4core3fmt7Display3fmt
FNDA:0,_RNvXs_NtNtCs9iG4RRqsTsR_6silent4core11remote_addrNtB4_10RemoteAddrINtNtCsiMcf32LsBml_4core7convert4FromNtNtB6_11socket_addr10SocketAddrE4from
FNDA:1,_RNvNtNtNtCs7wZ7Ymcehhq_6silent4core11remote_addr5testss_15test_clone_ipv4
FNDA:1,_RNvNtNtNtCs7wZ7Ymcehhq_6silent4core11remote_addr5testss_15test_clone_ipv6
FNDA:1,_RNvNtNtNtCs7wZ7Ymcehhq_6silent4core11remote_addr5testss_15test_debug_ipv4
FNDA:1,_RNvNtNtNtCs7wZ7Ymcehhq_6silent4core11remote_addr5testss_15test_debug_ipv6
FNDA:1,_RNvNtNtNtCs7wZ7Ymcehhq_6silent4core11remote_addr5testss_17test_display_ipv4
FNDA:1,_RNvNtNtNtCs7wZ7Ymcehhq_6silent4core11remote_addr5testss_17test_display_ipv6
FNDA:1,_RNvNtNtNtCs7wZ7Ymcehhq_6silent4core11remote_addr5testss_18test_ip_is_private
FNDA:1,_RNvNtNtNtCs7wZ7Ymcehhq_6silent4core11remote_addr5testss_18test_ip_tcp_socket
FNDA:1,_RNvNtNtNtCs7wZ7Ymcehhq_6silent4core11remote_addr5testss_18test_ip_tls_socket
FNDA:1,_RNvNtNtNtCs7wZ7Ymcehhq_6silent4core11remote_addr5testss_19test_ip_is_loopback
FNDA:1,_RNvNtNtNtCs7wZ7Ymcehhq_6silent4core11remote_addr5testss_19test_ipv4_broadcast
FNDA:1,_RNvNtNtNtCs7wZ7Ymcehhq_6silent4core11remote_addr5testss_19test_ipv4_multicast
FNDA:1,_RNvNtNtNtCs7wZ7Ymcehhq_6silent4core11remote_addr5testss_19test_ipv6_multicast
FNDA:1,_RNvNtNtNtCs7wZ7Ymcehhq_6silent4core11remote_addr5testss_20test_ip_ipv4_variant
FNDA:1,_RNvNtNtNtCs7wZ7Ymcehhq_6silent4core11remote_addr5testss_20test_ip_ipv6_variant
FNDA:1,_RNvNtNtNtCs7wZ7Ymcehhq_6silent4core11remote_addr5testss_21test_debug_tcp_socket
FNDA:1,_RNvNtNtNtCs7wZ7Ymcehhq_6silent4core11remote_addr5testss_21test_debug_tls_socket
FNDA:1,_RNvNtNtNtCs7wZ7Ymcehhq_6silent4core11remote_addr5testss_21test_from_str_invalid
FNDA:1,_RNvNtNtNtCs7wZ7Ymcehhq_6silent4core11remote_addr5testss_21test_ipv6_full_format
FNDA:1,_RNvNtNtNtCs7wZ7Ymcehhq_6silent4core11remote_addr5testss_21test_ipv6_unspecified
FNDA:1,_RNvNtNtNtCs7wZ7Ymcehhq_6silent4core11remote_addr5testss_22test_clone_remote_addr
FNDA:1,_RNvNtNtNtCs7wZ7Ymcehhq_6silent4core11remote_addr5testss_22test_clone_unix_socket
FNDA:1,_RNvNtNtNtCs7wZ7Ymcehhq_6silent4core11remote_addr5testss_22test_debug_unix_socket
FNDA:1,_RNvNtNtNtCs7wZ7Ymcehhq_6silent4core11remote_addr5testss_22test_ipv4_zero_address
FNDA:1,_RNvNtNtNtCs7wZ7Ymcehhq_6silent4core11remote_addr5testss_23test_display_tcp_socket
FNDA:1,_RNvNtNtNtCs7wZ7Ymcehhq_6silent4core11remote_addr5testss_23test_display_tls_socket
FNDA:1,_RNvNtNtNtCs7wZ7Ymcehhq_6silent4core11remote_addr5testss_23test_from_str_ipv4_only
FNDA:1,_RNvNtNtNtCs7wZ7Ymcehhq_6silent4core11remote_addr5testss_23test_from_str_ipv6_full
FNDA:1,_RNvNtNtNtCs7wZ7Ymcehhq_6silent4core11remote_addr5testss_23test_from_str_ipv6_only
FNDA:1,_RNvNtNtNtCs7wZ7Ymcehhq_6silent4core11remote_addr5testss_23test_from_str_localhost
FNDA:1,_RNvNtNtNtCs7wZ7Ymcehhq_6silent4core11remote_addr5testss_24test_display_unix_socket
FNDA:1,_RNvNtNtNtCs7wZ7Ymcehhq_6silent4core11remote_addr5testss_24test_from_str_tls_socket
FNDA:1,_RNvNtNtNtCs7wZ7Ymcehhq_6silent4core11remote_addr5testss_24test_ip_unix_socket_none
FNDA:1,_RNvNtNtNtCs7wZ7Ymcehhq_6silent4core11remote_addr5testss_24test_ipv4_private_ranges
FNDA:1,_RNvNtNtNtCs7wZ7Ymcehhq_6silent4core11remote_addr5testss_25test_from_str_unix_socket
FNDA:1,_RNvNtNtNtCs7wZ7Ymcehhq_6silent4core11remote_addr5testss_25test_remote_addr_equality
FNDA:1,_RNvNtNtNtCs7wZ7Ymcehhq_6silent4core11remote_addr5testss_26test_display_ipv6_loopback
FNDA:1,_RNvNtNtNtCs7wZ7Ymcehhq_6silent4core11remote_addr5testss_26test_from_str_empty_string
FNDA:1,_RNvNtNtNtCs7wZ7Ymcehhq_6silent4core11remote_addr5testss_27test_from_str_ipv4_max_port
FNDA:1,_RNvNtNtNtCs7wZ7Ymcehhq_6silent4core11remote_addr5testss_28test_from_str_ipv6_with_port
FNDA:1,_RNvNtNtNtCs7wZ7Ymcehhq_6silent4core11remote_addr5testss_29test_from_str_ipv6_mixed_case
FNDA:1,_RNvNtNtNtCs7wZ7Ymcehhq_6silent4core11remote_addr5testss_29test_from_str_with_whitespace
FNDA:1,_RNvNtNtNtCs7wZ7Ymcehhq_6silent4core11remote_addr5testss_30test_from_str_socket_addr_ipv4
FNDA:1,_RNvNtNtNtCs7wZ7Ymcehhq_6silent4core11remote_addr5testss_30test_from_str_socket_addr_ipv6
FNDA:1,_RNvNtNtNtCs7wZ7Ymcehhq_6silent4core11remote_addr5testss_32test_from_str_invalid_characters
FNDA:1,_RNvNtNtNtCs7wZ7Ymcehhq_6silent4core11remote_addr5testss_32test_remote_addr_from_tls_socket
FNDA:1,_RNvNtNtNtCs7wZ7Ymcehhq_6silent4core11remote_addr5testss_33test_remote_addr_pattern_matching
FNDA:1,_RNvNtNtNtCs7wZ7Ymcehhq_6silent4core11remote_addr5testss_34test_ipv6_loopback_various_formats
FNDA:1,_RNvNtNtNtCs7wZ7Ymcehhq_6silent4core11remote_addr5testss_35test_display_socket_addr_variations
FNDA:1,_RNvNtNtNtCs7wZ7Ymcehhq_6silent4core11remote_addr5testss_37test_remote_addr_from_socket_addr_tcp
FNDA:1,_RNvNtNtNtCs7wZ7Ymcehhq_6silent4core11remote_addr5testss_38test_remote_addr_from_unix_socket_addr
FNDA:1,_RNvNtNtNtCs7wZ7Ymcehhq_6silent4core11remote_addr5testss_42test_remote_addr_from_std_socket_addr_ipv4
FNDA:1,_RNvNtNtNtCs7wZ7Ymcehhq_6silent4core11remote_addr5testss_42test_remote_addr_from_std_socket_addr_ipv6
FNDA:31,_RNvMNtNtCs7wZ7Ymcehhq_6silent4core11remote_addrNtB2_10RemoteAddr2ipB6_
FNDA:61,_RNvXs0_NtNtCs7wZ7Ymcehhq_6silent4core11remote_addrNtB5_10RemoteAddrINtNtCsiMcf32LsBml_4core7convert4FromNtNtNtB18_3net11socket_addr10SocketAddrE4from
FNDA:9,_RNvXs1_NtNtCs7wZ7Ymcehhq_6silent4core11remote_addrNtB5_10RemoteAddrINtNtCsiMcf32LsBml_4core7convert4FromNtNtNtNtNtCsle0CjmPo1W9_3std2os4unix3net4addr10SocketAddrE4from
FNDA:83,_RNvXs2_NtNtCs7wZ7Ymcehhq_6silent4core11remote_addrNtB5_10RemoteAddrNtNtNtCsiMcf32LsBml_4core3str6traits7FromStr8from_str
FNDA:5,_RNvXs3_NtNtCs7wZ7Ymcehhq_6silent4core11remote_addrNtB5_10RemoteAddrNtNtCsiMcf32LsBml_4core3fmt5Debug3fmt
FNDA:92,_RNvXs4_NtNtCs7wZ7Ymcehhq_6silent4core11remote_addrNtB5_10RemoteAddrNtNtCsiMcf32LsBml_4core3fmt7Display3fmt
FNDA:13,_RNvXs_NtNtCs7wZ7Ymcehhq_6silent4core11remote_addrNtB4_10RemoteAddrINtNtCsiMcf32LsBml_4core7convert4FromNtNtB6_11socket_addr10SocketAddrE4from
FNF:60
FNH:60
DA:24,31
DA:25,14
DA:26,9
DA:28,2
DA:30,3
DA:31,10
DA:32,7
DA:34,31
DA:38,13
DA:39,13
DA:40,13
DA:44,62
DA:45,62
DA:46,62
DA:51,9
DA:52,9
DA:53,9
DA:59,84
DA:61,84
DA:62,30
DA:63,54
DA:65,54
DA:66,37
DA:67,17
DA:69,17
DA:70,8
DA:71,9
DA:74,9
DA:75,8
DA:76,1
DA:78,1
DA:79,1
DA:80,1
DA:81,1
DA:82,84
DA:86,5
DA:87,5
DA:88,3
DA:89,1
DA:90,1
DA:92,5
DA:96,93
DA:97,93
DA:98,68
DA:99,11
DA:100,14
DA:102,93
DA:115,1
DA:116,1
DA:117,1
DA:118,1
DA:119,1
DA:120,1
DA:121,1
DA:124,1
DA:125,1
DA:126,1
DA:127,1
DA:128,1
DA:129,1
DA:132,1
DA:133,1
DA:134,1
DA:135,1
DA:136,1
DA:137,1
DA:141,1
DA:144,1
DA:145,1
DA:146,1
DA:147,1
DA:149,1
DA:150,0
DA:151,1
DA:156,1
DA:157,1
DA:158,1
DA:159,1
DA:160,1
DA:163,1
DA:164,1
DA:165,1
DA:166,1
DA:167,1
DA:170,1
DA:171,1
DA:172,1
DA:173,1
DA:174,1
DA:177,1
DA:178,1
DA:179,1
DA:180,1
DA:181,1
DA:184,1
DA:185,1
DA:186,1
DA:187,1
DA:188,1
DA:192,1
DA:193,1
DA:194,1
DA:196,1
DA:197,1
DA:200,1
DA:202,1
DA:203,1
DA:204,1
DA:205,1
DA:208,1
DA:211,1
DA:213,1
DA:214,1
DA:215,1
DA:216,1
DA:218,1
DA:223,1
DA:224,1
DA:225,1
DA:226,1
DA:228,1
DA:229,1
DA:231,1
DA:233,1
DA:236,1
DA:237,1
DA:238,1
DA:239,1
DA:241,1
DA:243,1
DA:246,1
DA:247,1
DA:248,1
DA:249,1
DA:251,1
DA:253,1
DA:257,1
DA:260,1
DA:261,1
DA:262,1
DA:263,1
DA:265,1
DA:266,0
DA:267,1
DA:272,1
DA:273,1
DA:274,1
DA:275,1
DA:276,1
DA:277,1
DA:280,1
DA:281,1
DA:282,1
DA:283,1
DA:286,1
DA:287,1
DA:288,1
DA:289,1
DA:292,1
DA:293,1
DA:294,1
DA:295,1
DA:300,1
DA:301,1
DA:302,1
DA:303,1
DA:305,1
DA:306,1
DA:307,1
DA:308,1
DA:311,1
DA:312,1
DA:313,1
DA:314,1
DA:315,1
DA:316,1
DA:319,1
DA:320,1
DA:321,1
DA:322,1
DA:323,1
DA:324,1
DA:329,1
DA:330,1
DA:331,1
DA:332,1
DA:334,1
DA:336,1
DA:337,1
DA:338,1
DA:341,1
DA:342,1
DA:343,1
DA:345,1
DA:346,1
DA:349,1
DA:350,1
DA:351,1
DA:353,1
DA:354,1
DA:359,1
DA:362,1
DA:364,1
DA:365,1
DA:366,1
DA:367,1
DA:368,1
DA:369,0
DA:371,0
DA:374,1
DA:377,1
DA:379,1
DA:380,1
DA:383,1
DA:384,1
DA:387,1
DA:388,1
DA:389,1
DA:392,1
DA:394,1
DA:395,1
DA:396,1
DA:398,1
DA:399,1
DA:400,1
DA:406,1
DA:409,1
DA:410,1
DA:411,1
DA:413,1
DA:414,1
DA:418,1
DA:421,1
DA:422,1
DA:423,1
DA:425,1
DA:426,1
DA:428,1
DA:430,1
DA:434,1
DA:435,1
DA:438,1
DA:440,1
DA:442,0
DA:444,1
DA:450,1
DA:453,1
DA:454,1
DA:455,1
DA:456,1
DA:458,1
DA:459,1
DA:460,0
DA:461,1
DA:465,1
DA:468,1
DA:469,1
DA:470,1
DA:471,1
DA:473,1
DA:474,1
DA:475,0
DA:476,1
DA:481,1
DA:482,1
DA:483,1
DA:484,1
DA:485,1
DA:488,1
DA:489,1
DA:490,1
DA:491,1
DA:492,1
DA:495,1
DA:496,1
DA:497,1
DA:498,1
DA:499,1
DA:502,1
DA:503,1
DA:504,1
DA:505,1
DA:506,1
DA:507,1
DA:508,1
DA:511,1
DA:513,1
DA:514,1
DA:515,1
DA:516,1
DA:517,1
DA:518,0
DA:519,0
DA:520,0
DA:522,1
DA:525,1
DA:527,1
DA:528,1
DA:530,1
DA:531,1
DA:534,1
DA:536,1
DA:537,1
DA:538,1
DA:541,1
DA:542,1
DA:543,1
DA:544,1
DA:547,1
DA:552,1
DA:553,1
DA:554,1
DA:555,1
DA:556,1
DA:558,1
DA:559,0
DA:567,1
DA:570,1
DA:571,1
DA:572,1
DA:573,1
DA:576,1
DA:577,1
DA:578,1
DA:579,1
DA:582,1
DA:583,1
DA:584,1
DA:586,1
DA:587,1
DA:588,1
DA:591,1
DA:592,1
DA:593,1
DA:594,1
DA:595,0
DA:597,1
DA:600,1
DA:601,1
DA:602,1
DA:603,1
DA:605,1
DA:606,1
DA:607,1
DA:610,1
DA:612,1
DA:613,1
DA:614,1
DA:615,1
DA:618,3
DA:619,3
DA:620,3
DA:622,1
DA:626,1
DA:629,1
DA:630,1
DA:631,1
DA:633,1
DA:634,1
DA:635,1
DA:639,1
DA:642,1
DA:643,1
DA:644,1
DA:646,1
DA:647,1
DA:648,1
DA:651,1
DA:653,1
DA:655,4
DA:656,4
DA:657,4
DA:659,1
DA:662,1
DA:664,1
DA:665,1
DA:666,1
DA:667,0
DA:670,1
DA:671,1
DA:672,1
DA:673,0
DA:676,1
DA:677,1
DA:678,1
DA:679,0
DA:681,1
BRF:0
BRH:0
LF:387
LH:372
end_of_record
SF:/Users/hubertshelley/Documents/silent/silent/silent/src/core/req_body.rs
FN:111,_RNvMs3_NtNtCs9iG4RRqsTsR_6silent4core8req_bodyNtB5_7ReqBody10with_limit
FN:138,_RNvMs4_NtNtCs9iG4RRqsTsR_6silent4core8req_bodyNtB5_15LimitedIncoming3new
FN:26,_RNvXNtNtCs9iG4RRqsTsR_6silent4core8req_bodyNtB2_7ReqBodyNtNtCsiMcf32LsBml_4core3fmt5Debug3fmt
FN:44,_RNvXs0_NtNtCs9iG4RRqsTsR_6silent4core8req_bodyNtB5_7ReqBodyINtNtCsiMcf32LsBml_4core7convert4FromuE4from
FN:53,_RNvXs1_NtNtCs9iG4RRqsTsR_6silent4core8req_bodyNtB5_7ReqBodyNtCs1tSoQd4xB4v_9http_body4Body10poll_frame
FN:75,_RNvXs1_NtNtCs9iG4RRqsTsR_6silent4core8req_bodyNtB5_7ReqBodyNtCs1tSoQd4xB4v_9http_body4Body13is_end_stream
FN:85,_RNvXs1_NtNtCs9iG4RRqsTsR_6silent4core8req_bodyNtB5_7ReqBodyNtCs1tSoQd4xB4v_9http_body4Body9size_hint
FN:99,_RNvXs2_NtNtCs9iG4RRqsTsR_6silent4core8req_bodyNtB5_7ReqBodyNtNtCs66fNo4xQT42_12futures_core6stream6Stream9poll_next
FN:151,_RNvXs5_NtNtCs9iG4RRqsTsR_6silent4core8req_bodyNtB5_15LimitedIncomingNtCs1tSoQd4xB4v_9http_body4Body10poll_frame
FN:174,_RNvXs5_NtNtCs9iG4RRqsTsR_6silent4core8req_bodyNtB5_15LimitedIncomingNtCs1tSoQd4xB4v_9http_body4Body13is_end_stream
FN:178,_RNvXs5_NtNtCs9iG4RRqsTsR_6silent4core8req_bodyNtB5_15LimitedIncomingNtCs1tSoQd4xB4v_9http_body4Body9size_hint
FN:38,_RNvXs_NtNtCs9iG4RRqsTsR_6silent4core8req_bodyNtB4_7ReqBodyINtNtCsiMcf32LsBml_4core7convert4FromNtNtNtCsj0zAge8ySK0_5hyper4body8incoming8IncomingE4from
FN:121,_RINvMs3_NtNtCs9iG4RRqsTsR_6silent4core8req_bodyNtB6_7ReqBody11from_streamINtNtNtCsdJP3GOxTXdf_12tokio_stream8wrappers12mpsc_bounded14ReceiverStreamINtNtCsiMcf32LsBml_4core6result6ResultNtNtCshg9dpYYzUrc_5bytes5bytes5BytesNtNtNtCsle0CjmPo1W9_3std2io5error5ErrorEEEBa_
FN:38,_RNvXs_NtNtCs7wZ7Ymcehhq_6silent4core8req_bodyNtB4_7ReqBodyINtNtCsiMcf32LsBml_4core7convert4FromNtNtNtCsj0zAge8ySK0_5hyper4body8incoming8IncomingE4from
FN:111,_RNvMs3_NtNtCs7wZ7Ymcehhq_6silent4core8req_bodyNtB5_7ReqBody10with_limit
FN:138,_RNvMs4_NtNtCs7wZ7Ymcehhq_6silent4core8req_bodyNtB5_15LimitedIncoming3new
FN:26,_RNvXNtNtCs7wZ7Ymcehhq_6silent4core8req_bodyNtB2_7ReqBodyNtNtCsiMcf32LsBml_4core3fmt5Debug3fmt
FN:44,_RNvXs0_NtNtCs7wZ7Ymcehhq_6silent4core8req_bodyNtB5_7ReqBodyINtNtCsiMcf32LsBml_4core7convert4FromuE4from
FN:53,_RNvXs1_NtNtCs7wZ7Ymcehhq_6silent4core8req_bodyNtB5_7ReqBodyNtCs1tSoQd4xB4v_9http_body4Body10poll_frame
FN:75,_RNvXs1_NtNtCs7wZ7Ymcehhq_6silent4core8req_bodyNtB5_7ReqBodyNtCs1tSoQd4xB4v_9http_body4Body13is_end_stream
FN:85,_RNvXs1_NtNtCs7wZ7Ymcehhq_6silent4core8req_bodyNtB5_7ReqBodyNtCs1tSoQd4xB4v_9http_body4Body9size_hint
FN:99,_RNvXs2_NtNtCs7wZ7Ymcehhq_6silent4core8req_bodyNtB5_7ReqBodyNtNtCs66fNo4xQT42_12futures_core6stream6Stream9poll_next
FN:151,_RNvXs5_NtNtCs7wZ7Ymcehhq_6silent4core8req_bodyNtB5_15LimitedIncomingNtCs1tSoQd4xB4v_9http_body4Body10poll_frame
FN:174,_RNvXs5_NtNtCs7wZ7Ymcehhq_6silent4core8req_bodyNtB5_15LimitedIncomingNtCs1tSoQd4xB4v_9http_body4Body13is_end_stream
FN:178,_RNvXs5_NtNtCs7wZ7Ymcehhq_6silent4core8req_bodyNtB5_15LimitedIncomingNtCs1tSoQd4xB4v_9http_body4Body9size_hint
FN:121,_RINvMs3_NtNtCs7wZ7Ymcehhq_6silent4core8req_bodyNtB6_7ReqBody11from_streamINtNtNtCsaqh56Yrw2Bj_12futures_util6stream4iter4IterINtNtNtCskxbBfrLNYPn_5alloc3vec9into_iter8IntoIterINtNtCsiMcf32LsBml_4core6result6ResultNtNtCshg9dpYYzUrc_5bytes5bytes5BytesNtNtNtCsle0CjmPo1W9_3std2io5error5ErrorEEEEBa_
FN:121,_RINvMs3_NtNtCs7wZ7Ymcehhq_6silent4core8req_bodyNtB6_7ReqBody11from_streamINtNtNtCsaqh56Yrw2Bj_12futures_util6stream4once4OnceNCNvNtB6_5testss_43test_req_body_from_stream_returns_streaming0EEBa_
FN:121,_RINvMs3_NtNtCs7wZ7Ymcehhq_6silent4core8req_bodyNtB6_7ReqBody11from_streamINtNtNtCsdJP3GOxTXdf_12tokio_stream8wrappers12mpsc_bounded14ReceiverStreamINtNtCsiMcf32LsBml_4core6result6ResultNtNtCshg9dpYYzUrc_5bytes5bytes5BytesNtNtNtCsle0CjmPo1W9_3std2io5error5ErrorEEEBa_
FN:489,_RINvNCNvNtNtNtCs7wZ7Ymcehhq_6silent4core8req_body5testss_24test_req_body_body_trait011assert_bodyNtB8_7ReqBodyEBc_
FN:497,_RINvNCNvNtNtNtCs7wZ7Ymcehhq_6silent4core8req_body5testss_26test_req_body_stream_trait013assert_streamNtB8_7ReqBodyEBc_
FN:487,_RNCNvNtNtNtCs7wZ7Ymcehhq_6silent4core8req_body5testss_24test_req_body_body_trait0B9_
FN:495,_RNCNvNtNtNtCs7wZ7Ymcehhq_6silent4core8req_body5testss_26test_req_body_stream_trait0B9_
FN:390,_RNCNvNtNtNtCs7wZ7Ymcehhq_6silent4core8req_body5testss_28test_req_body_poll_next_once0B9_
FN:352,_RNCNvNtNtNtCs7wZ7Ymcehhq_6silent4core8req_body5testss_29test_req_body_poll_frame_once0B9_
FN:378,_RNCNvNtNtNtCs7wZ7Ymcehhq_6silent4core8req_body5testss_29test_req_body_poll_next_empty0B9_
FN:340,_RNCNvNtNtNtCs7wZ7Ymcehhq_6silent4core8req_body5testss_30test_req_body_poll_frame_empty0B9_
FN:555,_RNCNvNtNtNtCs7wZ7Ymcehhq_6silent4core8req_body5testss_32test_req_body_streaming_behavior0B9_
FN:611,_RNCNvNtNtNtCs7wZ7Ymcehhq_6silent4core8req_body5testss_33test_req_body_once_consumes_bytes0B9_
FN:539,_RNCNvNtNtNtCs7wZ7Ymcehhq_6silent4core8req_body5testss_42test_req_body_multiple_poll_frame_on_empty0B9_
FN:506,_RNCNvNtNtNtCs7wZ7Ymcehhq_6silent4core8req_body5testss_43test_req_body_from_stream_returns_streaming0B9_
FN:190,_RNvNtNtNtCs7wZ7Ymcehhq_6silent4core8req_body5testss_19test_req_body_empty
FN:586,_RNvNtNtNtCs7wZ7Ymcehhq_6silent4core8req_body5testss_22test_req_body_no_clone
FN:237,_RNvNtNtNtCs7wZ7Ymcehhq_6silent4core8req_body5testss_23test_req_body_from_unit
FN:487,_RNvNtNtNtCs7wZ7Ymcehhq_6silent4core8req_body5testss_24test_req_body_body_trait
FN:227,_RNvNtNtNtCs7wZ7Ymcehhq_6silent4core8req_body5testss_24test_req_body_once_debug
FN:217,_RNvNtNtNtCs7wZ7Ymcehhq_6silent4core8req_body5testss_24test_req_body_once_empty
FN:413,_RNvNtNtNtCs7wZ7Ymcehhq_6silent4core8req_body5testss_25test_limited_incoming_new
FN:199,_RNvNtNtNtCs7wZ7Ymcehhq_6silent4core8req_body5testss_25test_req_body_empty_debug
FN:572,_RNvNtNtNtCs7wZ7Ymcehhq_6silent4core8req_body5testss_26test_req_body_debug_format
FN:495,_RNvNtNtNtCs7wZ7Ymcehhq_6silent4core8req_body5testss_26test_req_body_stream_trait
FN:421,_RNvNtNtNtCs7wZ7Ymcehhq_6silent4core8req_body5testss_27test_limited_incoming_debug
FN:473,_RNvNtNtNtCs7wZ7Ymcehhq_6silent4core8req_body5testss_27test_req_body_variants_size
FN:283,_RNvNtNtNtCs7wZ7Ymcehhq_6silent4core8req_body5testss_28test_req_body_debug_incoming
FN:207,_RNvNtNtNtCs7wZ7Ymcehhq_6silent4core8req_body5testss_28test_req_body_once_with_data
FN:390,_RNvNtNtNtCs7wZ7Ymcehhq_6silent4core8req_body5testss_28test_req_body_poll_next_once
FN:311,_RNvNtNtNtCs7wZ7Ymcehhq_6silent4core8req_body5testss_28test_req_body_size_hint_once
FN:437,_RNvNtNtNtCs7wZ7Ymcehhq_6silent4core8req_body5testss_28test_req_body_with_bytes_vec
FN:296,_RNvNtNtNtCs7wZ7Ymcehhq_6silent4core8req_body5testss_29test_req_body_debug_streaming
FN:463,_RNvNtNtNtCs7wZ7Ymcehhq_6silent4core8req_body5testss_29test_req_body_once_large_data
FN:261,_RNvNtNtNtCs7wZ7Ymcehhq_6silent4core8req_body5testss_29test_req_body_once_with_limit
FN:352,_RNvNtNtNtCs7wZ7Ymcehhq_6silent4core8req_body5testss_29test_req_body_poll_frame_once
FN:378,_RNvNtNtNtCs7wZ7Ymcehhq_6silent4core8req_body5testss_29test_req_body_poll_next_empty
FN:303,_RNvNtNtNtCs7wZ7Ymcehhq_6silent4core8req_body5testss_29test_req_body_size_hint_empty
FN:446,_RNvNtNtNtCs7wZ7Ymcehhq_6silent4core8req_body5testss_29test_req_body_with_bytes_copy
FN:254,_RNvNtNtNtCs7wZ7Ymcehhq_6silent4core8req_body5testss_29test_req_body_with_limit_none
FN:245,_RNvNtNtNtCs7wZ7Ymcehhq_6silent4core8req_body5testss_29test_req_body_with_limit_some
FN:455,_RNvNtNtNtCs7wZ7Ymcehhq_6silent4core8req_body5testss_30test_req_body_once_zero_length
FN:340,_RNvNtNtNtCs7wZ7Ymcehhq_6silent4core8req_body5testss_30test_req_body_poll_frame_empty
FN:270,_RNvNtNtNtCs7wZ7Ymcehhq_6silent4core8req_body5testss_31test_req_body_from_stream_empty
FN:429,_RNvNtNtNtCs7wZ7Ymcehhq_6silent4core8req_body5testss_31test_req_body_with_bytes_static
FN:555,_RNvNtNtNtCs7wZ7Ymcehhq_6silent4core8req_body5testss_32test_req_body_streaming_behavior
FN:594,_RNvNtNtNtCs7wZ7Ymcehhq_6silent4core8req_body5testss_33test_req_body_empty_vs_once_empty
FN:321,_RNvNtNtNtCs7wZ7Ymcehhq_6silent4core8req_body5testss_33test_req_body_is_end_stream_empty
FN:611,_RNvNtNtNtCs7wZ7Ymcehhq_6silent4core8req_body5testss_33test_req_body_once_consumes_bytes
FN:518,_RNvNtNtNtCs7wZ7Ymcehhq_6silent4core8req_body5testss_34test_req_body_with_limit_signature
FN:290,_RNvNtNtNtCs7wZ7Ymcehhq_6silent4core8req_body5testss_36test_req_body_debug_limited_incoming
FN:333,_RNvNtNtNtCs7wZ7Ymcehhq_6silent4core8req_body5testss_38test_req_body_is_end_stream_once_empty
FN:327,_RNvNtNtNtCs7wZ7Ymcehhq_6silent4core8req_body5testss_42test_req_body_is_end_stream_once_with_data
FN:539,_RNvNtNtNtCs7wZ7Ymcehhq_6silent4core8req_body5testss_42test_req_body_multiple_poll_frame_on_empty
FN:503,_RNvNtNtNtCs7wZ7Ymcehhq_6silent4core8req_body5testss_43test_req_body_from_stream_returns_streaming
FN:526,_RNvNtNtNtCs7wZ7Ymcehhq_6silent4core8req_body5testss_49test_req_body_with_limit_preserves_other_variants
FNDA:0,_RNvMs3_NtNtCs9iG4RRqsTsR_6silent4core8req_bodyNtB5_7ReqBody10with_limit
FNDA:0,_RNvMs4_NtNtCs9iG4RRqsTsR_6silent4core8req_bodyNtB5_15LimitedIncoming3new
FNDA:0,_RNvXNtNtCs9iG4RRqsTsR_6silent4core8req_bodyNtB2_7ReqBodyNtNtCsiMcf32LsBml_4core3fmt5Debug3fmt
FNDA:0,_RNvXs0_NtNtCs9iG4RRqsTsR_6silent4core8req_bodyNtB5_7ReqBodyINtNtCsiMcf32LsBml_4core7convert4FromuE4from
FNDA:0,_RNvXs1_NtNtCs9iG4RRqsTsR_6silent4core8req_bodyNtB5_7ReqBodyNtCs1tSoQd4xB4v_9http_body4Body10poll_frame
FNDA:0,_RNvXs1_NtNtCs9iG4RRqsTsR_6silent4core8req_bodyNtB5_7ReqBodyNtCs1tSoQd4xB4v_9http_body4Body13is_end_stream
FNDA:0,_RNvXs1_NtNtCs9iG4RRqsTsR_6silent4core8req_bodyNtB5_7ReqBodyNtCs1tSoQd4xB4v_9http_body4Body9size_hint
FNDA:0,_RNvXs2_NtNtCs9iG4RRqsTsR_6silent4core8req_bodyNtB5_7ReqBodyNtNtCs66fNo4xQT42_12futures_core6stream6Stream9poll_next
FNDA:0,_RNvXs5_NtNtCs9iG4RRqsTsR_6silent4core8req_bodyNtB5_15LimitedIncomingNtCs1tSoQd4xB4v_9http_body4Body10poll_frame
FNDA:0,_RNvXs5_NtNtCs9iG4RRqsTsR_6silent4core8req_bodyNtB5_15LimitedIncomingNtCs1tSoQd4xB4v_9http_body4Body13is_end_stream
FNDA:0,_RNvXs5_NtNtCs9iG4RRqsTsR_6silent4core8req_bodyNtB5_15LimitedIncomingNtCs1tSoQd4xB4v_9http_body4Body9size_hint
FNDA:0,_RNvXs_NtNtCs9iG4RRqsTsR_6silent4core8req_bodyNtB4_7ReqBodyINtNtCsiMcf32LsBml_4core7convert4FromNtNtNtCsj0zAge8ySK0_5hyper4body8incoming8IncomingE4from
FNDA:0,_RINvMs3_NtNtCs9iG4RRqsTsR_6silent4core8req_bodyNtB6_7ReqBody11from_streamINtNtNtCsdJP3GOxTXdf_12tokio_stream8wrappers12mpsc_bounded14ReceiverStreamINtNtCsiMcf32LsBml_4core6result6ResultNtNtCshg9dpYYzUrc_5bytes5bytes5BytesNtNtNtCsle0CjmPo1W9_3std2io5error5ErrorEEEBa_
FNDA:0,_RNvXs_NtNtCs7wZ7Ymcehhq_6silent4core8req_bodyNtB4_7ReqBodyINtNtCsiMcf32LsBml_4core7convert4FromNtNtNtCsj0zAge8ySK0_5hyper4body8incoming8IncomingE4from
FNDA:6,_RNvMs3_NtNtCs7wZ7Ymcehhq_6silent4core8req_bodyNtB5_7ReqBody10with_limit
FNDA:0,_RNvMs4_NtNtCs7wZ7Ymcehhq_6silent4core8req_bodyNtB5_15LimitedIncoming3new
FNDA:4,_RNvXNtNtCs7wZ7Ymcehhq_6silent4core8req_bodyNtB2_7ReqBodyNtNtCsiMcf32LsBml_4core3fmt5Debug3fmt
FNDA:2,_RNvXs0_NtNtCs7wZ7Ymcehhq_6silent4core8req_bodyNtB5_7ReqBodyINtNtCsiMcf32LsBml_4core7convert4FromuE4from
FNDA:221,_RNvXs1_NtNtCs7wZ7Ymcehhq_6silent4core8req_bodyNtB5_7ReqBodyNtCs1tSoQd4xB4v_9http_body4Body10poll_frame
FNDA:32,_RNvXs1_NtNtCs7wZ7Ymcehhq_6silent4core8req_bodyNtB5_7ReqBodyNtCs1tSoQd4xB4v_9http_body4Body13is_end_stream
FNDA:13,_RNvXs1_NtNtCs7wZ7Ymcehhq_6silent4core8req_bodyNtB5_7ReqBodyNtCs1tSoQd4xB4v_9http_body4Body9size_hint
FNDA:7,_RNvXs2_NtNtCs7wZ7Ymcehhq_6silent4core8req_bodyNtB5_7ReqBodyNtNtCs66fNo4xQT42_12futures_core6stream6Stream9poll_next
FNDA:0,_RNvXs5_NtNtCs7wZ7Ymcehhq_6silent4core8req_bodyNtB5_15LimitedIncomingNtCs1tSoQd4xB4v_9http_body4Body10poll_frame
FNDA:0,_RNvXs5_NtNtCs7wZ7Ymcehhq_6silent4core8req_bodyNtB5_15LimitedIncomingNtCs1tSoQd4xB4v_9http_body4Body13is_end_stream
FNDA:0,_RNvXs5_NtNtCs7wZ7Ymcehhq_6silent4core8req_bodyNtB5_15LimitedIncomingNtCs1tSoQd4xB4v_9http_body4Body9size_hint
FNDA:2,_RINvMs3_NtNtCs7wZ7Ymcehhq_6silent4core8req_bodyNtB6_7ReqBody11from_streamINtNtNtCsaqh56Yrw2Bj_12futures_util6stream4iter4IterINtNtNtCskxbBfrLNYPn_5alloc3vec9into_iter8IntoIterINtNtCsiMcf32LsBml_4core6result6ResultNtNtCshg9dpYYzUrc_5bytes5bytes5BytesNtNtNtCsle0CjmPo1W9_3std2io5error5ErrorEEEEBa_
FNDA:1,_RINvMs3_NtNtCs7wZ7Ymcehhq_6silent4core8req_bodyNtB6_7ReqBody11from_streamINtNtNtCsaqh56Yrw2Bj_12futures_util6stream4once4OnceNCNvNtB6_5testss_43test_req_body_from_stream_returns_streaming0EEBa_
FNDA:26,_RINvMs3_NtNtCs7wZ7Ymcehhq_6silent4core8req_bodyNtB6_7ReqBody11from_streamINtNtNtCsdJP3GOxTXdf_12tokio_stream8wrappers12mpsc_bounded14ReceiverStreamINtNtCsiMcf32LsBml_4core6result6ResultNtNtCshg9dpYYzUrc_5bytes5bytes5BytesNtNtNtCsle0CjmPo1W9_3std2io5error5ErrorEEEBa_
FNDA:1,_RINvNCNvNtNtNtCs7wZ7Ymcehhq_6silent4core8req_body5testss_24test_req_body_body_trait011assert_bodyNtB8_7ReqBodyEBc_
FNDA:1,_RINvNCNvNtNtNtCs7wZ7Ymcehhq_6silent4core8req_body5testss_26test_req_body_stream_trait013assert_streamNtB8_7ReqBodyEBc_
FNDA:1,_RNCNvNtNtNtCs7wZ7Ymcehhq_6silent4core8req_body5testss_24test_req_body_body_trait0B9_
FNDA:1,_RNCNvNtNtNtCs7wZ7Ymcehhq_6silent4core8req_body5testss_26test_req_body_stream_trait0B9_
FNDA:1,_RNCNvNtNtNtCs7wZ7Ymcehhq_6silent4core8req_body5testss_28test_req_body_poll_next_once0B9_
FNDA:1,_RNCNvNtNtNtCs7wZ7Ymcehhq_6silent4core8req_body5testss_29test_req_body_poll_frame_once0B9_
FNDA:1,_RNCNvNtNtNtCs7wZ7Ymcehhq_6silent4core8req_body5testss_29test_req_body_poll_next_empty0B9_
FNDA:1,_RNCNvNtNtNtCs7wZ7Ymcehhq_6silent4core8req_body5testss_30test_req_body_poll_frame_empty0B9_
FNDA:1,_RNCNvNtNtNtCs7wZ7Ymcehhq_6silent4core8req_body5testss_32test_req_body_streaming_behavior0B9_
FNDA:1,_RNCNvNtNtNtCs7wZ7Ymcehhq_6silent4core8req_body5testss_33test_req_body_once_consumes_bytes0B9_
FNDA:1,_RNCNvNtNtNtCs7wZ7Ymcehhq_6silent4core8req_body5testss_42test_req_body_multiple_poll_frame_on_empty0B9_
FNDA:0,_RNCNvNtNtNtCs7wZ7Ymcehhq_6silent4core8req_body5testss_43test_req_body_from_stream_returns_streaming0B9_
FNDA:1,_RNvNtNtNtCs7wZ7Ymcehhq_6silent4core8req_body5testss_19test_req_body_empty
FNDA:1,_RNvNtNtNtCs7wZ7Ymcehhq_6silent4core8req_body5testss_22test_req_body_no_clone
FNDA:1,_RNvNtNtNtCs7wZ7Ymcehhq_6silent4core8req_body5testss_23test_req_body_from_unit
FNDA:1,_RNvNtNtNtCs7wZ7Ymcehhq_6silent4core8req_body5testss_24test_req_body_body_trait
FNDA:1,_RNvNtNtNtCs7wZ7Ymcehhq_6silent4core8req_body5testss_24test_req_body_once_debug
FNDA:1,_RNvNtNtNtCs7wZ7Ymcehhq_6silent4core8req_body5testss_24test_req_body_once_empty
FNDA:1,_RNvNtNtNtCs7wZ7Ymcehhq_6silent4core8req_body5testss_25test_limited_incoming_new
FNDA:1,_RNvNtNtNtCs7wZ7Ymcehhq_6silent4core8req_body5testss_25test_req_body_empty_debug
FNDA:1,_RNvNtNtNtCs7wZ7Ymcehhq_6silent4core8req_body5testss_26test_req_body_debug_format
FNDA:1,_RNvNtNtNtCs7wZ7Ymcehhq_6silent4core8req_body5testss_26test_req_body_stream_trait
FNDA:1,_RNvNtNtNtCs7wZ7Ymcehhq_6silent4core8req_body5testss_27test_limited_incoming_debug
FNDA:1,_RNvNtNtNtCs7wZ7Ymcehhq_6silent4core8req_body5testss_27test_req_body_variants_size
FNDA:1,_RNvNtNtNtCs7wZ7Ymcehhq_6silent4core8req_body5testss_28test_req_body_debug_incoming
FNDA:1,_RNvNtNtNtCs7wZ7Ymcehhq_6silent4core8req_body5testss_28test_req_body_once_with_data
FNDA:1,_RNvNtNtNtCs7wZ7Ymcehhq_6silent4core8req_body5testss_28test_req_body_poll_next_once
FNDA:1,_RNvNtNtNtCs7wZ7Ymcehhq_6silent4core8req_body5testss_28test_req_body_size_hint_once
FNDA:1,_RNvNtNtNtCs7wZ7Ymcehhq_6silent4core8req_body5testss_28test_req_body_with_bytes_vec
FNDA:1,_RNvNtNtNtCs7wZ7Ymcehhq_6silent4core8req_body5testss_29test_req_body_debug_streaming
FNDA:1,_RNvNtNtNtCs7wZ7Ymcehhq_6silent4core8req_body5testss_29test_req_body_once_large_data
FNDA:1,_RNvNtNtNtCs7wZ7Ymcehhq_6silent4core8req_body5testss_29test_req_body_once_with_limit
FNDA:1,_RNvNtNtNtCs7wZ7Ymcehhq_6silent4core8req_body5testss_29test_req_body_poll_frame_once
FNDA:1,_RNvNtNtNtCs7wZ7Ymcehhq_6silent4core8req_body5testss_29test_req_body_poll_next_empty
FNDA:1,_RNvNtNtNtCs7wZ7Ymcehhq_6silent4core8req_body5testss_29test_req_body_size_hint_empty
FNDA:1,_RNvNtNtNtCs7wZ7Ymcehhq_6silent4core8req_body5testss_29test_req_body_with_bytes_copy
FNDA:1,_RNvNtNtNtCs7wZ7Ymcehhq_6silent4core8req_body5testss_29test_req_body_with_limit_none
FNDA:1,_RNvNtNtNtCs7wZ7Ymcehhq_6silent4core8req_body5testss_29test_req_body_with_limit_some
FNDA:1,_RNvNtNtNtCs7wZ7Ymcehhq_6silent4core8req_body5testss_30test_req_body_once_zero_length
FNDA:1,_RNvNtNtNtCs7wZ7Ymcehhq_6silent4core8req_body5testss_30test_req_body_poll_frame_empty
FNDA:1,_RNvNtNtNtCs7wZ7Ymcehhq_6silent4core8req_body5testss_31test_req_body_from_stream_empty
FNDA:1,_RNvNtNtNtCs7wZ7Ymcehhq_6silent4core8req_body5testss_31test_req_body_with_bytes_static
FNDA:1,_RNvNtNtNtCs7wZ7Ymcehhq_6silent4core8req_body5testss_32test_req_body_streaming_behavior
FNDA:1,_RNvNtNtNtCs7wZ7Ymcehhq_6silent4core8req_body5testss_33test_req_body_empty_vs_once_empty
FNDA:1,_RNvNtNtNtCs7wZ7Ymcehhq_6silent4core8req_body5testss_33test_req_body_is_end_stream_empty
FNDA:1,_RNvNtNtNtCs7wZ7Ymcehhq_6silent4core8req_body5testss_33test_req_body_once_consumes_bytes
FNDA:1,_RNvNtNtNtCs7wZ7Ymcehhq_6silent4core8req_body5testss_34test_req_body_with_limit_signature
FNDA:1,_RNvNtNtNtCs7wZ7Ymcehhq_6silent4core8req_body5testss_36test_req_body_debug_limited_incoming
FNDA:1,_RNvNtNtNtCs7wZ7Ymcehhq_6silent4core8req_body5testss_38test_req_body_is_end_stream_once_empty
FNDA:1,_RNvNtNtNtCs7wZ7Ymcehhq_6silent4core8req_body5testss_42test_req_body_is_end_stream_once_with_data
FNDA:1,_RNvNtNtNtCs7wZ7Ymcehhq_6silent4core8req_body5testss_42test_req_body_multiple_poll_frame_on_empty
FNDA:1,_RNvNtNtNtCs7wZ7Ymcehhq_6silent4core8req_body5testss_43test_req_body_from_stream_returns_streaming
FNDA:1,_RNvNtNtNtCs7wZ7Ymcehhq_6silent4core8req_body5testss_49test_req_body_with_limit_preserves_other_variants
FNF:66
FNH:60
DA:26,4
DA:27,4
DA:28,2
DA:29,2
DA:30,0
DA:31,0
DA:32,0
DA:34,4
DA:38,0
DA:39,0
DA:40,0
DA:44,2
DA:45,2
DA:46,2
DA:53,221
DA:54,221
DA:55,221
DA:56,221
DA:57,221
DA:58,19
DA:59,13
DA:60,13
DA:61,13
DA:62,13
DA:64,0
DA:65,0
DA:66,189
DA:67,127
DA:68,2
DA:69,23
DA:70,37
DA:73,221
DA:75,32
DA:76,32
DA:77,23
DA:78,7
DA:79,0
DA:80,0
DA:81,2
DA:83,32
DA:85,13
DA:86,13
DA:87,3
DA:88,9
DA:89,0
DA:90,0
DA:91,1
DA:93,13
DA:99,7
DA:100,7
DA:101,2
DA:102,0
DA:103,5
DA:104,0
DA:106,7
DA:111,6
DA:112,6
DA:113,0
DA:114,0
DA:116,6
DA:118,6
DA:121,29
DA:122,29
DA:123,29
DA:125,29
DA:126,29
DA:138,0
DA:139,0
DA:140,0
DA:141,0
DA:142,0
DA:143,0
DA:144,0
DA:151,0
DA:152,0
DA:153,0
DA:154,0
DA:155,0
DA:156,0
DA:157,0
DA:159,0
DA:160,0
DA:161,0
DA:162,0
DA:163,0
DA:164,0
DA:165,0
DA:166,0
DA:167,0
DA:168,0
DA:170,0
DA:172,0
DA:174,0
DA:175,0
DA:176,0
DA:178,0
DA:179,0
DA:180,0
DA:190,1
DA:191,1
DA:192,1
DA:193,1
DA:194,1
DA:195,1
DA:196,1
DA:199,1
DA:200,1
DA:201,1
DA:202,1
DA:203,1
DA:207,1
DA:208,1
DA:209,1
DA:210,1
DA:211,1
DA:212,1
DA:213,1
DA:214,1
DA:217,1
DA:218,1
DA:219,1
DA:220,1
DA:221,1
DA:222,1
DA:223,1
DA:224,1
DA:227,1
DA:228,1
DA:229,1
DA:230,1
DA:231,1
DA:232,1
DA:233,1
DA:237,1
DA:238,1
DA:239,1
DA:240,1
DA:241,1
DA:245,1
DA:248,1
DA:249,1
DA:250,1
DA:251,1
DA:254,1
DA:255,1
DA:256,1
DA:257,1
DA:258,1
DA:261,1
DA:262,1
DA:263,1
DA:265,1
DA:266,1
DA:270,1
DA:274,1
DA:275,1
DA:277,1
DA:278,1
DA:279,1
DA:283,1
DA:285,1
DA:286,1
DA:287,1
DA:290,1
DA:291,1
DA:292,1
DA:293,1
DA:296,1
DA:297,1
DA:298,1
DA:299,1
DA:303,1
DA:304,1
DA:305,1
DA:306,1
DA:307,1
DA:308,1
DA:311,1
DA:312,1
DA:313,1
DA:314,1
DA:315,1
DA:316,1
DA:317,1
DA:321,1
DA:322,1
DA:323,1
DA:324,1
DA:327,1
DA:328,1
DA:329,1
DA:330,1
DA:333,1
DA:334,1
DA:335,1
DA:336,1
DA:340,1
DA:341,1
DA:342,1
DA:343,1
DA:345,1
DA:346,1
DA:347,1
DA:348,1
DA:349,1
DA:352,1
DA:353,1
DA:354,1
DA:355,1
DA:356,1
DA:359,1
DA:360,1
DA:361,1
DA:363,0
DA:367,1
DA:370,1
DA:371,1
DA:372,1
DA:373,1
DA:374,1
DA:378,1
DA:379,1
DA:380,1
DA:381,1
DA:383,1
DA:384,1
DA:385,1
DA:386,1
DA:387,1
DA:390,1
DA:391,1
DA:392,1
DA:393,1
DA:394,1
DA:397,1
DA:398,1
DA:399,1
DA:400,1
DA:401,1
DA:402,1
DA:403,1
DA:404,1
DA:405,1
DA:406,1
DA:407,1
DA:408,1
DA:409,1
DA:413,1
DA:416,1
DA:417,1
DA:418,1
DA:421,1
DA:423,1
DA:424,1
DA:425,1
DA:429,1
DA:430,1
DA:431,1
DA:432,1
DA:433,1
DA:434,1
DA:437,1
DA:438,1
DA:439,1
DA:440,1
DA:441,1
DA:442,1
DA:443,1
DA:446,1
DA:447,1
DA:448,1
DA:449,1
DA:450,1
DA:451,1
DA:455,1
DA:456,1
DA:457,1
DA:458,1
DA:459,1
DA:460,1
DA:463,1
DA:464,1
DA:465,1
DA:466,1
DA:467,1
DA:468,1
DA:469,1
DA:473,1
DA:477,1
DA:478,1
DA:481,1
DA:482,1
DA:483,1
DA:487,1
DA:489,1
DA:490,1
DA:491,1
DA:495,1
DA:497,1
DA:498,1
DA:499,1
DA:503,1
DA:506,1
DA:507,1
DA:510,1
DA:511,1
DA:512,0
DA:514,1
DA:518,1
DA:520,1
DA:521,1
DA:523,1
DA:526,1
DA:527,1
DA:528,1
DA:531,1
DA:532,1
DA:533,0
DA:535,1
DA:539,1
DA:540,1
DA:541,1
DA:542,1
DA:545,1
DA:546,3
DA:547,3
DA:548,1
DA:549,1
DA:550,1
DA:551,1
DA:555,1
DA:558,1
DA:559,1
DA:560,1
DA:562,1
DA:564,1
DA:566,1
DA:567,1
DA:568,1
DA:572,1
DA:573,1
DA:574,1
DA:575,1
DA:578,2
DA:579,2
DA:580,2
DA:582,1
DA:586,1
DA:589,1
DA:590,1
DA:594,1
DA:595,1
DA:596,1
DA:599,1
DA:600,1
DA:603,1
DA:604,1
DA:605,1
DA:606,1
DA:607,1
DA:611,1
DA:612,1
DA:613,1
DA:615,1
DA:616,1
DA:619,1
DA:620,1
DA:621,1
DA:622,1
DA:623,1
DA:624,1
DA:625,1
DA:626,1
DA:627,1
DA:628,1
DA:629,1
BRF:0
BRH:0
LF:417
LH:358
end_of_record
SF:/Users/hubertshelley/Documents/silent/silent/silent/src/core/request.rs
FN:208,_RNvMs0_NtNtCs9iG4RRqsTsR_6silent4core7requestNtB5_7Request10method_mutCs9aLyz1Wdihv_11integration
FN:160,_RNvMs0_NtNtCs9iG4RRqsTsR_6silent4core7requestNtB5_7Request10set_remoteCs9aLyz1Wdihv_11integration
FN:238,_RNvMs0_NtNtCs9iG4RRqsTsR_6silent4core7requestNtB5_7Request11headers_mutCs9aLyz1Wdihv_11integration
FN:233,_RNvMs0_NtNtCs9iG4RRqsTsR_6silent4core7requestNtB5_7Request7headersCs9aLyz1Wdihv_11integration
FN:218,_RNvMs0_NtNtCs9iG4RRqsTsR_6silent4core7requestNtB5_7Request7uri_mutCs9aLyz1Wdihv_11integration
FN:51,_RINvMNtNtCs9iG4RRqsTsR_6silent4core7requestNtB3_7Request14strip_to_hyperpEB7_
FN:432,_RINvMs0_NtNtCs9iG4RRqsTsR_6silent4core7requestNtB6_7Request10form_fieldpEBa_
FN:366,_RINvMs0_NtNtCs9iG4RRqsTsR_6silent4core7requestNtB6_7Request10form_parsepEBa_
FN:257,_RINvMs0_NtNtCs9iG4RRqsTsR_6silent4core7requestNtB6_7Request10get_configpEBa_
FN:494,_RINvMs0_NtNtCs9iG4RRqsTsR_6silent4core7requestNtB6_7Request10json_fieldpEBa_
FN:454,_RINvMs0_NtNtCs9iG4RRqsTsR_6silent4core7requestNtB6_7Request10json_parsepEBa_
FN:307,_RINvMs0_NtNtCs9iG4RRqsTsR_6silent4core7requestNtB6_7Request12params_parsepEBa_
FN:263,_RINvMs0_NtNtCs9iG4RRqsTsR_6silent4core7requestNtB6_7Request18get_config_uncheckpEBa_
FN:384,_RINvMs0_NtNtCs9iG4RRqsTsR_6silent4core7requestNtB6_7Request20multipart_form_parsepEBa_
FN:395,_RINvMs0_NtNtCs9iG4RRqsTsR_6silent4core7requestNtB6_7Request21urlencoded_form_parsepEBa_
FN:69,_RNCINvMNtNtCs9iG4RRqsTsR_6silent4core7requestNtB5_7Request14strip_to_hyperpE0B9_
FN:75,_RNCINvMNtNtCs9iG4RRqsTsR_6silent4core7requestNtB5_7Request14strip_to_hyperpEs_0B9_
FN:435,_RNCINvMs0_NtNtCs9iG4RRqsTsR_6silent4core7requestNtB8_7Request10form_fieldpE0Bc_
FN:369,_RNCINvMs0_NtNtCs9iG4RRqsTsR_6silent4core7requestNtB8_7Request10form_parsepE0Bc_
FN:497,_RNCINvMs0_NtNtCs9iG4RRqsTsR_6silent4core7requestNtB8_7Request10json_fieldpE0Bc_
FN:457,_RNCINvMs0_NtNtCs9iG4RRqsTsR_6silent4core7requestNtB8_7Request10json_parsepE0Bc_
FN:387,_RNCINvMs0_NtNtCs9iG4RRqsTsR_6silent4core7requestNtB8_7Request20multipart_form_parsepE0Bc_
FN:398,_RNCINvMs0_NtNtCs9iG4RRqsTsR_6silent4core7requestNtB8_7Request21urlencoded_form_parsepE0Bc_
FN:439,_RNCNCINvMs0_NtNtCs9iG4RRqsTsR_6silent4core7requestNtBa_7Request10form_fieldpE00Be_
FN:440,_RNCNCINvMs0_NtNtCs9iG4RRqsTsR_6silent4core7requestNtBa_7Request10form_fieldpE0s_0Be_
FN:94,_RNCNCNvMNtNtCs9iG4RRqsTsR_6silent4core7requestNtB6_7Request20strip_to_bytes_hyper00Ba_
FN:450,_RNCNCNvMs0_NtNtCs9iG4RRqsTsR_6silent4core7requestNtB9_7Request5files00Bd_
FN:355,_RNCNCNvMs0_NtNtCs9iG4RRqsTsR_6silent4core7requestNtB9_7Request9form_data00Bd_
FN:79,_RNCNvMNtNtCs9iG4RRqsTsR_6silent4core7requestNtB4_7Request20strip_to_bytes_hyper0B8_
FN:333,_RNCNvMs0_NtNtCs9iG4RRqsTsR_6silent4core7requestNtB7_7Request12content_type0Bb_
FN:334,_RNCNvMs0_NtNtCs9iG4RRqsTsR_6silent4core7requestNtB7_7Request12content_types_0Bb_
FN:446,_RNCNvMs0_NtNtCs9iG4RRqsTsR_6silent4core7requestNtB7_7Request5files0Bb_
FN:340,_RNCNvMs0_NtNtCs9iG4RRqsTsR_6silent4core7requestNtB7_7Request9form_data0Bb_
FN:208,_RNvMs0_NtNtCs9iG4RRqsTsR_6silent4core7requestNtB5_7Request10method_mutB9_
FN:228,_RNvMs0_NtNtCs9iG4RRqsTsR_6silent4core7requestNtB5_7Request11version_mutB9_
FN:330,_RNvMs0_NtNtCs9iG4RRqsTsR_6silent4core7requestNtB5_7Request12content_typeB9_
FN:318,_RNvMs0_NtNtCs9iG4RRqsTsR_6silent4core7requestNtB5_7Request12replace_bodyB9_
FN:516,_RNvMs0_NtNtCs9iG4RRqsTsR_6silent4core7requestNtB5_7Request15take_extensionsB9_
FN:510,_RNvMs0_NtNtCs9iG4RRqsTsR_6silent4core7requestNtB5_7Request18replace_extensionsB9_
FN:446,_RNvMs0_NtNtCs9iG4RRqsTsR_6silent4core7requestNtB5_7Request5filesB9_
FN:218,_RNvMs0_NtNtCs9iG4RRqsTsR_6silent4core7requestNtB5_7Request7uri_mutB9_
FN:340,_RNvMs0_NtNtCs9iG4RRqsTsR_6silent4core7requestNtB5_7Request9form_dataB9_
FN:324,_RNvMs0_NtNtCs9iG4RRqsTsR_6silent4core7requestNtB5_7Request9take_bodyB9_
FN:79,_RNvMNtNtCs9iG4RRqsTsR_6silent4core7requestNtB2_7Request20strip_to_bytes_hyper
FN:46,_RNvMNtNtCs9iG4RRqsTsR_6silent4core7requestNtB2_7Request9into_http
FN:243,_RNvMs0_NtNtCs9iG4RRqsTsR_6silent4core7requestNtB5_7Request10extensionsB9_
FN:132,_RNvMs0_NtNtCs9iG4RRqsTsR_6silent4core7requestNtB5_7Request10from_partsB9_
FN:160,_RNvMs0_NtNtCs9iG4RRqsTsR_6silent4core7requestNtB5_7Request10set_remoteB9_
FN:275,_RNvMs0_NtNtCs9iG4RRqsTsR_6silent4core7requestNtB5_7Request11configs_mutB9_
FN:238,_RNvMs0_NtNtCs9iG4RRqsTsR_6silent4core7requestNtB5_7Request11headers_mutB9_
FN:280,_RNvMs0_NtNtCs9iG4RRqsTsR_6silent4core7requestNtB5_7Request11path_params
FN:248,_RNvMs0_NtNtCs9iG4RRqsTsR_6silent4core7requestNtB5_7Request14extensions_mutB9_
FN:251,_RNvMs0_NtNtCs9iG4RRqsTsR_6silent4core7requestNtB5_7Request15set_path_params
FN:196,_RNvMs0_NtNtCs9iG4RRqsTsR_6silent4core7requestNtB5_7Request15set_path_source
FN:213,_RNvMs0_NtNtCs9iG4RRqsTsR_6silent4core7requestNtB5_7Request3uriB9_
FN:106,_RNvMs0_NtNtCs9iG4RRqsTsR_6silent4core7requestNtB5_7Request5empty
FN:202,_RNvMs0_NtNtCs9iG4RRqsTsR_6silent4core7requestNtB5_7Request6methodB9_
FN:296,_RNvMs0_NtNtCs9iG4RRqsTsR_6silent4core7requestNtB5_7Request6params
FN:145,_RNvMs0_NtNtCs9iG4RRqsTsR_6silent4core7requestNtB5_7Request6remoteB9_
FN:269,_RNvMs0_NtNtCs9iG4RRqsTsR_6silent4core7requestNtB5_7Request7configsB9_
FN:233,_RNvMs0_NtNtCs9iG4RRqsTsR_6silent4core7requestNtB5_7Request7headersB9_
FN:223,_RNvMs0_NtNtCs9iG4RRqsTsR_6silent4core7requestNtB5_7Request7versionB9_
FN:99,_RNvXs_NtNtCs9iG4RRqsTsR_6silent4core7requestNtB4_7RequestNtNtCsiMcf32LsBml_4core7default7Default7default
FN:285,_RINvMs0_NtNtCs9iG4RRqsTsR_6silent4core7requestNtB6_7Request15get_path_paramsNtNtCskxbBfrLNYPn_5alloc6string6StringEBa_
FN:179,_RNCNCNvMs0_NtNtCs9iG4RRqsTsR_6silent4core7requestNtB9_7Request10set_remotes1_00Bd_
FN:181,_RNCNCNvMs0_NtNtCs9iG4RRqsTsR_6silent4core7requestNtB9_7Request10set_remotes1_0s0_0Bd_
FN:180,_RNCNCNvMs0_NtNtCs9iG4RRqsTsR_6silent4core7requestNtB9_7Request10set_remotes1_0s_0Bd_
FN:165,_RNCNvMs0_NtNtCs9iG4RRqsTsR_6silent4core7requestNtB7_7Request10set_remote0Bb_
FN:176,_RNCNvMs0_NtNtCs9iG4RRqsTsR_6silent4core7requestNtB7_7Request10set_remotes0_0Bb_
FN:177,_RNCNvMs0_NtNtCs9iG4RRqsTsR_6silent4core7requestNtB7_7Request10set_remotes1_0Bb_
FN:166,_RNCNvMs0_NtNtCs9iG4RRqsTsR_6silent4core7requestNtB7_7Request10set_remotes_0Bb_
FN:148,_RNCNvMs0_NtNtCs9iG4RRqsTsR_6silent4core7requestNtB7_7Request6remote0Bb_
FN:149,_RNCNvMs0_NtNtCs9iG4RRqsTsR_6silent4core7requestNtB7_7Request6remotes_0Bb_
FN:366,_RINvMs0_NtNtCs7wZ7Ymcehhq_6silent4core7requestNtB6_7Request10form_parseNtNCNvNtB6_5testss_27test_shared_cache_mechanism08TestDataEBa_
FN:366,_RINvMs0_NtNtCs7wZ7Ymcehhq_6silent4core7requestNtB6_7Request10form_parseNtNCNvNtB6_5testss_32test_methods_semantic_separation08TestDataEBa_
FN:366,_RINvMs0_NtNtCs7wZ7Ymcehhq_6silent4core7requestNtB6_7Request10form_parseNtNCNvNtB6_5testss_46test_form_urlencoded_caches_to_form_body_cache08TestDataEBa_
FN:366,_RINvMs0_NtNtCs7wZ7Ymcehhq_6silent4core7requestNtB6_7Request10form_parseNtNCNvNtNtBa_9extractor5testss_30test_json_and_form_error_cases08FormDataEBa_
FN:366,_RINvMs0_NtNtCs7wZ7Ymcehhq_6silent4core7requestNtB6_7Request10form_parseNtNCNvNtNtBa_9extractor5testss_56test_form_and_typed_header_and_method_uri_version_remote01UEBa_
FN:257,_RINvMs0_NtNtCs7wZ7Ymcehhq_6silent4core7requestNtB6_7Request10get_configNtNCNvNtNtBa_9extractor5testss_25test_deeply_nested_tuples011ConfigsDataEBa_
FN:257,_RINvMs0_NtNtCs7wZ7Ymcehhq_6silent4core7requestNtB6_7Request10get_configNtNCNvNtNtBa_9extractor5testss_42test_configs_and_extension_and_request_ext07CfgDataEBa_
FN:454,_RINvMs0_NtNtCs7wZ7Ymcehhq_6silent4core7requestNtB6_7Request10json_parseNtNCNvNtB6_5testss_32test_methods_semantic_separation08TestDataEBa_
FN:454,_RINvMs0_NtNtCs7wZ7Ymcehhq_6silent4core7requestNtB6_7Request10json_parseNtNCNvNtNtBa_9extractor5testss_27test_complex_struct_parsing011ComplexDataEBa_
FN:454,_RINvMs0_NtNtCs7wZ7Ymcehhq_6silent4core7requestNtB6_7Request10json_parseNtNCNvNtNtBa_9extractor5testss_28test_query_and_json_and_form01UEBa_
FN:454,_RINvMs0_NtNtCs7wZ7Ymcehhq_6silent4core7requestNtB6_7Request10json_parseNtNCNvNtNtBa_9extractor5testss_36test_tuple_triple_quad_and_result_ok01UEBa_
FN:454,_RINvMs0_NtNtCs7wZ7Ymcehhq_6silent4core7requestNtB6_7Request10json_parseNtNtCslJa0pizjxGe_10serde_json5value5ValueEBa_
FN:307,_RINvMs0_NtNtCs7wZ7Ymcehhq_6silent4core7requestNtB6_7Request12params_parseNtNCNvNtNtBa_9extractor5testss_25test_deeply_nested_tuples01QEBa_
FN:307,_RINvMs0_NtNtCs7wZ7Ymcehhq_6silent4core7requestNtB6_7Request12params_parseNtNCNvNtNtBa_9extractor5testss_27test_query_param_edge_cases013SpecialParamsEBa_
FN:307,_RINvMs0_NtNtCs7wZ7Ymcehhq_6silent4core7requestNtB6_7Request12params_parseNtNCNvNtNtBa_9extractor5testss_27test_query_param_edge_cases09EnumParamEBa_
FN:307,_RINvMs0_NtNtCs7wZ7Ymcehhq_6silent4core7requestNtB6_7Request12params_parseNtNCNvNtNtBa_9extractor5testss_32test_option_extractor_variations014OptionalParamsEBa_
FN:307,_RINvMs0_NtNtCs7wZ7Ymcehhq_6silent4core7requestNtB6_7Request12params_parseNtNCNvNtNtBa_9extractor5testss_36test_tuple_triple_quad_and_result_ok01QEBa_
FN:307,_RINvMs0_NtNtCs7wZ7Ymcehhq_6silent4core7requestNtB6_7Request12params_parseNtNtB6_5tests10TestStructEBa_
FN:307,_RINvMs0_NtNtCs7wZ7Ymcehhq_6silent4core7requestNtB6_7Request12params_parseNtNtNtBa_9extractor5tests4PageEBa_
FN:285,_RINvMs0_NtNtCs7wZ7Ymcehhq_6silent4core7requestNtB6_7Request15get_path_paramsNtCs4X3qLxTmIcq_4uuid4UuidEBa_
FN:285,_RINvMs0_NtNtCs7wZ7Ymcehhq_6silent4core7requestNtB6_7Request15get_path_paramsNtNtCskxbBfrLNYPn_5alloc6string6StringEBa_
FN:285,_RINvMs0_NtNtCs7wZ7Ymcehhq_6silent4core7requestNtB6_7Request15get_path_paramslEBa_
FN:263,_RINvMs0_NtNtCs7wZ7Ymcehhq_6silent4core7requestNtB6_7Request18get_config_uncheckReEBa_
FN:263,_RINvMs0_NtNtCs7wZ7Ymcehhq_6silent4core7requestNtB6_7Request18get_config_unchecklEBa_
FN:384,_RINvMs0_NtNtCs7wZ7Ymcehhq_6silent4core7requestNtB6_7Request20multipart_form_parseNtNCNvNtB6_5testss_27test_shared_cache_mechanism08TestDataEBa_
FN:384,_RINvMs0_NtNtCs7wZ7Ymcehhq_6silent4core7requestNtB6_7Request20multipart_form_parseNtNCNvNtB6_5testss_32test_methods_semantic_separation08TestDataEBa_
FN:384,_RINvMs0_NtNtCs7wZ7Ymcehhq_6silent4core7requestNtB6_7Request20multipart_form_parseNtNCNvNtB6_5testss_46test_form_urlencoded_caches_to_form_body_cache08TestDataEBa_
FN:384,_RINvMs0_NtNtCs7wZ7Ymcehhq_6silent4core7requestNtB6_7Request20multipart_form_parseNtNCNvNtNtBa_9extractor5testss_30test_json_and_form_error_cases08FormDataEBa_
FN:384,_RINvMs0_NtNtCs7wZ7Ymcehhq_6silent4core7requestNtB6_7Request20multipart_form_parseNtNCNvNtNtBa_9extractor5testss_56test_form_and_typed_header_and_method_uri_version_remote01UEBa_
FN:395,_RINvMs0_NtNtCs7wZ7Ymcehhq_6silent4core7requestNtB6_7Request21urlencoded_form_parseNtNCNvNtB6_5testss_27test_shared_cache_mechanism08TestDataEBa_
FN:395,_RINvMs0_NtNtCs7wZ7Ymcehhq_6silent4core7requestNtB6_7Request21urlencoded_form_parseNtNCNvNtB6_5testss_32test_methods_semantic_separation08TestDataEBa_
FN:395,_RINvMs0_NtNtCs7wZ7Ymcehhq_6silent4core7requestNtB6_7Request21urlencoded_form_parseNtNCNvNtB6_5testss_46test_form_urlencoded_caches_to_form_body_cache08TestDataEBa_
FN:395,_RINvMs0_NtNtCs7wZ7Ymcehhq_6silent4core7requestNtB6_7Request21urlencoded_form_parseNtNCNvNtNtBa_9extractor5testss_30test_json_and_form_error_cases08FormDataEBa_
FN:395,_RINvMs0_NtNtCs7wZ7Ymcehhq_6silent4core7requestNtB6_7Request21urlencoded_form_parseNtNCNvNtNtBa_9extractor5testss_56test_form_and_typed_header_and_method_uri_version_remote01UEBa_
FN:369,_RNCINvMs0_NtNtCs7wZ7Ymcehhq_6silent4core7requestNtB8_7Request10form_parseNtNCNvNtB8_5testss_27test_shared_cache_mechanism08TestDataE0Bc_
FN:369,_RNCINvMs0_NtNtCs7wZ7Ymcehhq_6silent4core7requestNtB8_7Request10form_parseNtNCNvNtB8_5testss_32test_methods_semantic_separation08TestDataE0Bc_
FN:369,_RNCINvMs0_NtNtCs7wZ7Ymcehhq_6silent4core7requestNtB8_7Request10form_parseNtNCNvNtB8_5testss_46test_form_urlencoded_caches_to_form_body_cache08TestDataE0Bc_
FN:369,_RNCINvMs0_NtNtCs7wZ7Ymcehhq_6silent4core7requestNtB8_7Request10form_parseNtNCNvNtNtBc_9extractor5testss_30test_json_and_form_error_cases08FormDataE0Bc_
FN:369,_RNCINvMs0_NtNtCs7wZ7Ymcehhq_6silent4core7requestNtB8_7Request10form_parseNtNCNvNtNtBc_9extractor5testss_56test_form_and_typed_header_and_method_uri_version_remote01UE0Bc_
FN:457,_RNCINvMs0_NtNtCs7wZ7Ymcehhq_6silent4core7requestNtB8_7Request10json_parseNtNCNvNtB8_5testss_32test_methods_semantic_separation08TestDataE0Bc_
FN:457,_RNCINvMs0_NtNtCs7wZ7Ymcehhq_6silent4core7requestNtB8_7Request10json_parseNtNCNvNtNtBc_9extractor5testss_27test_complex_struct_parsing011ComplexDataE0Bc_
FN:457,_RNCINvMs0_NtNtCs7wZ7Ymcehhq_6silent4core7requestNtB8_7Request10json_parseNtNCNvNtNtBc_9extractor5testss_28test_query_and_json_and_form01UE0Bc_
FN:457,_RNCINvMs0_NtNtCs7wZ7Ymcehhq_6silent4core7requestNtB8_7Request10json_parseNtNCNvNtNtBc_9extractor5testss_36test_tuple_triple_quad_and_result_ok01UE0Bc_
FN:457,_RNCINvMs0_NtNtCs7wZ7Ymcehhq_6silent4core7requestNtB8_7Request10json_parseNtNtCslJa0pizjxGe_10serde_json5value5ValueE0Bc_
FN:387,_RNCINvMs0_NtNtCs7wZ7Ymcehhq_6silent4core7requestNtB8_7Request20multipart_form_parseNtNCNvNtB8_5testss_27test_shared_cache_mechanism08TestDataE0Bc_
FN:387,_RNCINvMs0_NtNtCs7wZ7Ymcehhq_6silent4core7requestNtB8_7Request20multipart_form_parseNtNCNvNtB8_5testss_32test_methods_semantic_separation08TestDataE0Bc_
FN:387,_RNCINvMs0_NtNtCs7wZ7Ymcehhq_6silent4core7requestNtB8_7Request20multipart_form_parseNtNCNvNtB8_5testss_46test_form_urlencoded_caches_to_form_body_cache08TestDataE0Bc_
FN:387,_RNCINvMs0_NtNtCs7wZ7Ymcehhq_6silent4core7requestNtB8_7Request20multipart_form_parseNtNCNvNtNtBc_9extractor5testss_30test_json_and_form_error_cases08FormDataE0Bc_
FN:387,_RNCINvMs0_NtNtCs7wZ7Ymcehhq_6silent4core7requestNtB8_7Request20multipart_form_parseNtNCNvNtNtBc_9extractor5testss_56test_form_and_typed_header_and_method_uri_version_remote01UE0Bc_
FN:398,_RNCINvMs0_NtNtCs7wZ7Ymcehhq_6silent4core7requestNtB8_7Request21urlencoded_form_parseNtNCNvNtB8_5testss_27test_shared_cache_mechanism08TestDataE0Bc_
FN:398,_RNCINvMs0_NtNtCs7wZ7Ymcehhq_6silent4core7requestNtB8_7Request21urlencoded_form_parseNtNCNvNtB8_5testss_32test_methods_semantic_separation08TestDataE0Bc_
FN:398,_RNCINvMs0_NtNtCs7wZ7Ymcehhq_6silent4core7requestNtB8_7Request21urlencoded_form_parseNtNCNvNtB8_5testss_46test_form_urlencoded_caches_to_form_body_cache08TestDataE0Bc_
FN:398,_RNCINvMs0_NtNtCs7wZ7Ymcehhq_6silent4core7requestNtB8_7Request21urlencoded_form_parseNtNCNvNtNtBc_9extractor5testss_30test_json_and_form_error_cases08FormDataE0Bc_
FN:398,_RNCINvMs0_NtNtCs7wZ7Ymcehhq_6silent4core7requestNtB8_7Request21urlencoded_form_parseNtNCNvNtNtBc_9extractor5testss_56test_form_and_typed_header_and_method_uri_version_remote01UE0Bc_
FN:179,_RNCNCNvMs0_NtNtCs7wZ7Ymcehhq_6silent4core7requestNtB9_7Request10set_remotes1_00Bd_
FN:181,_RNCNCNvMs0_NtNtCs7wZ7Ymcehhq_6silent4core7requestNtB9_7Request10set_remotes1_0s0_0Bd_
FN:180,_RNCNCNvMs0_NtNtCs7wZ7Ymcehhq_6silent4core7requestNtB9_7Request10set_remotes1_0s_0Bd_
FN:355,_RNCNCNvMs0_NtNtCs7wZ7Ymcehhq_6silent4core7requestNtB9_7Request9form_data00Bd_
FN:165,_RNCNvMs0_NtNtCs7wZ7Ymcehhq_6silent4core7requestNtB7_7Request10set_remote0Bb_
FN:176,_RNCNvMs0_NtNtCs7wZ7Ymcehhq_6silent4core7requestNtB7_7Request10set_remotes0_0Bb_
FN:177,_RNCNvMs0_NtNtCs7wZ7Ymcehhq_6silent4core7requestNtB7_7Request10set_remotes1_0Bb_
FN:166,_RNCNvMs0_NtNtCs7wZ7Ymcehhq_6silent4core7requestNtB7_7Request10set_remotes_0Bb_
FN:333,_RNCNvMs0_NtNtCs7wZ7Ymcehhq_6silent4core7requestNtB7_7Request12content_type0Bb_
FN:334,_RNCNvMs0_NtNtCs7wZ7Ymcehhq_6silent4core7requestNtB7_7Request12content_types_0Bb_
FN:148,_RNCNvMs0_NtNtCs7wZ7Ymcehhq_6silent4core7requestNtB7_7Request6remote0Bb_
FN:149,_RNCNvMs0_NtNtCs7wZ7Ymcehhq_6silent4core7requestNtB7_7Request6remotes_0Bb_
FN:340,_RNCNvMs0_NtNtCs7wZ7Ymcehhq_6silent4core7requestNtB7_7Request9form_data0Bb_
FN:51,_RINvMNtNtCs7wZ7Ymcehhq_6silent4core7requestNtB3_7Request14strip_to_hyperpEB7_
FN:432,_RINvMs0_NtNtCs7wZ7Ymcehhq_6silent4core7requestNtB6_7Request10form_fieldpEBa_
FN:494,_RINvMs0_NtNtCs7wZ7Ymcehhq_6silent4core7requestNtB6_7Request10json_fieldpEBa_
FN:69,_RNCINvMNtNtCs7wZ7Ymcehhq_6silent4core7requestNtB5_7Request14strip_to_hyperpE0B9_
FN:75,_RNCINvMNtNtCs7wZ7Ymcehhq_6silent4core7requestNtB5_7Request14strip_to_hyperpEs_0B9_
FN:435,_RNCINvMs0_NtNtCs7wZ7Ymcehhq_6silent4core7requestNtB8_7Request10form_fieldpE0Bc_
FN:497,_RNCINvMs0_NtNtCs7wZ7Ymcehhq_6silent4core7requestNtB8_7Request10json_fieldpE0Bc_
FN:439,_RNCNCINvMs0_NtNtCs7wZ7Ymcehhq_6silent4core7requestNtBa_7Request10form_fieldpE00Be_
FN:440,_RNCNCINvMs0_NtNtCs7wZ7Ymcehhq_6silent4core7requestNtBa_7Request10form_fieldpE0s_0Be_
FN:94,_RNCNCNvMNtNtCs7wZ7Ymcehhq_6silent4core7requestNtB6_7Request20strip_to_bytes_hyper00Ba_
FN:450,_RNCNCNvMs0_NtNtCs7wZ7Ymcehhq_6silent4core7requestNtB9_7Request5files00Bd_
FN:79,_RNCNvMNtNtCs7wZ7Ymcehhq_6silent4core7requestNtB4_7Request20strip_to_bytes_hyper0B8_
FN:446,_RNCNvMs0_NtNtCs7wZ7Ymcehhq_6silent4core7requestNtB7_7Request5files0Bb_
FN:79,_RNvMNtNtCs7wZ7Ymcehhq_6silent4core7requestNtB2_7Request20strip_to_bytes_hyper
FN:446,_RNvMs0_NtNtCs7wZ7Ymcehhq_6silent4core7requestNtB5_7Request5filesB9_
FN:986,_RNCNvNtNtNtCs7wZ7Ymcehhq_6silent4core7request5testss_27test_shared_cache_mechanism0B9_
FN:888,_RNCNvNtNtNtCs7wZ7Ymcehhq_6silent4core7request5testss_32test_methods_semantic_separation0B9_
FN:943,_RNCNvNtNtNtCs7wZ7Ymcehhq_6silent4core7request5testss_46test_form_urlencoded_caches_to_form_body_cache0B9_
FN:1021,_RNvNtNtNtCs7wZ7Ymcehhq_6silent4core7request5tests24create_request_with_body
FN:644,_RNvNtNtNtCs7wZ7Ymcehhq_6silent4core7request5testss_12test_uri_get
FN:650,_RNvNtNtNtCs7wZ7Ymcehhq_6silent4core7request5testss_12test_uri_mut
FN:829,_RNvNtNtNtCs7wZ7Ymcehhq_6silent4core7request5testss_14test_into_http
FN:789,_RNvNtNtNtCs7wZ7Ymcehhq_6silent4core7request5testss_14test_take_body
FN:629,_RNvNtNtNtCs7wZ7Ymcehhq_6silent4core7request5testss_15test_method_get
FN:635,_RNvNtNtNtCs7wZ7Ymcehhq_6silent4core7request5testss_15test_method_mut
FN:769,_RNvNtNtNtCs7wZ7Ymcehhq_6silent4core7request5testss_15test_params_get
FN:716,_RNvNtNtNtCs7wZ7Ymcehhq_6silent4core7request5testss_16test_configs_get
FN:732,_RNvNtNtNtCs7wZ7Ymcehhq_6silent4core7request5testss_16test_configs_mut
FN:674,_RNvNtNtNtCs7wZ7Ymcehhq_6silent4core7request5testss_16test_headers_get
FN:686,_RNvNtNtNtCs7wZ7Ymcehhq_6silent4core7request5testss_16test_headers_mut
FN:880,_RNvNtNtNtCs7wZ7Ymcehhq_6silent4core7request5testss_16test_query_parse
FN:659,_RNvNtNtNtCs7wZ7Ymcehhq_6silent4core7request5testss_16test_version_get
FN:665,_RNvNtNtNtCs7wZ7Ymcehhq_6silent4core7request5testss_16test_version_mut
FN:780,_RNvNtNtNtCs7wZ7Ymcehhq_6silent4core7request5testss_17test_replace_body
FN:530,_RNvNtNtNtCs7wZ7Ymcehhq_6silent4core7request5testss_18test_request_empty
FN:700,_RNvNtNtNtCs7wZ7Ymcehhq_6silent4core7request5testss_19test_extensions_get
FN:707,_RNvNtNtNtCs7wZ7Ymcehhq_6silent4core7request5testss_19test_extensions_mut
FN:540,_RNvNtNtNtCs7wZ7Ymcehhq_6silent4core7request5testss_20test_request_default
FN:853,_RNvNtNtNtCs7wZ7Ymcehhq_6silent4core7request5testss_20test_take_extensions
FN:800,_RNvNtNtNtCs7wZ7Ymcehhq_6silent4core7request5testss_22test_content_type_json
FN:742,_RNvNtNtNtCs7wZ7Ymcehhq_6silent4core7request5testss_22test_path_params_empty
FN:873,_RNvNtNtNtCs7wZ7Ymcehhq_6silent4core7request5testss_22test_query_parse_alias
FN:840,_RNvNtNtNtCs7wZ7Ymcehhq_6silent4core7request5testss_23test_replace_extensions
FN:546,_RNvNtNtNtCs7wZ7Ymcehhq_6silent4core7request5testss_23test_request_from_parts
FN:724,_RNvNtNtNtCs7wZ7Ymcehhq_6silent4core7request5testss_24test_configs_get_uncheck
FN:817,_RNvNtNtNtCs7wZ7Ymcehhq_6silent4core7request5testss_25test_content_type_invalid
FN:811,_RNvNtNtNtCs7wZ7Ymcehhq_6silent4core7request5testss_25test_content_type_missing
FN:562,_RNvNtNtNtCs7wZ7Ymcehhq_6silent4core7request5testss_26test_remote_with_x_real_ip
FN:986,_RNvNtNtNtCs7wZ7Ymcehhq_6silent4core7request5testss_27test_shared_cache_mechanism
FN:760,_RNvNtNtNtCs7wZ7Ymcehhq_6silent4core7request5testss_28test_get_path_params_missing
FN:748,_RNvNtNtNtCs7wZ7Ymcehhq_6silent4core7request5testss_28test_get_path_params_success
FN:612,_RNvNtNtNtCs7wZ7Ymcehhq_6silent4core7request5testss_31test_set_remote_without_headers
FN:888,_RNvNtNtNtCs7wZ7Ymcehhq_6silent4core7request5testss_32test_methods_semantic_separation
FN:591,_RNvNtNtNtCs7wZ7Ymcehhq_6silent4core7request5testss_36test_set_remote_with_x_forwarded_for
FN:572,_RNvNtNtNtCs7wZ7Ymcehhq_6silent4core7request5testss_39test_set_remote_with_existing_x_real_ip
FN:943,_RNvNtNtNtCs7wZ7Ymcehhq_6silent4core7request5testss_46test_form_urlencoded_caches_to_form_body_cache
FN:46,_RNvMNtNtCs7wZ7Ymcehhq_6silent4core7requestNtB2_7Request9into_http
FN:243,_RNvMs0_NtNtCs7wZ7Ymcehhq_6silent4core7requestNtB5_7Request10extensionsB9_
FN:132,_RNvMs0_NtNtCs7wZ7Ymcehhq_6silent4core7requestNtB5_7Request10from_partsB9_
FN:208,_RNvMs0_NtNtCs7wZ7Ymcehhq_6silent4core7requestNtB5_7Request10method_mutB9_
FN:160,_RNvMs0_NtNtCs7wZ7Ymcehhq_6silent4core7requestNtB5_7Request10set_remoteB9_
FN:275,_RNvMs0_NtNtCs7wZ7Ymcehhq_6silent4core7requestNtB5_7Request11configs_mutB9_
FN:238,_RNvMs0_NtNtCs7wZ7Ymcehhq_6silent4core7requestNtB5_7Request11headers_mutB9_
FN:280,_RNvMs0_NtNtCs7wZ7Ymcehhq_6silent4core7requestNtB5_7Request11path_params
FN:228,_RNvMs0_NtNtCs7wZ7Ymcehhq_6silent4core7requestNtB5_7Request11version_mutB9_
FN:330,_RNvMs0_NtNtCs7wZ7Ymcehhq_6silent4core7requestNtB5_7Request12content_typeB9_
FN:318,_RNvMs0_NtNtCs7wZ7Ymcehhq_6silent4core7requestNtB5_7Request12replace_bodyB9_
FN:248,_RNvMs0_NtNtCs7wZ7Ymcehhq_6silent4core7requestNtB5_7Request14extensions_mutB9_
FN:251,_RNvMs0_NtNtCs7wZ7Ymcehhq_6silent4core7requestNtB5_7Request15set_path_params
FN:196,_RNvMs0_NtNtCs7wZ7Ymcehhq_6silent4core7requestNtB5_7Request15set_path_source
FN:516,_RNvMs0_NtNtCs7wZ7Ymcehhq_6silent4core7requestNtB5_7Request15take_extensionsB9_
FN:510,_RNvMs0_NtNtCs7wZ7Ymcehhq_6silent4core7requestNtB5_7Request18replace_extensionsB9_
FN:213,_RNvMs0_NtNtCs7wZ7Ymcehhq_6silent4core7requestNtB5_7Request3uriB9_
FN:106,_RNvMs0_NtNtCs7wZ7Ymcehhq_6silent4core7requestNtB5_7Request5empty
FN:202,_RNvMs0_NtNtCs7wZ7Ymcehhq_6silent4core7requestNtB5_7Request6methodB9_
FN:296,_RNvMs0_NtNtCs7wZ7Ymcehhq_6silent4core7requestNtB5_7Request6params
FN:145,_RNvMs0_NtNtCs7wZ7Ymcehhq_6silent4core7requestNtB5_7Request6remoteB9_
FN:269,_RNvMs0_NtNtCs7wZ7Ymcehhq_6silent4core7requestNtB5_7Request7configsB9_
FN:233,_RNvMs0_NtNtCs7wZ7Ymcehhq_6silent4core7requestNtB5_7Request7headersB9_
FN:218,_RNvMs0_NtNtCs7wZ7Ymcehhq_6silent4core7requestNtB5_7Request7uri_mutB9_
FN:223,_RNvMs0_NtNtCs7wZ7Ymcehhq_6silent4core7requestNtB5_7Request7versionB9_
FN:340,_RNvMs0_NtNtCs7wZ7Ymcehhq_6silent4core7requestNtB5_7Request9form_dataB9_
FN:324,_RNvMs0_NtNtCs7wZ7Ymcehhq_6silent4core7requestNtB5_7Request9take_bodyB9_
FN:99,_RNvXs_NtNtCs7wZ7Ymcehhq_6silent4core7requestNtB4_7RequestNtNtCsiMcf32LsBml_4core7default7Default7default
FNDA:1,_RNvMs0_NtNtCs9iG4RRqsTsR_6silent4core7requestNtB5_7Request10method_mutCs9aLyz1Wdihv_11integration
FNDA:1,_RNvMs0_NtNtCs9iG4RRqsTsR_6silent4core7requestNtB5_7Request10set_remoteCs9aLyz1Wdihv_11integration
FNDA:1,_RNvMs0_NtNtCs9iG4RRqsTsR_6silent4core7requestNtB5_7Request11headers_mutCs9aLyz1Wdihv_11integration
FNDA:2,_RNvMs0_NtNtCs9iG4RRqsTsR_6silent4core7requestNtB5_7Request7headersCs9aLyz1Wdihv_11integration
FNDA:1,_RNvMs0_NtNtCs9iG4RRqsTsR_6silent4core7requestNtB5_7Request7uri_mutCs9aLyz1Wdihv_11integration
FNDA:0,_RINvMNtNtCs9iG4RRqsTsR_6silent4core7requestNtB3_7Request14strip_to_hyperpEB7_
FNDA:0,_RINvMs0_NtNtCs9iG4RRqsTsR_6silent4core7requestNtB6_7Request10form_fieldpEBa_
FNDA:0,_RINvMs0_NtNtCs9iG4RRqsTsR_6silent4core7requestNtB6_7Request10form_parsepEBa_
FNDA:0,_RINvMs0_NtNtCs9iG4RRqsTsR_6silent4core7requestNtB6_7Request10get_configpEBa_
FNDA:0,_RINvMs0_NtNtCs9iG4RRqsTsR_6silent4core7requestNtB6_7Request10json_fieldpEBa_
FNDA:0,_RINvMs0_NtNtCs9iG4RRqsTsR_6silent4core7requestNtB6_7Request10json_parsepEBa_
FNDA:0,_RINvMs0_NtNtCs9iG4RRqsTsR_6silent4core7requestNtB6_7Request12params_parsepEBa_
FNDA:0,_RINvMs0_NtNtCs9iG4RRqsTsR_6silent4core7requestNtB6_7Request18get_config_uncheckpEBa_
FNDA:0,_RINvMs0_NtNtCs9iG4RRqsTsR_6silent4core7requestNtB6_7Request20multipart_form_parsepEBa_
FNDA:0,_RINvMs0_NtNtCs9iG4RRqsTsR_6silent4core7requestNtB6_7Request21urlencoded_form_parsepEBa_
FNDA:0,_RNCINvMNtNtCs9iG4RRqsTsR_6silent4core7requestNtB5_7Request14strip_to_hyperpE0B9_
FNDA:0,_RNCINvMNtNtCs9iG4RRqsTsR_6silent4core7requestNtB5_7Request14strip_to_hyperpEs_0B9_
FNDA:0,_RNCINvMs0_NtNtCs9iG4RRqsTsR_6silent4core7requestNtB8_7Request10form_fieldpE0Bc_
FNDA:0,_RNCINvMs0_NtNtCs9iG4RRqsTsR_6silent4core7requestNtB8_7Request10form_parsepE0Bc_
FNDA:0,_RNCINvMs0_NtNtCs9iG4RRqsTsR_6silent4core7requestNtB8_7Request10json_fieldpE0Bc_
FNDA:0,_RNCINvMs0_NtNtCs9iG4RRqsTsR_6silent4core7requestNtB8_7Request10json_parsepE0Bc_
FNDA:0,_RNCINvMs0_NtNtCs9iG4RRqsTsR_6silent4core7requestNtB8_7Request20multipart_form_parsepE0Bc_
FNDA:0,_RNCINvMs0_NtNtCs9iG4RRqsTsR_6silent4core7requestNtB8_7Request21urlencoded_form_parsepE0Bc_
FNDA:0,_RNCNCINvMs0_NtNtCs9iG4RRqsTsR_6silent4core7requestNtBa_7Request10form_fieldpE00Be_
FNDA:0,_RNCNCINvMs0_NtNtCs9iG4RRqsTsR_6silent4core7requestNtBa_7Request10form_fieldpE0s_0Be_
FNDA:0,_RNCNCNvMNtNtCs9iG4RRqsTsR_6silent4core7requestNtB6_7Request20strip_to_bytes_hyper00Ba_
FNDA:0,_RNCNCNvMs0_NtNtCs9iG4RRqsTsR_6silent4core7requestNtB9_7Request5files00Bd_
FNDA:0,_RNCNCNvMs0_NtNtCs9iG4RRqsTsR_6silent4core7requestNtB9_7Request9form_data00Bd_
FNDA:0,_RNCNvMNtNtCs9iG4RRqsTsR_6silent4core7requestNtB4_7Request20strip_to_bytes_hyper0B8_
FNDA:0,_RNCNvMs0_NtNtCs9iG4RRqsTsR_6silent4core7requestNtB7_7Request12content_type0Bb_
FNDA:0,_RNCNvMs0_NtNtCs9iG4RRqsTsR_6silent4core7requestNtB7_7Request12content_types_0Bb_
FNDA:0,_RNCNvMs0_NtNtCs9iG4RRqsTsR_6silent4core7requestNtB7_7Request5files0Bb_
FNDA:0,_RNCNvMs0_NtNtCs9iG4RRqsTsR_6silent4core7requestNtB7_7Request9form_data0Bb_
FNDA:0,_RNvMs0_NtNtCs9iG4RRqsTsR_6silent4core7requestNtB5_7Request10method_mutB9_
FNDA:0,_RNvMs0_NtNtCs9iG4RRqsTsR_6silent4core7requestNtB5_7Request11version_mutB9_
FNDA:0,_RNvMs0_NtNtCs9iG4RRqsTsR_6silent4core7requestNtB5_7Request12content_typeB9_
FNDA:0,_RNvMs0_NtNtCs9iG4RRqsTsR_6silent4core7requestNtB5_7Request12replace_bodyB9_
FNDA:0,_RNvMs0_NtNtCs9iG4RRqsTsR_6silent4core7requestNtB5_7Request15take_extensionsB9_
FNDA:0,_RNvMs0_NtNtCs9iG4RRqsTsR_6silent4core7requestNtB5_7Request18replace_extensionsB9_
FNDA:0,_RNvMs0_NtNtCs9iG4RRqsTsR_6silent4core7requestNtB5_7Request5filesB9_
FNDA:0,_RNvMs0_NtNtCs9iG4RRqsTsR_6silent4core7requestNtB5_7Request7uri_mutB9_
FNDA:0,_RNvMs0_NtNtCs9iG4RRqsTsR_6silent4core7requestNtB5_7Request9form_dataB9_
FNDA:0,_RNvMs0_NtNtCs9iG4RRqsTsR_6silent4core7requestNtB5_7Request9take_bodyB9_
FNDA:0,_RNvMNtNtCs9iG4RRqsTsR_6silent4core7requestNtB2_7Request20strip_to_bytes_hyper
FNDA:0,_RNvMNtNtCs9iG4RRqsTsR_6silent4core7requestNtB2_7Request9into_http
FNDA:0,_RNvMs0_NtNtCs9iG4RRqsTsR_6silent4core7requestNtB5_7Request10extensionsB9_
FNDA:0,_RNvMs0_NtNtCs9iG4RRqsTsR_6silent4core7requestNtB5_7Request10from_partsB9_
FNDA:0,_RNvMs0_NtNtCs9iG4RRqsTsR_6silent4core7requestNtB5_7Request10set_remoteB9_
FNDA:3,_RNvMs0_NtNtCs9iG4RRqsTsR_6silent4core7requestNtB5_7Request11configs_mutB9_
FNDA:0,_RNvMs0_NtNtCs9iG4RRqsTsR_6silent4core7requestNtB5_7Request11headers_mutB9_
FNDA:0,_RNvMs0_NtNtCs9iG4RRqsTsR_6silent4core7requestNtB5_7Request11path_params
FNDA:0,_RNvMs0_NtNtCs9iG4RRqsTsR_6silent4core7requestNtB5_7Request14extensions_mutB9_
FNDA:0,_RNvMs0_NtNtCs9iG4RRqsTsR_6silent4core7requestNtB5_7Request15set_path_params
FNDA:1,_RNvMs0_NtNtCs9iG4RRqsTsR_6silent4core7requestNtB5_7Request15set_path_source
FNDA:1,_RNvMs0_NtNtCs9iG4RRqsTsR_6silent4core7requestNtB5_7Request3uriB9_
FNDA:1,_RNvMs0_NtNtCs9iG4RRqsTsR_6silent4core7requestNtB5_7Request5empty
FNDA:1,_RNvMs0_NtNtCs9iG4RRqsTsR_6silent4core7requestNtB5_7Request6methodB9_
FNDA:0,_RNvMs0_NtNtCs9iG4RRqsTsR_6silent4core7requestNtB5_7Request6params
FNDA:0,_RNvMs0_NtNtCs9iG4RRqsTsR_6silent4core7requestNtB5_7Request6remoteB9_
FNDA:1,_RNvMs0_NtNtCs9iG4RRqsTsR_6silent4core7requestNtB5_7Request7configsB9_
FNDA:0,_RNvMs0_NtNtCs9iG4RRqsTsR_6silent4core7requestNtB5_7Request7headersB9_
FNDA:0,_RNvMs0_NtNtCs9iG4RRqsTsR_6silent4core7requestNtB5_7Request7versionB9_
FNDA:0,_RNvXs_NtNtCs9iG4RRqsTsR_6silent4core7requestNtB4_7RequestNtNtCsiMcf32LsBml_4core7default7Default7default
FNDA:0,_RINvMs0_NtNtCs9iG4RRqsTsR_6silent4core7requestNtB6_7Request15get_path_paramsNtNtCskxbBfrLNYPn_5alloc6string6StringEBa_
FNDA:0,_RNCNCNvMs0_NtNtCs9iG4RRqsTsR_6silent4core7requestNtB9_7Request10set_remotes1_00Bd_
FNDA:0,_RNCNCNvMs0_NtNtCs9iG4RRqsTsR_6silent4core7requestNtB9_7Request10set_remotes1_0s0_0Bd_
FNDA:0,_RNCNCNvMs0_NtNtCs9iG4RRqsTsR_6silent4core7requestNtB9_7Request10set_remotes1_0s_0Bd_
FNDA:0,_RNCNvMs0_NtNtCs9iG4RRqsTsR_6silent4core7requestNtB7_7Request10set_remote0Bb_
FNDA:0,_RNCNvMs0_NtNtCs9iG4RRqsTsR_6silent4core7requestNtB7_7Request10set_remotes0_0Bb_
FNDA:0,_RNCNvMs0_NtNtCs9iG4RRqsTsR_6silent4core7requestNtB7_7Request10set_remotes1_0Bb_
FNDA:0,_RNCNvMs0_NtNtCs9iG4RRqsTsR_6silent4core7requestNtB7_7Request10set_remotes_0Bb_
FNDA:0,_RNCNvMs0_NtNtCs9iG4RRqsTsR_6silent4core7requestNtB7_7Request6remote0Bb_
FNDA:0,_RNCNvMs0_NtNtCs9iG4RRqsTsR_6silent4core7requestNtB7_7Request6remotes_0Bb_
FNDA:1,_RINvMs0_NtNtCs7wZ7Ymcehhq_6silent4core7requestNtB6_7Request10form_parseNtNCNvNtB6_5testss_27test_shared_cache_mechanism08TestDataEBa_
FNDA:2,_RINvMs0_NtNtCs7wZ7Ymcehhq_6silent4core7requestNtB6_7Request10form_parseNtNCNvNtB6_5testss_32test_methods_semantic_separation08TestDataEBa_
FNDA:2,_RINvMs0_NtNtCs7wZ7Ymcehhq_6silent4core7requestNtB6_7Request10form_parseNtNCNvNtB6_5testss_46test_form_urlencoded_caches_to_form_body_cache08TestDataEBa_
FNDA:1,_RINvMs0_NtNtCs7wZ7Ymcehhq_6silent4core7requestNtB6_7Request10form_parseNtNCNvNtNtBa_9extractor5testss_30test_json_and_form_error_cases08FormDataEBa_
FNDA:1,_RINvMs0_NtNtCs7wZ7Ymcehhq_6silent4core7requestNtB6_7Request10form_parseNtNCNvNtNtBa_9extractor5testss_56test_form_and_typed_header_and_method_uri_version_remote01UEBa_
FNDA:1,_RINvMs0_NtNtCs7wZ7Ymcehhq_6silent4core7requestNtB6_7Request10get_configNtNCNvNtNtBa_9extractor5testss_25test_deeply_nested_tuples011ConfigsDataEBa_
FNDA:1,_RINvMs0_NtNtCs7wZ7Ymcehhq_6silent4core7requestNtB6_7Request10get_configNtNCNvNtNtBa_9extractor5testss_42test_configs_and_extension_and_request_ext07CfgDataEBa_
FNDA:2,_RINvMs0_NtNtCs7wZ7Ymcehhq_6silent4core7requestNtB6_7Request10json_parseNtNCNvNtB6_5testss_32test_methods_semantic_separation08TestDataEBa_
FNDA:1,_RINvMs0_NtNtCs7wZ7Ymcehhq_6silent4core7requestNtB6_7Request10json_parseNtNCNvNtNtBa_9extractor5testss_27test_complex_struct_parsing011ComplexDataEBa_
FNDA:1,_RINvMs0_NtNtCs7wZ7Ymcehhq_6silent4core7requestNtB6_7Request10json_parseNtNCNvNtNtBa_9extractor5testss_28test_query_and_json_and_form01UEBa_
FNDA:1,_RINvMs0_NtNtCs7wZ7Ymcehhq_6silent4core7requestNtB6_7Request10json_parseNtNCNvNtNtBa_9extractor5testss_36test_tuple_triple_quad_and_result_ok01UEBa_
FNDA:3,_RINvMs0_NtNtCs7wZ7Ymcehhq_6silent4core7requestNtB6_7Request10json_parseNtNtCslJa0pizjxGe_10serde_json5value5ValueEBa_
FNDA:1,_RINvMs0_NtNtCs7wZ7Ymcehhq_6silent4core7requestNtB6_7Request12params_parseNtNCNvNtNtBa_9extractor5testss_25test_deeply_nested_tuples01QEBa_
FNDA:1,_RINvMs0_NtNtCs7wZ7Ymcehhq_6silent4core7requestNtB6_7Request12params_parseNtNCNvNtNtBa_9extractor5testss_27test_query_param_edge_cases013SpecialParamsEBa_
FNDA:1,_RINvMs0_NtNtCs7wZ7Ymcehhq_6silent4core7requestNtB6_7Request12params_parseNtNCNvNtNtBa_9extractor5testss_27test_query_param_edge_cases09EnumParamEBa_
FNDA:1,_RINvMs0_NtNtCs7wZ7Ymcehhq_6silent4core7requestNtB6_7Request12params_parseNtNCNvNtNtBa_9extractor5testss_32test_option_extractor_variations014OptionalParamsEBa_
FNDA:2,_RINvMs0_NtNtCs7wZ7Ymcehhq_6silent4core7requestNtB6_7Request12params_parseNtNCNvNtNtBa_9extractor5testss_36test_tuple_triple_quad_and_result_ok01QEBa_
FNDA:2,_RINvMs0_NtNtCs7wZ7Ymcehhq_6silent4core7requestNtB6_7Request12params_parseNtNtB6_5tests10TestStructEBa_
FNDA:4,_RINvMs0_NtNtCs7wZ7Ymcehhq_6silent4core7requestNtB6_7Request12params_parseNtNtNtBa_9extractor5tests4PageEBa_
FNDA:1,_RINvMs0_NtNtCs7wZ7Ymcehhq_6silent4core7requestNtB6_7Request15get_path_paramsNtCs4X3qLxTmIcq_4uuid4UuidEBa_
FNDA:10,_RINvMs0_NtNtCs7wZ7Ymcehhq_6silent4core7requestNtB6_7Request15get_path_paramsNtNtCskxbBfrLNYPn_5alloc6string6StringEBa_
FNDA:1,_RINvMs0_NtNtCs7wZ7Ymcehhq_6silent4core7requestNtB6_7Request15get_path_paramslEBa_
FNDA:1,_RINvMs0_NtNtCs7wZ7Ymcehhq_6silent4core7requestNtB6_7Request18get_config_uncheckReEBa_
FNDA:1,_RINvMs0_NtNtCs7wZ7Ymcehhq_6silent4core7requestNtB6_7Request18get_config_unchecklEBa_
FNDA:1,_RINvMs0_NtNtCs7wZ7Ymcehhq_6silent4core7requestNtB6_7Request20multipart_form_parseNtNCNvNtB6_5testss_27test_shared_cache_mechanism08TestDataEBa_
FNDA:0,_RINvMs0_NtNtCs7wZ7Ymcehhq_6silent4core7requestNtB6_7Request20multipart_form_parseNtNCNvNtB6_5testss_32test_methods_semantic_separation08TestDataEBa_
FNDA:0,_RINvMs0_NtNtCs7wZ7Ymcehhq_6silent4core7requestNtB6_7Request20multipart_form_parseNtNCNvNtB6_5testss_46test_form_urlencoded_caches_to_form_body_cache08TestDataEBa_
FNDA:0,_RINvMs0_NtNtCs7wZ7Ymcehhq_6silent4core7requestNtB6_7Request20multipart_form_parseNtNCNvNtNtBa_9extractor5testss_30test_json_and_form_error_cases08FormDataEBa_
FNDA:0,_RINvMs0_NtNtCs7wZ7Ymcehhq_6silent4core7requestNtB6_7Request20multipart_form_parseNtNCNvNtNtBa_9extractor5testss_56test_form_and_typed_header_and_method_uri_version_remote01UEBa_
FNDA:0,_RINvMs0_NtNtCs7wZ7Ymcehhq_6silent4core7requestNtB6_7Request21urlencoded_form_parseNtNCNvNtB6_5testss_27test_shared_cache_mechanism08TestDataEBa_
FNDA:1,_RINvMs0_NtNtCs7wZ7Ymcehhq_6silent4core7requestNtB6_7Request21urlencoded_form_parseNtNCNvNtB6_5testss_32test_methods_semantic_separation08TestDataEBa_
FNDA:2,_RINvMs0_NtNtCs7wZ7Ymcehhq_6silent4core7requestNtB6_7Request21urlencoded_form_parseNtNCNvNtB6_5testss_46test_form_urlencoded_caches_to_form_body_cache08TestDataEBa_
FNDA:1,_RINvMs0_NtNtCs7wZ7Ymcehhq_6silent4core7requestNtB6_7Request21urlencoded_form_parseNtNCNvNtNtBa_9extractor5testss_30test_json_and_form_error_cases08FormDataEBa_
FNDA:1,_RINvMs0_NtNtCs7wZ7Ymcehhq_6silent4core7requestNtB6_7Request21urlencoded_form_parseNtNCNvNtNtBa_9extractor5testss_56test_form_and_typed_header_and_method_uri_version_remote01UEBa_
FNDA:1,_RNCINvMs0_NtNtCs7wZ7Ymcehhq_6silent4core7requestNtB8_7Request10form_parseNtNCNvNtB8_5testss_27test_shared_cache_mechanism08TestDataE0Bc_
FNDA:2,_RNCINvMs0_NtNtCs7wZ7Ymcehhq_6silent4core7requestNtB8_7Request10form_parseNtNCNvNtB8_5testss_32test_methods_semantic_separation08TestDataE0Bc_
FNDA:2,_RNCINvMs0_NtNtCs7wZ7Ymcehhq_6silent4core7requestNtB8_7Request10form_parseNtNCNvNtB8_5testss_46test_form_urlencoded_caches_to_form_body_cache08TestDataE0Bc_
FNDA:1,_RNCINvMs0_NtNtCs7wZ7Ymcehhq_6silent4core7requestNtB8_7Request10form_parseNtNCNvNtNtBc_9extractor5testss_30test_json_and_form_error_cases08FormDataE0Bc_
FNDA:1,_RNCINvMs0_NtNtCs7wZ7Ymcehhq_6silent4core7requestNtB8_7Request10form_parseNtNCNvNtNtBc_9extractor5testss_56test_form_and_typed_header_and_method_uri_version_remote01UE0Bc_
FNDA:2,_RNCINvMs0_NtNtCs7wZ7Ymcehhq_6silent4core7requestNtB8_7Request10json_parseNtNCNvNtB8_5testss_32test_methods_semantic_separation08TestDataE0Bc_
FNDA:1,_RNCINvMs0_NtNtCs7wZ7Ymcehhq_6silent4core7requestNtB8_7Request10json_parseNtNCNvNtNtBc_9extractor5testss_27test_complex_struct_parsing011ComplexDataE0Bc_
FNDA:1,_RNCINvMs0_NtNtCs7wZ7Ymcehhq_6silent4core7requestNtB8_7Request10json_parseNtNCNvNtNtBc_9extractor5testss_28test_query_and_json_and_form01UE0Bc_
FNDA:1,_RNCINvMs0_NtNtCs7wZ7Ymcehhq_6silent4core7requestNtB8_7Request10json_parseNtNCNvNtNtBc_9extractor5testss_36test_tuple_triple_quad_and_result_ok01UE0Bc_
FNDA:3,_RNCINvMs0_NtNtCs7wZ7Ymcehhq_6silent4core7requestNtB8_7Request10json_parseNtNtCslJa0pizjxGe_10serde_json5value5ValueE0Bc_
FNDA:1,_RNCINvMs0_NtNtCs7wZ7Ymcehhq_6silent4core7requestNtB8_7Request20multipart_form_parseNtNCNvNtB8_5testss_27test_shared_cache_mechanism08TestDataE0Bc_
FNDA:0,_RNCINvMs0_NtNtCs7wZ7Ymcehhq_6silent4core7requestNtB8_7Request20multipart_form_parseNtNCNvNtB8_5testss_32test_methods_semantic_separation08TestDataE0Bc_
FNDA:0,_RNCINvMs0_NtNtCs7wZ7Ymcehhq_6silent4core7requestNtB8_7Request20multipart_form_parseNtNCNvNtB8_5testss_46test_form_urlencoded_caches_to_form_body_cache08TestDataE0Bc_
FNDA:0,_RNCINvMs0_NtNtCs7wZ7Ymcehhq_6silent4core7requestNtB8_7Request20multipart_form_parseNtNCNvNtNtBc_9extractor5testss_30test_json_and_form_error_cases08FormDataE0Bc_
FNDA:0,_RNCINvMs0_NtNtCs7wZ7Ymcehhq_6silent4core7requestNtB8_7Request20multipart_form_parseNtNCNvNtNtBc_9extractor5testss_56test_form_and_typed_header_and_method_uri_version_remote01UE0Bc_
FNDA:0,_RNCINvMs0_NtNtCs7wZ7Ymcehhq_6silent4core7requestNtB8_7Request21urlencoded_form_parseNtNCNvNtB8_5testss_27test_shared_cache_mechanism08TestDataE0Bc_
FNDA:1,_RNCINvMs0_NtNtCs7wZ7Ymcehhq_6silent4core7requestNtB8_7Request21urlencoded_form_parseNtNCNvNtB8_5testss_32test_methods_semantic_separation08TestDataE0Bc_
FNDA:2,_RNCINvMs0_NtNtCs7wZ7Ymcehhq_6silent4core7requestNtB8_7Request21urlencoded_form_parseNtNCNvNtB8_5testss_46test_form_urlencoded_caches_to_form_body_cache08TestDataE0Bc_
FNDA:1,_RNCINvMs0_NtNtCs7wZ7Ymcehhq_6silent4core7requestNtB8_7Request21urlencoded_form_parseNtNCNvNtNtBc_9extractor5testss_30test_json_and_form_error_cases08FormDataE0Bc_
FNDA:1,_RNCINvMs0_NtNtCs7wZ7Ymcehhq_6silent4core7requestNtB8_7Request21urlencoded_form_parseNtNCNvNtNtBc_9extractor5testss_56test_form_and_typed_header_and_method_uri_version_remote01UE0Bc_
FNDA:1,_RNCNCNvMs0_NtNtCs7wZ7Ymcehhq_6silent4core7requestNtB9_7Request10set_remotes1_00Bd_
FNDA:1,_RNCNCNvMs0_NtNtCs7wZ7Ymcehhq_6silent4core7requestNtB9_7Request10set_remotes1_0s0_0Bd_
FNDA:1,_RNCNCNvMs0_NtNtCs7wZ7Ymcehhq_6silent4core7requestNtB9_7Request10set_remotes1_0s_0Bd_
FNDA:1,_RNCNCNvMs0_NtNtCs7wZ7Ymcehhq_6silent4core7requestNtB9_7Request9form_data00Bd_
FNDA:1,_RNCNvMs0_NtNtCs7wZ7Ymcehhq_6silent4core7requestNtB7_7Request10set_remote0Bb_
FNDA:1,_RNCNvMs0_NtNtCs7wZ7Ymcehhq_6silent4core7requestNtB7_7Request10set_remotes0_0Bb_
FNDA:1,_RNCNvMs0_NtNtCs7wZ7Ymcehhq_6silent4core7requestNtB7_7Request10set_remotes1_0Bb_
FNDA:1,_RNCNvMs0_NtNtCs7wZ7Ymcehhq_6silent4core7requestNtB7_7Request10set_remotes_0Bb_
FNDA:16,_RNCNvMs0_NtNtCs7wZ7Ymcehhq_6silent4core7requestNtB7_7Request12content_type0Bb_
FNDA:16,_RNCNvMs0_NtNtCs7wZ7Ymcehhq_6silent4core7requestNtB7_7Request12content_types_0Bb_
FNDA:29,_RNCNvMs0_NtNtCs7wZ7Ymcehhq_6silent4core7requestNtB7_7Request6remote0Bb_
FNDA:29,_RNCNvMs0_NtNtCs7wZ7Ymcehhq_6silent4core7requestNtB7_7Request6remotes_0Bb_
FNDA:1,_RNCNvMs0_NtNtCs7wZ7Ymcehhq_6silent4core7requestNtB7_7Request9form_data0Bb_
FNDA:0,_RINvMNtNtCs7wZ7Ymcehhq_6silent4core7requestNtB3_7Request14strip_to_hyperpEB7_
FNDA:0,_RINvMs0_NtNtCs7wZ7Ymcehhq_6silent4core7requestNtB6_7Request10form_fieldpEBa_
FNDA:0,_RINvMs0_NtNtCs7wZ7Ymcehhq_6silent4core7requestNtB6_7Request10json_fieldpEBa_
FNDA:0,_RNCINvMNtNtCs7wZ7Ymcehhq_6silent4core7requestNtB5_7Request14strip_to_hyperpE0B9_
FNDA:0,_RNCINvMNtNtCs7wZ7Ymcehhq_6silent4core7requestNtB5_7Request14strip_to_hyperpEs_0B9_
FNDA:0,_RNCINvMs0_NtNtCs7wZ7Ymcehhq_6silent4core7requestNtB8_7Request10form_fieldpE0Bc_
FNDA:0,_RNCINvMs0_NtNtCs7wZ7Ymcehhq_6silent4core7requestNtB8_7Request10json_fieldpE0Bc_
FNDA:0,_RNCNCINvMs0_NtNtCs7wZ7Ymcehhq_6silent4core7requestNtBa_7Request10form_fieldpE00Be_
FNDA:0,_RNCNCINvMs0_NtNtCs7wZ7Ymcehhq_6silent4core7requestNtBa_7Request10form_fieldpE0s_0Be_
FNDA:0,_RNCNCNvMNtNtCs7wZ7Ymcehhq_6silent4core7requestNtB6_7Request20strip_to_bytes_hyper00Ba_
FNDA:0,_RNCNCNvMs0_NtNtCs7wZ7Ymcehhq_6silent4core7requestNtB9_7Request5files00Bd_
FNDA:0,_RNCNvMNtNtCs7wZ7Ymcehhq_6silent4core7requestNtB4_7Request20strip_to_bytes_hyper0B8_
FNDA:0,_RNCNvMs0_NtNtCs7wZ7Ymcehhq_6silent4core7requestNtB7_7Request5files0Bb_
FNDA:0,_RNvMNtNtCs7wZ7Ymcehhq_6silent4core7requestNtB2_7Request20strip_to_bytes_hyper
FNDA:0,_RNvMs0_NtNtCs7wZ7Ymcehhq_6silent4core7requestNtB5_7Request5filesB9_
FNDA:1,_RNCNvNtNtNtCs7wZ7Ymcehhq_6silent4core7request5testss_27test_shared_cache_mechanism0B9_
FNDA:1,_RNCNvNtNtNtCs7wZ7Ymcehhq_6silent4core7request5testss_32test_methods_semantic_separation0B9_
FNDA:1,_RNCNvNtNtNtCs7wZ7Ymcehhq_6silent4core7request5testss_46test_form_urlencoded_caches_to_form_body_cache0B9_
FNDA:5,_RNvNtNtNtCs7wZ7Ymcehhq_6silent4core7request5tests24create_request_with_body
FNDA:1,_RNvNtNtNtCs7wZ7Ymcehhq_6silent4core7request5testss_12test_uri_get
FNDA:1,_RNvNtNtNtCs7wZ7Ymcehhq_6silent4core7request5testss_12test_uri_mut
FNDA:1,_RNvNtNtNtCs7wZ7Ymcehhq_6silent4core7request5testss_14test_into_http
FNDA:1,_RNvNtNtNtCs7wZ7Ymcehhq_6silent4core7request5testss_14test_take_body
FNDA:1,_RNvNtNtNtCs7wZ7Ymcehhq_6silent4core7request5testss_15test_method_get
FNDA:1,_RNvNtNtNtCs7wZ7Ymcehhq_6silent4core7request5testss_15test_method_mut
FNDA:1,_RNvNtNtNtCs7wZ7Ymcehhq_6silent4core7request5testss_15test_params_get
FNDA:1,_RNvNtNtNtCs7wZ7Ymcehhq_6silent4core7request5testss_16test_configs_get
FNDA:1,_RNvNtNtNtCs7wZ7Ymcehhq_6silent4core7request5testss_16test_configs_mut
FNDA:1,_RNvNtNtNtCs7wZ7Ymcehhq_6silent4core7request5testss_16test_headers_get
FNDA:1,_RNvNtNtNtCs7wZ7Ymcehhq_6silent4core7request5testss_16test_headers_mut
FNDA:1,_RNvNtNtNtCs7wZ7Ymcehhq_6silent4core7request5testss_16test_query_parse
FNDA:1,_RNvNtNtNtCs7wZ7Ymcehhq_6silent4core7request5testss_16test_version_get
FNDA:1,_RNvNtNtNtCs7wZ7Ymcehhq_6silent4core7request5testss_16test_version_mut
FNDA:1,_RNvNtNtNtCs7wZ7Ymcehhq_6silent4core7request5testss_17test_replace_body
FNDA:1,_RNvNtNtNtCs7wZ7Ymcehhq_6silent4core7request5testss_18test_request_empty
FNDA:1,_RNvNtNtNtCs7wZ7Ymcehhq_6silent4core7request5testss_19test_extensions_get
FNDA:1,_RNvNtNtNtCs7wZ7Ymcehhq_6silent4core7request5testss_19test_extensions_mut
FNDA:1,_RNvNtNtNtCs7wZ7Ymcehhq_6silent4core7request5testss_20test_request_default
FNDA:1,_RNvNtNtNtCs7wZ7Ymcehhq_6silent4core7request5testss_20test_take_extensions
FNDA:1,_RNvNtNtNtCs7wZ7Ymcehhq_6silent4core7request5testss_22test_content_type_json
FNDA:1,_RNvNtNtNtCs7wZ7Ymcehhq_6silent4core7request5testss_22test_path_params_empty
FNDA:1,_RNvNtNtNtCs7wZ7Ymcehhq_6silent4core7request5testss_22test_query_parse_alias
FNDA:1,_RNvNtNtNtCs7wZ7Ymcehhq_6silent4core7request5testss_23test_replace_extensions
FNDA:1,_RNvNtNtNtCs7wZ7Ymcehhq_6silent4core7request5testss_23test_request_from_parts
FNDA:1,_RNvNtNtNtCs7wZ7Ymcehhq_6silent4core7request5testss_24test_configs_get_uncheck
FNDA:1,_RNvNtNtNtCs7wZ7Ymcehhq_6silent4core7request5testss_25test_content_type_invalid
FNDA:1,_RNvNtNtNtCs7wZ7Ymcehhq_6silent4core7request5testss_25test_content_type_missing
FNDA:1,_RNvNtNtNtCs7wZ7Ymcehhq_6silent4core7request5testss_26test_remote_with_x_real_ip
FNDA:1,_RNvNtNtNtCs7wZ7Ymcehhq_6silent4core7request5testss_27test_shared_cache_mechanism
FNDA:1,_RNvNtNtNtCs7wZ7Ymcehhq_6silent4core7request5testss_28test_get_path_params_missing
FNDA:1,_RNvNtNtNtCs7wZ7Ymcehhq_6silent4core7request5testss_28test_get_path_params_success
FNDA:1,_RNvNtNtNtCs7wZ7Ymcehhq_6silent4core7request5testss_31test_set_remote_without_headers
FNDA:1,_RNvNtNtNtCs7wZ7Ymcehhq_6silent4core7request5testss_32test_methods_semantic_separation
FNDA:1,_RNvNtNtNtCs7wZ7Ymcehhq_6silent4core7request5testss_36test_set_remote_with_x_forwarded_for
FNDA:1,_RNvNtNtNtCs7wZ7Ymcehhq_6silent4core7request5testss_39test_set_remote_with_existing_x_real_ip
FNDA:1,_RNvNtNtNtCs7wZ7Ymcehhq_6silent4core7request5testss_46test_form_urlencoded_caches_to_form_body_cache
FNDA:20,_RNvMNtNtCs7wZ7Ymcehhq_6silent4core7requestNtB2_7Request9into_http
FNDA:97,_RNvMs0_NtNtCs7wZ7Ymcehhq_6silent4core7requestNtB5_7Request10extensionsB9_
FNDA:30,_RNvMs0_NtNtCs7wZ7Ymcehhq_6silent4core7requestNtB5_7Request10from_partsB9_
FNDA:44,_RNvMs0_NtNtCs7wZ7Ymcehhq_6silent4core7requestNtB5_7Request10method_mutB9_
FNDA:47,_RNvMs0_NtNtCs7wZ7Ymcehhq_6silent4core7requestNtB5_7Request10set_remoteB9_
FNDA:383,_RNvMs0_NtNtCs7wZ7Ymcehhq_6silent4core7requestNtB5_7Request11configs_mutB9_
FNDA:174,_RNvMs0_NtNtCs7wZ7Ymcehhq_6silent4core7requestNtB5_7Request11headers_mutB9_
FNDA:22,_RNvMs0_NtNtCs7wZ7Ymcehhq_6silent4core7requestNtB5_7Request11path_params
FNDA:1,_RNvMs0_NtNtCs7wZ7Ymcehhq_6silent4core7requestNtB5_7Request11version_mutB9_
FNDA:19,_RNvMs0_NtNtCs7wZ7Ymcehhq_6silent4core7requestNtB5_7Request12content_typeB9_
FNDA:44,_RNvMs0_NtNtCs7wZ7Ymcehhq_6silent4core7requestNtB5_7Request12replace_bodyB9_
FNDA:161,_RNvMs0_NtNtCs7wZ7Ymcehhq_6silent4core7requestNtB5_7Request14extensions_mutB9_
FNDA:34,_RNvMs0_NtNtCs7wZ7Ymcehhq_6silent4core7requestNtB5_7Request15set_path_params
FNDA:148,_RNvMs0_NtNtCs7wZ7Ymcehhq_6silent4core7requestNtB5_7Request15set_path_source
FNDA:3,_RNvMs0_NtNtCs7wZ7Ymcehhq_6silent4core7requestNtB5_7Request15take_extensionsB9_
FNDA:4,_RNvMs0_NtNtCs7wZ7Ymcehhq_6silent4core7requestNtB5_7Request18replace_extensionsB9_
FNDA:194,_RNvMs0_NtNtCs7wZ7Ymcehhq_6silent4core7requestNtB5_7Request3uriB9_
FNDA:464,_RNvMs0_NtNtCs7wZ7Ymcehhq_6silent4core7requestNtB5_7Request5empty
FNDA:185,_RNvMs0_NtNtCs7wZ7Ymcehhq_6silent4core7requestNtB5_7Request6methodB9_
FNDA:3,_RNvMs0_NtNtCs7wZ7Ymcehhq_6silent4core7requestNtB5_7Request6params
FNDA:29,_RNvMs0_NtNtCs7wZ7Ymcehhq_6silent4core7requestNtB5_7Request6remoteB9_
FNDA:162,_RNvMs0_NtNtCs7wZ7Ymcehhq_6silent4core7requestNtB5_7Request7configsB9_
FNDA:209,_RNvMs0_NtNtCs7wZ7Ymcehhq_6silent4core7requestNtB5_7Request7headersB9_
FNDA:45,_RNvMs0_NtNtCs7wZ7Ymcehhq_6silent4core7requestNtB5_7Request7uri_mutB9_
FNDA:31,_RNvMs0_NtNtCs7wZ7Ymcehhq_6silent4core7requestNtB5_7Request7versionB9_
FNDA:1,_RNvMs0_NtNtCs7wZ7Ymcehhq_6silent4core7requestNtB5_7Request9form_dataB9_
FNDA:36,_RNvMs0_NtNtCs7wZ7Ymcehhq_6silent4core7requestNtB5_7Request9take_bodyB9_
FNDA:46,_RNvXs_NtNtCs7wZ7Ymcehhq_6silent4core7requestNtB4_7RequestNtNtCsiMcf32LsBml_4core7default7Default7default
FNF:109
FNH:94
DA:46,20
DA:47,20
DA:48,20
DA:51,0
DA:52,0
DA:53,0
DA:54,0
DA:56,0
DA:57,0
DA:58,0
DA:59,0
DA:60,0
DA:61,0
DA:62,0
DA:63,0
DA:64,0
DA:65,0
DA:67,0
DA:68,0
DA:69,0
DA:70,0
DA:72,0
DA:74,0
DA:75,0
DA:76,0
DA:79,0
DA:80,0
DA:81,0
DA:82,0
DA:83,0
DA:84,0
DA:85,0
DA:86,0
DA:87,0
DA:88,0
DA:89,0
DA:91,0
DA:92,0
DA:93,0
DA:94,0
DA:95,0
DA:99,46
DA:100,46
DA:101,46
DA:106,465
DA:107,465
DA:108,465
DA:109,465
DA:110,465
DA:111,465
DA:112,465
DA:113,465
DA:114,465
DA:115,465
DA:116,465
DA:117,465
DA:118,465
DA:119,465
DA:120,465
DA:121,465
DA:122,465
DA:123,465
DA:124,465
DA:125,465
DA:126,465
DA:127,465
DA:128,465
DA:132,30
DA:133,30
DA:134,30
DA:135,30
DA:136,30
DA:137,30
DA:138,30
DA:145,29
DA:146,29
DA:147,29
DA:148,29
DA:149,29
DA:150,29
DA:151,29
DA:160,48
DA:162,48
DA:163,48
DA:164,48
DA:165,48
DA:166,48
DA:167,48
DA:169,1
DA:170,47
DA:173,47
DA:174,47
DA:175,47
DA:176,47
DA:177,47
DA:178,1
DA:179,1
DA:180,1
DA:181,1
DA:182,1
DA:184,1
DA:186,1
DA:188,1
DA:189,46
DA:192,46
DA:193,46
DA:194,48
DA:196,149
DA:197,149
DA:198,149
DA:202,186
DA:203,186
DA:204,186
DA:208,45
DA:209,45
DA:210,45
DA:213,195
DA:214,195
DA:215,195
DA:218,46
DA:219,46
DA:220,46
DA:223,31
DA:224,31
DA:225,31
DA:228,1
DA:229,1
DA:230,1
DA:233,211
DA:234,211
DA:235,211
DA:238,175
DA:239,175
DA:240,175
DA:243,97
DA:244,97
DA:245,97
DA:248,161
DA:249,161
DA:250,161
DA:251,34
DA:252,34
DA:253,34
DA:257,2
DA:258,2
DA:259,2
DA:263,2
DA:264,2
DA:265,2
DA:269,163
DA:270,163
DA:271,163
DA:275,386
DA:276,386
DA:277,386
DA:280,22
DA:281,22
DA:282,22
DA:285,12
DA:286,12
DA:287,12
DA:289,12
DA:290,11
DA:291,1
DA:293,12
DA:296,3
DA:297,3
DA:298,0
DA:299,0
DA:300,0
DA:301,0
DA:302,3
DA:303,3
DA:304,3
DA:307,12
DA:308,12
DA:309,12
DA:311,12
DA:312,12
DA:313,12
DA:314,12
DA:318,44
DA:319,44
DA:320,44
DA:324,36
DA:325,36
DA:326,36
DA:330,19
DA:331,19
DA:332,19
DA:333,19
DA:334,19
DA:335,19
DA:340,1
DA:341,1
DA:342,1
DA:343,1
DA:344,1
DA:345,0
DA:346,1
DA:349,1
DA:350,0
DA:351,1
DA:353,1
DA:354,1
DA:355,1
DA:356,1
DA:358,1
DA:360,1
DA:361,0
DA:362,0
DA:363,1
DA:366,7
DA:367,7
DA:368,7
DA:369,7
DA:370,7
DA:371,7
DA:372,7
DA:374,7
DA:376,7
DA:377,6
DA:378,1
DA:380,7
DA:384,1
DA:385,1
DA:386,1
DA:387,1
DA:389,1
DA:390,0
DA:391,0
DA:392,1
DA:395,5
DA:396,5
DA:397,5
DA:398,5
DA:400,5
DA:401,1
DA:404,4
DA:405,4
DA:406,0
DA:407,4
DA:408,4
DA:409,4
DA:410,4
DA:411,4
DA:412,4
DA:415,4
DA:416,0
DA:417,4
DA:420,4
DA:421,4
DA:425,5
DA:427,4
DA:428,5
DA:432,0
DA:433,0
DA:434,0
DA:435,0
DA:436,0
DA:437,0
DA:438,0
DA:439,0
DA:440,0
DA:441,0
DA:446,0
DA:447,0
DA:448,0
DA:449,0
DA:450,0
DA:451,0
DA:454,8
DA:455,8
DA:456,8
DA:457,8
DA:459,8
DA:460,0
DA:461,8
DA:463,8
DA:464,8
DA:465,8
DA:467,6
DA:468,1
DA:469,5
DA:471,5
DA:472,5
DA:473,0
DA:474,5
DA:475,5
DA:476,5
DA:477,5
DA:478,5
DA:481,5
DA:482,0
DA:483,5
DA:485,5
DA:488,4
DA:490,4
DA:491,8
DA:494,0
DA:495,0
DA:496,0
DA:497,0
DA:498,0
DA:499,0
DA:500,0
DA:501,0
DA:502,0
DA:503,0
DA:505,0
DA:506,0
DA:510,4
DA:511,4
DA:512,4
DA:516,3
DA:517,3
DA:518,3
DA:530,1
DA:531,1
DA:532,1
DA:533,1
DA:534,1
DA:535,1
DA:536,1
DA:537,1
DA:540,1
DA:541,1
DA:542,1
DA:543,1
DA:546,1
DA:547,1
DA:548,1
DA:549,1
DA:550,1
DA:551,1
DA:552,1
DA:554,1
DA:555,1
DA:556,1
DA:557,1
DA:562,1
DA:563,1
DA:564,1
DA:565,1
DA:567,1
DA:568,1
DA:569,1
DA:572,1
DA:573,1
DA:574,1
DA:575,1
DA:577,1
DA:578,1
DA:581,1
DA:584,1
DA:585,1
DA:586,1
DA:588,1
DA:591,1
DA:592,1
DA:593,1
DA:595,1
DA:598,1
DA:599,1
DA:602,1
DA:605,1
DA:606,1
DA:607,1
DA:609,1
DA:612,1
DA:613,1
DA:614,1
DA:615,1
DA:618,1
DA:620,1
DA:621,1
DA:622,1
DA:624,1
DA:629,1
DA:630,1
DA:631,1
DA:632,1
DA:635,1
DA:636,1
DA:637,1
DA:638,1
DA:639,1
DA:644,1
DA:645,1
DA:646,1
DA:647,1
DA:650,1
DA:651,1
DA:652,1
DA:653,1
DA:654,1
DA:659,1
DA:660,1
DA:661,1
DA:662,1
DA:665,1
DA:666,1
DA:667,1
DA:668,1
DA:669,1
DA:674,1
DA:675,1
DA:676,1
DA:677,1
DA:679,1
DA:680,1
DA:681,1
DA:683,1
DA:686,1
DA:687,1
DA:688,1
DA:689,1
DA:690,1
DA:691,1
DA:694,1
DA:695,1
DA:700,1
DA:701,1
DA:703,1
DA:704,1
DA:707,1
DA:708,1
DA:709,1
DA:710,1
DA:711,1
DA:716,1
DA:717,1
DA:718,1
DA:720,1
DA:721,1
DA:724,1
DA:725,1
DA:726,1
DA:727,1
DA:728,1
DA:729,1
DA:732,1
DA:733,1
DA:734,1
DA:735,1
DA:736,1
DA:737,1
DA:742,1
DA:743,1
DA:744,1
DA:745,1
DA:748,1
DA:749,1
DA:750,1
DA:751,1
DA:752,1
DA:755,1
DA:756,1
DA:757,1
DA:760,1
DA:761,1
DA:762,1
DA:763,1
DA:764,1
DA:769,1
DA:770,1
DA:771,1
DA:773,1
DA:774,1
DA:775,1
DA:780,1
DA:781,1
DA:782,1
DA:784,1
DA:785,1
DA:786,1
DA:789,1
DA:790,1
DA:791,1
DA:793,1
DA:794,1
DA:795,1
DA:800,1
DA:801,1
DA:802,1
DA:803,1
DA:805,1
DA:806,1
DA:807,1
DA:808,1
DA:811,1
DA:812,1
DA:813,1
DA:814,1
DA:817,1
DA:818,1
DA:819,1
DA:820,1
DA:822,1
DA:823,1
DA:824,1
DA:829,1
DA:830,1
DA:831,1
DA:833,1
DA:834,1
DA:835,1
DA:840,1
DA:841,1
DA:842,1
DA:844,1
DA:845,1
DA:847,1
DA:848,1
DA:849,1
DA:850,1
DA:853,1
DA:854,1
DA:855,1
DA:857,1
DA:858,1
DA:859,1
DA:860,1
DA:873,1
DA:874,1
DA:875,1
DA:876,1
DA:877,1
DA:880,1
DA:881,1
DA:882,1
DA:883,1
DA:884,1
DA:888,1
DA:896,1
DA:897,1
DA:898,1
DA:899,1
DA:902,1
DA:903,1
DA:905,1
DA:906,1
DA:907,1
DA:908,1
DA:909,1
DA:910,1
DA:913,1
DA:914,1
DA:916,1
DA:917,1
DA:918,1
DA:919,1
DA:920,1
DA:921,1
DA:924,1
DA:925,1
DA:927,1
DA:928,1
DA:929,1
DA:934,1
DA:935,1
DA:937,1
DA:938,1
DA:939,1
DA:943,1
DA:951,1
DA:952,1
DA:955,1
DA:956,1
DA:957,1
DA:958,1
DA:961,1
DA:962,1
DA:967,1
DA:968,1
DA:971,1
DA:972,1
DA:973,1
DA:974,1
DA:977,1
DA:978,1
DA:979,1
DA:980,1
DA:981,1
DA:986,1
DA:989,1
DA:990,1
DA:992,1
DA:996,1
DA:1006,1
DA:1007,1
DA:1008,1
DA:1009,1
DA:1011,1
DA:1014,1
DA:1015,1
DA:1016,1
DA:1017,1
DA:1018,1
DA:1021,5
DA:1022,5
DA:1023,5
DA:1024,5
DA:1025,5
DA:1026,5
DA:1027,5
BRF:0
BRH:0
LF:636
LH:546
end_of_record
SF:/Users/hubertshelley/Documents/silent/silent/silent/src/core/res_body.rs
FN:31,_RINvNtNtCs9iG4RRqsTsR_6silent4core8res_body4fullINtNtCskxbBfrLNYPn_5alloc3vec3VechEECs9aLyz1Wdihv_11integration
FN:31,_RINvNtNtCs9iG4RRqsTsR_6silent4core8res_body4fullpEB6_
FN:50,_RNvXNtNtCs9iG4RRqsTsR_6silent4core8res_bodyNtB2_7ResBodyNtNtCs66fNo4xQT42_12futures_core6stream6Stream9poll_nextB6_
FN:36,_RINvNtNtCs9iG4RRqsTsR_6silent4core8res_body11stream_bodyINtNtCsiMcf32LsBml_4core3pin3PinINtNtCskxbBfrLNYPn_5alloc5boxed3BoxDNtNtCs66fNo4xQT42_12futures_core6stream6Streamp4ItemINtNtBX_6result6ResultNtNtCshg9dpYYzUrc_5bytes5bytes5BytesNtNtNtCsle0CjmPo1W9_3std2io5error5ErrorENtNtBX_6marker4SendEL_EEB3a_B3K_EB6_
FN:98,_RNCNvXs_NtNtCs9iG4RRqsTsR_6silent4core8res_bodyNtB6_7ResBodyNtCs1tSoQd4xB4v_9http_body4Body10poll_frame0Ba_
FN:122,_RNCNvXs_NtNtCs9iG4RRqsTsR_6silent4core8res_bodyNtB6_7ResBodyNtCs1tSoQd4xB4v_9http_body4Body9size_hint0Ba_
FN:133,_RNvXs0_NtNtCs9iG4RRqsTsR_6silent4core8res_bodyNtB5_7ResBodyINtNtCsiMcf32LsBml_4core7convert4FromNtNtCshg9dpYYzUrc_5bytes5bytes5BytesE4from
FN:139,_RNvXs1_NtNtCs9iG4RRqsTsR_6silent4core8res_bodyNtB5_7ResBodyINtNtCsiMcf32LsBml_4core7convert4FromNtNtNtCsj0zAge8ySK0_5hyper4body8incoming8IncomingE4from
FN:146,_RNvXs2_NtNtCs9iG4RRqsTsR_6silent4core8res_bodyNtB5_7ResBodyINtNtCsiMcf32LsBml_4core7convert4FromNtNtCskxbBfrLNYPn_5alloc6string6StringE4fromB9_
FN:152,_RNvXs3_NtNtCs9iG4RRqsTsR_6silent4core8res_bodyNtB5_7ResBodyINtNtCsiMcf32LsBml_4core7convert4FromRShE4from
FN:158,_RNvXs4_NtNtCs9iG4RRqsTsR_6silent4core8res_bodyNtB5_7ResBodyINtNtCsiMcf32LsBml_4core7convert4FromReE4from
FN:164,_RNvXs5_NtNtCs9iG4RRqsTsR_6silent4core8res_bodyNtB5_7ResBodyINtNtCsiMcf32LsBml_4core7convert4FromINtNtCskxbBfrLNYPn_5alloc3vec3VechEE4from
FN:170,_RNvXs6_NtNtCs9iG4RRqsTsR_6silent4core8res_bodyNtB5_7ResBodyINtNtCsiMcf32LsBml_4core7convert4FromINtNtCskxbBfrLNYPn_5alloc5boxed3BoxShEE4from
FN:83,_RNvXs_NtNtCs9iG4RRqsTsR_6silent4core8res_bodyNtB4_7ResBodyNtCs1tSoQd4xB4v_9http_body4Body10poll_frame
FN:106,_RNvXs_NtNtCs9iG4RRqsTsR_6silent4core8res_bodyNtB4_7ResBodyNtCs1tSoQd4xB4v_9http_body4Body13is_end_stream
FN:117,_RNvXs_NtNtCs9iG4RRqsTsR_6silent4core8res_bodyNtB4_7ResBodyNtCs1tSoQd4xB4v_9http_body4Body9size_hint
FN:139,_RNvXs1_NtNtCs7wZ7Ymcehhq_6silent4core8res_bodyNtB5_7ResBodyINtNtCsiMcf32LsBml_4core7convert4FromNtNtNtCsj0zAge8ySK0_5hyper4body8incoming8IncomingE4from
FN:50,_RNvXNtNtCs7wZ7Ymcehhq_6silent4core8res_bodyNtB2_7ResBodyNtNtCs66fNo4xQT42_12futures_core6stream6Stream9poll_nextB6_
FN:133,_RNvXs0_NtNtCs7wZ7Ymcehhq_6silent4core8res_bodyNtB5_7ResBodyINtNtCsiMcf32LsBml_4core7convert4FromNtNtCshg9dpYYzUrc_5bytes5bytes5BytesE4from
FN:146,_RNvXs2_NtNtCs7wZ7Ymcehhq_6silent4core8res_bodyNtB5_7ResBodyINtNtCsiMcf32LsBml_4core7convert4FromNtNtCskxbBfrLNYPn_5alloc6string6StringE4fromB9_
FN:152,_RNvXs3_NtNtCs7wZ7Ymcehhq_6silent4core8res_bodyNtB5_7ResBodyINtNtCsiMcf32LsBml_4core7convert4FromRShE4from
FN:158,_RNvXs4_NtNtCs7wZ7Ymcehhq_6silent4core8res_bodyNtB5_7ResBodyINtNtCsiMcf32LsBml_4core7convert4FromReE4from
FN:164,_RNvXs5_NtNtCs7wZ7Ymcehhq_6silent4core8res_bodyNtB5_7ResBodyINtNtCsiMcf32LsBml_4core7convert4FromINtNtCskxbBfrLNYPn_5alloc3vec3VechEE4from
FN:170,_RNvXs6_NtNtCs7wZ7Ymcehhq_6silent4core8res_bodyNtB5_7ResBodyINtNtCsiMcf32LsBml_4core7convert4FromINtNtCskxbBfrLNYPn_5alloc5boxed3BoxShEE4from
FN:83,_RNvXs_NtNtCs7wZ7Ymcehhq_6silent4core8res_bodyNtB4_7ResBodyNtCs1tSoQd4xB4v_9http_body4Body10poll_frame
FN:106,_RNvXs_NtNtCs7wZ7Ymcehhq_6silent4core8res_bodyNtB4_7ResBodyNtCs1tSoQd4xB4v_9http_body4Body13is_end_stream
FN:117,_RNvXs_NtNtCs7wZ7Ymcehhq_6silent4core8res_bodyNtB4_7ResBodyNtCs1tSoQd4xB4v_9http_body4Body9size_hint
FN:690,_RNCNvNtNtNtCs7wZ7Ymcehhq_6silent4core8res_body5testss_20test_multiple_chunks0B9_
FN:36,_RINvNtNtCs7wZ7Ymcehhq_6silent4core8res_body11stream_bodyINtNtCsiMcf32LsBml_4core3pin3PinINtNtCskxbBfrLNYPn_5alloc5boxed3BoxDNtNtCs66fNo4xQT42_12futures_core6stream6Streamp4ItemINtNtBX_6result6ResultNtNtCshg9dpYYzUrc_5bytes5bytes5BytesNtNtNtCsle0CjmPo1W9_3std2io5error5ErrorENtNtBX_6marker4SendEL_EEB3a_B3K_EB6_
FN:36,_RINvNtNtCs7wZ7Ymcehhq_6silent4core8res_body11stream_bodyINtNtNtCsaqh56Yrw2Bj_12futures_util6stream4iter4IterINtNtNtCskxbBfrLNYPn_5alloc3vec9into_iter8IntoIterINtNtCsiMcf32LsBml_4core6result6ResultNtNtCshg9dpYYzUrc_5bytes5bytes5BytesINtNtB1P_5boxed3BoxDNtNtB2B_5error5ErrorNtNtB2B_6marker4SyncNtB4o_4SendEL_EEEEB38_B3I_EB6_
FN:36,_RINvNtNtCs7wZ7Ymcehhq_6silent4core8res_body11stream_bodyINtNtNtCsaqh56Yrw2Bj_12futures_util6stream4iter4IterINtNtNtCskxbBfrLNYPn_5alloc3vec9into_iter8IntoIterINtNtCsiMcf32LsBml_4core6result6ResultNtNtCshg9dpYYzUrc_5bytes5bytes5BytesNtNtNtCsle0CjmPo1W9_3std2io5error5ErrorEEEB38_B3I_EB6_
FN:36,_RINvNtNtCs7wZ7Ymcehhq_6silent4core8res_body11stream_bodyINtNtNtNtCsaqh56Yrw2Bj_12futures_util6stream10try_stream8and_then7AndThenINtNtBX_11into_stream10IntoStreamINtBX_6MapErrINtNtNtB6_3sse10keep_alive12SseKeepAliveINtNtBZ_4iter4IterINtNtNtCskxbBfrLNYPn_5alloc3vec9into_iter8IntoIterINtNtCsiMcf32LsBml_4core6result6ResultNtNtB2S_5event8SSEEventNtNtB6_5error11SilentErrorEEEENCINvNtB2S_5reply9sse_replyB3r_E0EEINtNtNtB11_6future5ready5ReadyIB4y_NtNtB3Q_6string6StringB5w_EENCB62_s_0EB78_B5w_EB6_
FN:31,_RINvNtNtCs7wZ7Ymcehhq_6silent4core8res_body4fullINtNtCskxbBfrLNYPn_5alloc3vec3VechEEB6_
FN:31,_RINvNtNtCs7wZ7Ymcehhq_6silent4core8res_body4fullNtNtCshg9dpYYzUrc_5bytes5bytes5BytesEB6_
FN:31,_RINvNtNtCs7wZ7Ymcehhq_6silent4core8res_body4fullNtNtCskxbBfrLNYPn_5alloc6string6StringEB6_
FN:31,_RINvNtNtCs7wZ7Ymcehhq_6silent4core8res_body4fullReEB6_
FN:98,_RNCNvXs_NtNtCs7wZ7Ymcehhq_6silent4core8res_bodyNtB6_7ResBodyNtCs1tSoQd4xB4v_9http_body4Body10poll_frame0Ba_
FN:122,_RNCNvXs_NtNtCs7wZ7Ymcehhq_6silent4core8res_bodyNtB6_7ResBodyNtCs1tSoQd4xB4v_9http_body4Body9size_hint0Ba_
FN:263,_RNvNtNtNtCs7wZ7Ymcehhq_6silent4core8res_body5testss_15test_from_bytes
FN:222,_RNvNtNtNtCs7wZ7Ymcehhq_6silent4core8res_body5testss_15test_full_empty
FN:273,_RNvNtNtNtCs7wZ7Ymcehhq_6silent4core8res_body5testss_16test_from_string
FN:301,_RNvNtNtNtCs7wZ7Ymcehhq_6silent4core8res_body5testss_16test_from_vec_u8
FN:659,_RNvNtNtNtCs7wZ7Ymcehhq_6silent4core8res_body5testss_16test_large_bytes
FN:195,_RNvNtNtNtCs7wZ7Ymcehhq_6silent4core8res_body5testss_18test_full_from_str
FN:213,_RNvNtNtNtCs7wZ7Ymcehhq_6silent4core8res_body5testss_18test_full_from_vec
FN:323,_RNvNtNtNtCs7wZ7Ymcehhq_6silent4core8res_body5testss_19test_poll_next_none
FN:600,_RNvNtNtNtCs7wZ7Ymcehhq_6silent4core8res_body5testss_19test_size_hint_none
FN:608,_RNvNtNtNtCs7wZ7Ymcehhq_6silent4core8res_body5testss_19test_size_hint_once
FN:672,_RNvNtNtNtCs7wZ7Ymcehhq_6silent4core8res_body5testss_19test_unicode_string
FN:713,_RNvNtNtNtCs7wZ7Ymcehhq_6silent4core8res_body5testss_19test_vec_with_zeros
FN:283,_RNvNtNtNtCs7wZ7Ymcehhq_6silent4core8res_body5testss_20test_from_static_str
FN:185,_RNvNtNtNtCs7wZ7Ymcehhq_6silent4core8res_body5testss_20test_full_from_bytes
FN:682,_RNvNtNtNtCs7wZ7Ymcehhq_6silent4core8res_body5testss_20test_multiple_chunks
FN:440,_RNvNtNtNtCs7wZ7Ymcehhq_6silent4core8res_body5testss_20test_poll_frame_none
FN:695,_RNvNtNtNtCs7wZ7Ymcehhq_6silent4core8res_body5testss_21test_empty_static_str
FN:311,_RNvNtNtNtCs7wZ7Ymcehhq_6silent4core8res_body5testss_21test_from_boxed_slice
FN:204,_RNvNtNtNtCs7wZ7Ymcehhq_6silent4core8res_body5testss_21test_full_from_string
FN:756,_RNvNtNtNtCs7wZ7Ymcehhq_6silent4core8res_body5testss_21test_once_consumption
FN:367,_RNvNtNtNtCs7wZ7Ymcehhq_6silent4core8res_body5testss_21test_poll_next_chunks
FN:413,_RNvNtNtNtCs7wZ7Ymcehhq_6silent4core8res_body5testss_21test_poll_next_stream
FN:625,_RNvNtNtNtCs7wZ7Ymcehhq_6silent4core8res_body5testss_21test_size_hint_chunks
FN:646,_RNvNtNtNtCs7wZ7Ymcehhq_6silent4core8res_body5testss_21test_size_hint_stream
FN:726,_RNvNtNtNtCs7wZ7Ymcehhq_6silent4core8res_body5testss_22test_chunk_consumption
FN:292,_RNvNtNtNtCs7wZ7Ymcehhq_6silent4core8res_body5testss_22test_from_static_slice
FN:484,_RNvNtNtNtCs7wZ7Ymcehhq_6silent4core8res_body5testss_22test_poll_frame_chunks
FN:526,_RNvNtNtNtCs7wZ7Ymcehhq_6silent4core8res_body5testss_22test_poll_frame_stream
FN:704,_RNvNtNtNtCs7wZ7Ymcehhq_6silent4core8res_body5testss_23test_empty_static_slice
FN:557,_RNvNtNtNtCs7wZ7Ymcehhq_6silent4core8res_body5testss_23test_is_end_stream_none
FN:589,_RNvNtNtNtCs7wZ7Ymcehhq_6silent4core8res_body5testss_25test_is_end_stream_stream
FN:355,_RNvNtNtNtCs7wZ7Ymcehhq_6silent4core8res_body5testss_25test_poll_next_once_empty
FN:617,_RNvNtNtNtCs7wZ7Ymcehhq_6silent4core8res_body5testss_25test_size_hint_once_empty
FN:472,_RNvNtNtNtCs7wZ7Ymcehhq_6silent4core8res_body5testss_26test_poll_frame_once_empty
FN:780,_RNvNtNtNtCs7wZ7Ymcehhq_6silent4core8res_body5testss_26test_res_body_none_variant
FN:786,_RNvNtNtNtCs7wZ7Ymcehhq_6silent4core8res_body5testss_26test_res_body_once_variant
FN:401,_RNvNtNtNtCs7wZ7Ymcehhq_6silent4core8res_body5testss_27test_poll_next_chunks_empty
FN:638,_RNvNtNtNtCs7wZ7Ymcehhq_6silent4core8res_body5testss_27test_size_hint_chunks_empty
FN:246,_RNvNtNtNtCs7wZ7Ymcehhq_6silent4core8res_body5testss_27test_stream_body_with_error
FN:514,_RNvNtNtNtCs7wZ7Ymcehhq_6silent4core8res_body5testss_28test_poll_frame_chunks_empty
FN:792,_RNvNtNtNtCs7wZ7Ymcehhq_6silent4core8res_body5testss_28test_res_body_chunks_variant
FN:799,_RNvNtNtNtCs7wZ7Ymcehhq_6silent4core8res_body5testss_28test_res_body_stream_variant
FN:233,_RNvNtNtNtCs7wZ7Ymcehhq_6silent4core8res_body5testss_28test_stream_body_from_stream
FN:563,_RNvNtNtNtCs7wZ7Ymcehhq_6silent4core8res_body5testss_29test_is_end_stream_once_empty
FN:335,_RNvNtNtNtCs7wZ7Ymcehhq_6silent4core8res_body5testss_29test_poll_next_once_with_data
FN:452,_RNvNtNtNtCs7wZ7Ymcehhq_6silent4core8res_body5testss_30test_poll_frame_once_with_data
FN:575,_RNvNtNtNtCs7wZ7Ymcehhq_6silent4core8res_body5testss_31test_is_end_stream_chunks_empty
FN:569,_RNvNtNtNtCs7wZ7Ymcehhq_6silent4core8res_body5testss_33test_is_end_stream_once_with_data
FN:581,_RNvNtNtNtCs7wZ7Ymcehhq_6silent4core8res_body5testss_35test_is_end_stream_chunks_with_data
FNDA:1,_RINvNtNtCs9iG4RRqsTsR_6silent4core8res_body4fullINtNtCskxbBfrLNYPn_5alloc3vec3VechEECs9aLyz1Wdihv_11integration
FNDA:0,_RINvNtNtCs9iG4RRqsTsR_6silent4core8res_body4fullpEB6_
FNDA:0,_RNvXNtNtCs9iG4RRqsTsR_6silent4core8res_bodyNtB2_7ResBodyNtNtCs66fNo4xQT42_12futures_core6stream6Stream9poll_nextB6_
FNDA:0,_RINvNtNtCs9iG4RRqsTsR_6silent4core8res_body11stream_bodyINtNtCsiMcf32LsBml_4core3pin3PinINtNtCskxbBfrLNYPn_5alloc5boxed3BoxDNtNtCs66fNo4xQT42_12futures_core6stream6Streamp4ItemINtNtBX_6result6ResultNtNtCshg9dpYYzUrc_5bytes5bytes5BytesNtNtNtCsle0CjmPo1W9_3std2io5error5ErrorENtNtBX_6marker4SendEL_EEB3a_B3K_EB6_
FNDA:0,_RNCNvXs_NtNtCs9iG4RRqsTsR_6silent4core8res_bodyNtB6_7ResBodyNtCs1tSoQd4xB4v_9http_body4Body10poll_frame0Ba_
FNDA:0,_RNCNvXs_NtNtCs9iG4RRqsTsR_6silent4core8res_bodyNtB6_7ResBodyNtCs1tSoQd4xB4v_9http_body4Body9size_hint0Ba_
FNDA:0,_RNvXs0_NtNtCs9iG4RRqsTsR_6silent4core8res_bodyNtB5_7ResBodyINtNtCsiMcf32LsBml_4core7convert4FromNtNtCshg9dpYYzUrc_5bytes5bytes5BytesE4from
FNDA:0,_RNvXs1_NtNtCs9iG4RRqsTsR_6silent4core8res_bodyNtB5_7ResBodyINtNtCsiMcf32LsBml_4core7convert4FromNtNtNtCsj0zAge8ySK0_5hyper4body8incoming8IncomingE4from
FNDA:0,_RNvXs2_NtNtCs9iG4RRqsTsR_6silent4core8res_bodyNtB5_7ResBodyINtNtCsiMcf32LsBml_4core7convert4FromNtNtCskxbBfrLNYPn_5alloc6string6StringE4fromB9_
FNDA:0,_RNvXs3_NtNtCs9iG4RRqsTsR_6silent4core8res_bodyNtB5_7ResBodyINtNtCsiMcf32LsBml_4core7convert4FromRShE4from
FNDA:0,_RNvXs4_NtNtCs9iG4RRqsTsR_6silent4core8res_bodyNtB5_7ResBodyINtNtCsiMcf32LsBml_4core7convert4FromReE4from
FNDA:0,_RNvXs5_NtNtCs9iG4RRqsTsR_6silent4core8res_bodyNtB5_7ResBodyINtNtCsiMcf32LsBml_4core7convert4FromINtNtCskxbBfrLNYPn_5alloc3vec3VechEE4from
FNDA:0,_RNvXs6_NtNtCs9iG4RRqsTsR_6silent4core8res_bodyNtB5_7ResBodyINtNtCsiMcf32LsBml_4core7convert4FromINtNtCskxbBfrLNYPn_5alloc5boxed3BoxShEE4from
FNDA:0,_RNvXs_NtNtCs9iG4RRqsTsR_6silent4core8res_bodyNtB4_7ResBodyNtCs1tSoQd4xB4v_9http_body4Body10poll_frame
FNDA:0,_RNvXs_NtNtCs9iG4RRqsTsR_6silent4core8res_bodyNtB4_7ResBodyNtCs1tSoQd4xB4v_9http_body4Body13is_end_stream
FNDA:0,_RNvXs_NtNtCs9iG4RRqsTsR_6silent4core8res_bodyNtB4_7ResBodyNtCs1tSoQd4xB4v_9http_body4Body9size_hint
FNDA:0,_RNvXs1_NtNtCs7wZ7Ymcehhq_6silent4core8res_bodyNtB5_7ResBodyINtNtCsiMcf32LsBml_4core7convert4FromNtNtNtCsj0zAge8ySK0_5hyper4body8incoming8IncomingE4from
FNDA:18,_RNvXNtNtCs7wZ7Ymcehhq_6silent4core8res_bodyNtB2_7ResBodyNtNtCs66fNo4xQT42_12futures_core6stream6Stream9poll_nextB6_
FNDA:24,_RNvXs0_NtNtCs7wZ7Ymcehhq_6silent4core8res_bodyNtB5_7ResBodyINtNtCsiMcf32LsBml_4core7convert4FromNtNtCshg9dpYYzUrc_5bytes5bytes5BytesE4from
FNDA:48,_RNvXs2_NtNtCs7wZ7Ymcehhq_6silent4core8res_bodyNtB5_7ResBodyINtNtCsiMcf32LsBml_4core7convert4FromNtNtCskxbBfrLNYPn_5alloc6string6StringE4fromB9_
FNDA:2,_RNvXs3_NtNtCs7wZ7Ymcehhq_6silent4core8res_bodyNtB5_7ResBodyINtNtCsiMcf32LsBml_4core7convert4FromRShE4from
FNDA:2,_RNvXs4_NtNtCs7wZ7Ymcehhq_6silent4core8res_bodyNtB5_7ResBodyINtNtCsiMcf32LsBml_4core7convert4FromReE4from
FNDA:3,_RNvXs5_NtNtCs7wZ7Ymcehhq_6silent4core8res_bodyNtB5_7ResBodyINtNtCsiMcf32LsBml_4core7convert4FromINtNtCskxbBfrLNYPn_5alloc3vec3VechEE4from
FNDA:1,_RNvXs6_NtNtCs7wZ7Ymcehhq_6silent4core8res_bodyNtB5_7ResBodyINtNtCsiMcf32LsBml_4core7convert4FromINtNtCskxbBfrLNYPn_5alloc5boxed3BoxShEE4from
FNDA:91,_RNvXs_NtNtCs7wZ7Ymcehhq_6silent4core8res_bodyNtB4_7ResBodyNtCs1tSoQd4xB4v_9http_body4Body10poll_frame
FNDA:16,_RNvXs_NtNtCs7wZ7Ymcehhq_6silent4core8res_bodyNtB4_7ResBodyNtCs1tSoQd4xB4v_9http_body4Body13is_end_stream
FNDA:10,_RNvXs_NtNtCs7wZ7Ymcehhq_6silent4core8res_bodyNtB4_7ResBodyNtCs1tSoQd4xB4v_9http_body4Body9size_hint
FNDA:100,_RNCNvNtNtNtCs7wZ7Ymcehhq_6silent4core8res_body5testss_20test_multiple_chunks0B9_
FNDA:4,_RINvNtNtCs7wZ7Ymcehhq_6silent4core8res_body11stream_bodyINtNtCsiMcf32LsBml_4core3pin3PinINtNtCskxbBfrLNYPn_5alloc5boxed3BoxDNtNtCs66fNo4xQT42_12futures_core6stream6Streamp4ItemINtNtBX_6result6ResultNtNtCshg9dpYYzUrc_5bytes5bytes5BytesNtNtNtCsle0CjmPo1W9_3std2io5error5ErrorENtNtBX_6marker4SendEL_EEB3a_B3K_EB6_
FNDA:1,_RINvNtNtCs7wZ7Ymcehhq_6silent4core8res_body11stream_bodyINtNtNtCsaqh56Yrw2Bj_12futures_util6stream4iter4IterINtNtNtCskxbBfrLNYPn_5alloc3vec9into_iter8IntoIterINtNtCsiMcf32LsBml_4core6result6ResultNtNtCshg9dpYYzUrc_5bytes5bytes5BytesINtNtB1P_5boxed3BoxDNtNtB2B_5error5ErrorNtNtB2B_6marker4SyncNtB4o_4SendEL_EEEEB38_B3I_EB6_
FNDA:1,_RINvNtNtCs7wZ7Ymcehhq_6silent4core8res_body11stream_bodyINtNtNtCsaqh56Yrw2Bj_12futures_util6stream4iter4IterINtNtNtCskxbBfrLNYPn_5alloc3vec9into_iter8IntoIterINtNtCsiMcf32LsBml_4core6result6ResultNtNtCshg9dpYYzUrc_5bytes5bytes5BytesNtNtNtCsle0CjmPo1W9_3std2io5error5ErrorEEEB38_B3I_EB6_
FNDA:10,_RINvNtNtCs7wZ7Ymcehhq_6silent4core8res_body11stream_bodyINtNtNtNtCsaqh56Yrw2Bj_12futures_util6stream10try_stream8and_then7AndThenINtNtBX_11into_stream10IntoStreamINtBX_6MapErrINtNtNtB6_3sse10keep_alive12SseKeepAliveINtNtBZ_4iter4IterINtNtNtCskxbBfrLNYPn_5alloc3vec9into_iter8IntoIterINtNtCsiMcf32LsBml_4core6result6ResultNtNtB2S_5event8SSEEventNtNtB6_5error11SilentErrorEEEENCINvNtB2S_5reply9sse_replyB3r_E0EEINtNtNtB11_6future5ready5ReadyIB4y_NtNtB3Q_6string6StringB5w_EENCB62_s_0EB78_B5w_EB6_
FNDA:272,_RINvNtNtCs7wZ7Ymcehhq_6silent4core8res_body4fullINtNtCskxbBfrLNYPn_5alloc3vec3VechEEB6_
FNDA:2,_RINvNtNtCs7wZ7Ymcehhq_6silent4core8res_body4fullNtNtCshg9dpYYzUrc_5bytes5bytes5BytesEB6_
FNDA:1,_RINvNtNtCs7wZ7Ymcehhq_6silent4core8res_body4fullNtNtCskxbBfrLNYPn_5alloc6string6StringEB6_
FNDA:1,_RINvNtNtCs7wZ7Ymcehhq_6silent4core8res_body4fullReEB6_
FNDA:2,_RNCNvXs_NtNtCs7wZ7Ymcehhq_6silent4core8res_bodyNtB6_7ResBodyNtCs1tSoQd4xB4v_9http_body4Body10poll_frame0Ba_
FNDA:103,_RNCNvXs_NtNtCs7wZ7Ymcehhq_6silent4core8res_bodyNtB6_7ResBodyNtCs1tSoQd4xB4v_9http_body4Body9size_hint0Ba_
FNDA:1,_RNvNtNtNtCs7wZ7Ymcehhq_6silent4core8res_body5testss_15test_from_bytes
FNDA:1,_RNvNtNtNtCs7wZ7Ymcehhq_6silent4core8res_body5testss_15test_full_empty
FNDA:1,_RNvNtNtNtCs7wZ7Ymcehhq_6silent4core8res_body5testss_16test_from_string
FNDA:1,_RNvNtNtNtCs7wZ7Ymcehhq_6silent4core8res_body5testss_16test_from_vec_u8
FNDA:1,_RNvNtNtNtCs7wZ7Ymcehhq_6silent4core8res_body5testss_16test_large_bytes
FNDA:1,_RNvNtNtNtCs7wZ7Ymcehhq_6silent4core8res_body5testss_18test_full_from_str
FNDA:1,_RNvNtNtNtCs7wZ7Ymcehhq_6silent4core8res_body5testss_18test_full_from_vec
FNDA:1,_RNvNtNtNtCs7wZ7Ymcehhq_6silent4core8res_body5testss_19test_poll_next_none
FNDA:1,_RNvNtNtNtCs7wZ7Ymcehhq_6silent4core8res_body5testss_19test_size_hint_none
FNDA:1,_RNvNtNtNtCs7wZ7Ymcehhq_6silent4core8res_body5testss_19test_size_hint_once
FNDA:1,_RNvNtNtNtCs7wZ7Ymcehhq_6silent4core8res_body5testss_19test_unicode_string
FNDA:1,_RNvNtNtNtCs7wZ7Ymcehhq_6silent4core8res_body5testss_19test_vec_with_zeros
FNDA:1,_RNvNtNtNtCs7wZ7Ymcehhq_6silent4core8res_body5testss_20test_from_static_str
FNDA:1,_RNvNtNtNtCs7wZ7Ymcehhq_6silent4core8res_body5testss_20test_full_from_bytes
FNDA:1,_RNvNtNtNtCs7wZ7Ymcehhq_6silent4core8res_body5testss_20test_multiple_chunks
FNDA:1,_RNvNtNtNtCs7wZ7Ymcehhq_6silent4core8res_body5testss_20test_poll_frame_none
FNDA:1,_RNvNtNtNtCs7wZ7Ymcehhq_6silent4core8res_body5testss_21test_empty_static_str
FNDA:1,_RNvNtNtNtCs7wZ7Ymcehhq_6silent4core8res_body5testss_21test_from_boxed_slice
FNDA:1,_RNvNtNtNtCs7wZ7Ymcehhq_6silent4core8res_body5testss_21test_full_from_string
FNDA:1,_RNvNtNtNtCs7wZ7Ymcehhq_6silent4core8res_body5testss_21test_once_consumption
FNDA:1,_RNvNtNtNtCs7wZ7Ymcehhq_6silent4core8res_body5testss_21test_poll_next_chunks
FNDA:1,_RNvNtNtNtCs7wZ7Ymcehhq_6silent4core8res_body5testss_21test_poll_next_stream
FNDA:1,_RNvNtNtNtCs7wZ7Ymcehhq_6silent4core8res_body5testss_21test_size_hint_chunks
FNDA:1,_RNvNtNtNtCs7wZ7Ymcehhq_6silent4core8res_body5testss_21test_size_hint_stream
FNDA:1,_RNvNtNtNtCs7wZ7Ymcehhq_6silent4core8res_body5testss_22test_chunk_consumption
FNDA:1,_RNvNtNtNtCs7wZ7Ymcehhq_6silent4core8res_body5testss_22test_from_static_slice
FNDA:1,_RNvNtNtNtCs7wZ7Ymcehhq_6silent4core8res_body5testss_22test_poll_frame_chunks
FNDA:1,_RNvNtNtNtCs7wZ7Ymcehhq_6silent4core8res_body5testss_22test_poll_frame_stream
FNDA:1,_RNvNtNtNtCs7wZ7Ymcehhq_6silent4core8res_body5testss_23test_empty_static_slice
FNDA:1,_RNvNtNtNtCs7wZ7Ymcehhq_6silent4core8res_body5testss_23test_is_end_stream_none
FNDA:1,_RNvNtNtNtCs7wZ7Ymcehhq_6silent4core8res_body5testss_25test_is_end_stream_stream
FNDA:1,_RNvNtNtNtCs7wZ7Ymcehhq_6silent4core8res_body5testss_25test_poll_next_once_empty
FNDA:1,_RNvNtNtNtCs7wZ7Ymcehhq_6silent4core8res_body5testss_25test_size_hint_once_empty
FNDA:1,_RNvNtNtNtCs7wZ7Ymcehhq_6silent4core8res_body5testss_26test_poll_frame_once_empty
FNDA:1,_RNvNtNtNtCs7wZ7Ymcehhq_6silent4core8res_body5testss_26test_res_body_none_variant
FNDA:1,_RNvNtNtNtCs7wZ7Ymcehhq_6silent4core8res_body5testss_26test_res_body_once_variant
FNDA:1,_RNvNtNtNtCs7wZ7Ymcehhq_6silent4core8res_body5testss_27test_poll_next_chunks_empty
FNDA:1,_RNvNtNtNtCs7wZ7Ymcehhq_6silent4core8res_body5testss_27test_size_hint_chunks_empty
FNDA:1,_RNvNtNtNtCs7wZ7Ymcehhq_6silent4core8res_body5testss_27test_stream_body_with_error
FNDA:1,_RNvNtNtNtCs7wZ7Ymcehhq_6silent4core8res_body5testss_28test_poll_frame_chunks_empty
FNDA:1,_RNvNtNtNtCs7wZ7Ymcehhq_6silent4core8res_body5testss_28test_res_body_chunks_variant
FNDA:1,_RNvNtNtNtCs7wZ7Ymcehhq_6silent4core8res_body5testss_28test_res_body_stream_variant
FNDA:1,_RNvNtNtNtCs7wZ7Ymcehhq_6silent4core8res_body5testss_28test_stream_body_from_stream
FNDA:1,_RNvNtNtNtCs7wZ7Ymcehhq_6silent4core8res_body5testss_29test_is_end_stream_once_empty
FNDA:1,_RNvNtNtNtCs7wZ7Ymcehhq_6silent4core8res_body5testss_29test_poll_next_once_with_data
FNDA:1,_RNvNtNtNtCs7wZ7Ymcehhq_6silent4core8res_body5testss_30test_poll_frame_once_with_data
FNDA:1,_RNvNtNtNtCs7wZ7Ymcehhq_6silent4core8res_body5testss_31test_is_end_stream_chunks_empty
FNDA:1,_RNvNtNtNtCs7wZ7Ymcehhq_6silent4core8res_body5testss_33test_is_end_stream_once_with_data
FNDA:1,_RNvNtNtNtCs7wZ7Ymcehhq_6silent4core8res_body5testss_35test_is_end_stream_chunks_with_data
FNF:65
FNH:64
DA:31,277
DA:32,277
DA:33,277
DA:36,16
DA:37,16
DA:38,16
DA:39,16
DA:40,16
DA:42,16
DA:43,16
DA:44,16
DA:50,18
DA:51,18
DA:52,1
DA:53,5
DA:54,5
DA:55,3
DA:57,2
DA:58,2
DA:61,9
DA:62,0
DA:63,0
DA:64,0
DA:65,0
DA:66,0
DA:68,3
DA:69,0
DA:70,0
DA:71,0
DA:72,0
DA:73,0
DA:76,18
DA:83,91
DA:84,91
DA:85,91
DA:86,91
DA:87,91
DA:88,1
DA:89,77
DA:90,77
DA:91,31
DA:93,46
DA:94,46
DA:97,4
DA:98,4
DA:100,0
DA:101,9
DA:102,0
DA:104,91
DA:106,16
DA:107,16
DA:108,3
DA:109,9
DA:110,3
DA:111,0
DA:112,0
DA:113,1
DA:115,16
DA:117,10
DA:118,10
DA:119,2
DA:120,4
DA:121,3
DA:122,103
DA:123,3
DA:125,0
DA:126,0
DA:127,1
DA:129,10
DA:133,24
DA:134,24
DA:135,24
DA:139,0
DA:140,0
DA:141,0
DA:146,48
DA:147,48
DA:148,48
DA:152,2
DA:153,2
DA:154,2
DA:158,2
DA:159,2
DA:160,2
DA:164,3
DA:165,3
DA:166,3
DA:170,1
DA:171,1
DA:172,1
DA:185,1
DA:186,1
DA:187,1
DA:188,1
DA:189,1
DA:190,0
DA:192,1
DA:195,1
DA:196,1
DA:197,1
DA:198,1
DA:199,0
DA:201,1
DA:204,1
DA:205,1
DA:206,1
DA:207,1
DA:208,0
DA:210,1
DA:213,1
DA:214,1
DA:215,1
DA:216,1
DA:217,0
DA:219,1
DA:222,1
DA:223,1
DA:224,1
DA:225,1
DA:226,0
DA:228,1
DA:233,1
DA:234,1
DA:235,1
DA:236,1
DA:237,1
DA:239,1
DA:240,1
DA:241,0
DA:243,1
DA:246,1
DA:249,1
DA:250,1
DA:251,1
DA:252,1
DA:254,1
DA:255,1
DA:256,0
DA:258,1
DA:263,1
DA:264,1
DA:265,1
DA:266,1
DA:267,1
DA:268,0
DA:270,1
DA:273,1
DA:274,1
DA:275,1
DA:276,1
DA:277,1
DA:278,0
DA:280,1
DA:283,1
DA:284,1
DA:285,1
DA:286,1
DA:287,0
DA:289,1
DA:292,1
DA:293,1
DA:294,1
DA:295,1
DA:296,0
DA:298,1
DA:301,1
DA:302,1
DA:303,1
DA:304,1
DA:305,1
DA:306,0
DA:308,1
DA:311,1
DA:312,1
DA:313,1
DA:314,1
DA:315,1
DA:316,0
DA:318,1
DA:323,1
DA:324,1
DA:325,1
DA:326,1
DA:328,1
DA:329,1
DA:330,0
DA:332,1
DA:335,1
DA:336,1
DA:337,1
DA:338,1
DA:339,1
DA:342,1
DA:343,1
DA:344,0
DA:348,1
DA:349,1
DA:350,0
DA:352,1
DA:355,1
DA:356,1
DA:357,1
DA:358,1
DA:360,1
DA:361,1
DA:362,0
DA:364,1
DA:367,1
DA:368,1
DA:369,1
DA:370,1
DA:371,1
DA:373,1
DA:374,1
DA:375,1
DA:378,1
DA:379,1
DA:380,0
DA:383,1
DA:384,1
DA:385,0
DA:388,1
DA:389,1
DA:390,0
DA:394,1
DA:395,1
DA:396,0
DA:398,1
DA:401,1
DA:402,1
DA:403,1
DA:404,1
DA:406,1
DA:407,1
DA:408,0
DA:410,1
DA:413,1
DA:414,1
DA:415,1
DA:416,1
DA:417,1
DA:418,1
DA:419,1
DA:421,1
DA:422,1
DA:423,0
DA:426,1
DA:427,1
DA:428,0
DA:431,1
DA:432,1
DA:433,0
DA:435,1
DA:440,1
DA:441,1
DA:442,1
DA:443,1
DA:445,1
DA:446,1
DA:447,0
DA:449,1
DA:452,1
DA:453,1
DA:454,1
DA:455,1
DA:456,1
DA:458,1
DA:459,1
DA:460,1
DA:462,0
DA:465,1
DA:466,1
DA:467,0
DA:469,1
DA:472,1
DA:473,1
DA:474,1
DA:475,1
DA:477,1
DA:478,1
DA:479,0
DA:481,1
DA:484,1
DA:485,1
DA:486,1
DA:487,1
DA:489,1
DA:490,1
DA:491,1
DA:493,1
DA:494,1
DA:495,1
DA:497,0
DA:500,1
DA:501,1
DA:502,1
DA:504,0
DA:507,1
DA:508,1
DA:509,0
DA:511,1
DA:514,1
DA:515,1
DA:516,1
DA:517,1
DA:519,1
DA:520,1
DA:521,0
DA:523,1
DA:526,1
DA:527,1
DA:528,1
DA:529,1
DA:530,1
DA:531,1
DA:532,1
DA:534,1
DA:535,1
DA:536,1
DA:538,0
DA:541,1
DA:542,1
DA:543,1
DA:545,0
DA:548,1
DA:549,1
DA:550,0
DA:552,1
DA:557,1
DA:558,1
DA:559,1
DA:560,1
DA:563,1
DA:564,1
DA:565,1
DA:566,1
DA:569,1
DA:570,1
DA:571,1
DA:572,1
DA:575,1
DA:576,1
DA:577,1
DA:578,1
DA:581,1
DA:582,1
DA:583,1
DA:584,1
DA:585,1
DA:586,1
DA:589,1
DA:590,1
DA:591,1
DA:592,1
DA:594,1
DA:595,1
DA:600,1
DA:601,1
DA:602,1
DA:603,1
DA:604,1
DA:605,1
DA:608,1
DA:609,1
DA:610,1
DA:611,1
DA:612,1
DA:613,1
DA:614,1
DA:617,1
DA:618,1
DA:619,1
DA:620,1
DA:621,1
DA:622,1
DA:625,1
DA:626,1
DA:627,1
DA:628,1
DA:629,1
DA:631,1
DA:632,1
DA:633,1
DA:634,1
DA:635,1
DA:638,1
DA:639,1
DA:640,1
DA:641,1
DA:642,1
DA:643,1
DA:646,1
DA:647,1
DA:648,1
DA:649,1
DA:650,1
DA:652,1
DA:653,1
DA:654,1
DA:659,1
DA:660,1
DA:661,1
DA:662,1
DA:663,1
DA:664,1
DA:665,1
DA:667,0
DA:669,1
DA:672,1
DA:673,1
DA:674,1
DA:675,1
DA:676,1
DA:677,0
DA:679,1
DA:682,1
DA:683,1
DA:684,100
DA:685,100
DA:686,100
DA:688,1
DA:689,1
DA:690,100
DA:691,1
DA:692,1
DA:695,1
DA:696,1
DA:697,1
DA:698,1
DA:699,0
DA:701,1
DA:704,1
DA:705,1
DA:706,1
DA:707,1
DA:708,0
DA:710,1
DA:713,1
DA:714,1
DA:715,1
DA:716,1
DA:717,1
DA:718,1
DA:719,1
DA:721,0
DA:723,1
DA:726,1
DA:727,1
DA:728,1
DA:729,1
DA:730,1
DA:732,1
DA:733,1
DA:734,1
DA:737,1
DA:739,4
DA:740,3
DA:741,1
DA:742,0
DA:746,1
DA:747,1
DA:748,1
DA:749,1
DA:752,1
DA:753,1
DA:756,1
DA:757,1
DA:758,1
DA:759,1
DA:762,1
DA:763,1
DA:764,0
DA:768,1
DA:769,1
DA:770,0
DA:774,1
DA:775,1
DA:780,1
DA:781,1
DA:782,1
DA:783,1
DA:786,1
DA:787,1
DA:788,1
DA:789,1
DA:792,1
DA:793,1
DA:794,1
DA:795,1
DA:796,1
DA:799,1
DA:800,1
DA:801,1
DA:802,1
DA:803,1
DA:804,1
BRF:0
BRH:0
LF:499
LH:436
end_of_record
SF:/Users/hubertshelley/Documents/silent/silent/silent/src/core/response.rs
FN:99,_RINvMs0_NtNtCs9iG4RRqsTsR_6silent4core8responseNtB6_8Response4jsonNtNtCskxbBfrLNYPn_5alloc6string6StringECs9aLyz1Wdihv_11integration
FN:205,_RINvMs1_NtNtCs9iG4RRqsTsR_6silent4core8responseNtB6_8Response17with_typed_headerNtNtNtCs4sSFlm5qmXA_7headers6common12content_type11ContentTypeECs9aLyz1Wdihv_11integration
FN:115,_RNvMs1_NtNtCs9iG4RRqsTsR_6silent4core8responseNtB5_8Response11with_statusCs9aLyz1Wdihv_11integration
FN:126,_RNvMs1_NtNtCs9iG4RRqsTsR_6silent4core8responseNtB5_8Response9with_bodyCs9aLyz1Wdihv_11integration
FN:223,_RNvXs2_NtNtCs9iG4RRqsTsR_6silent4core8responseNtB5_8ResponseINtNtCsiMcf32LsBml_4core7convert4FromNtNtCskxbBfrLNYPn_5alloc6string6StringE4fromCs9aLyz1Wdihv_11integration
FN:99,_RINvMs0_NtNtCs9iG4RRqsTsR_6silent4core8responseNtB6_8Response4jsonpEBa_
FN:159,_RINvMs1_NtNtCs9iG4RRqsTsR_6silent4core8responseINtB6_8ResponsepE10get_configpEBa_
FN:205,_RINvMs1_NtNtCs9iG4RRqsTsR_6silent4core8responseINtB6_8ResponsepE17with_typed_headerpEBa_
FN:165,_RINvMs1_NtNtCs9iG4RRqsTsR_6silent4core8responseINtB6_8ResponsepE18get_config_uncheckpEBa_
FN:72,_RNCNvMs0_NtNtCs9iG4RRqsTsR_6silent4core8responseNtB7_8Response8redirect0Bb_
FN:91,_RNvMs0_NtNtCs9iG4RRqsTsR_6silent4core8responseNtB5_8Response4htmlB9_
FN:83,_RNvMs0_NtNtCs9iG4RRqsTsR_6silent4core8responseNtB5_8Response4textB9_
FN:57,_RNvMs0_NtNtCs9iG4RRqsTsR_6silent4core8responseNtB5_8Response6statusB9_
FN:67,_RNvMs0_NtNtCs9iG4RRqsTsR_6silent4core8responseNtB5_8Response8redirectB9_
FN:62,_RNvMs0_NtNtCs9iG4RRqsTsR_6silent4core8responseNtB5_8Response9take_bodyB9_
FN:137,_RNvMs1_NtNtCs9iG4RRqsTsR_6silent4core8responseINtB5_8ResponsepE10set_headerB9_
FN:177,_RNvMs1_NtNtCs9iG4RRqsTsR_6silent4core8responseINtB5_8ResponsepE11configs_mutB9_
FN:142,_RNvMs1_NtNtCs9iG4RRqsTsR_6silent4core8responseINtB5_8ResponsepE11with_headerB9_
FN:115,_RNvMs1_NtNtCs9iG4RRqsTsR_6silent4core8responseINtB5_8ResponsepE11with_statusB9_
FN:132,_RNvMs1_NtNtCs9iG4RRqsTsR_6silent4core8responseINtB5_8ResponsepE4bodyB9_
FN:171,_RNvMs1_NtNtCs9iG4RRqsTsR_6silent4core8responseINtB5_8ResponsepE7configsB9_
FN:182,_RNvMs1_NtNtCs9iG4RRqsTsR_6silent4core8responseINtB5_8ResponsepE7headersB9_
FN:126,_RNvMs1_NtNtCs9iG4RRqsTsR_6silent4core8responseINtB5_8ResponsepE9with_bodyB9_
FN:223,_RNvXININtNtCs9iG4RRqsTsR_6silent4core8responses2_0pENtB5_8ResponseINtNtCsiMcf32LsBml_4core7convert4FrompE4fromB9_
FN:38,_RNvXs_NtNtCs9iG4RRqsTsR_6silent4core8responseNtB4_8ResponseNtNtCsiMcf32LsBml_4core3fmt7Display3fmtB8_
FN:197,_RINvMs1_NtNtCs9iG4RRqsTsR_6silent4core8responseNtB6_8Response16set_typed_headerNtNtNtCs4sSFlm5qmXA_7headers6common12content_type11ContentTypeEBa_
FN:148,_RNvMs1_NtNtCs9iG4RRqsTsR_6silent4core8responseNtB5_8Response10extensionsB9_
FN:110,_RNvMs1_NtNtCs9iG4RRqsTsR_6silent4core8responseNtB5_8Response10set_statusB9_
FN:187,_RNvMs1_NtNtCs9iG4RRqsTsR_6silent4core8responseNtB5_8Response11headers_mutB9_
FN:192,_RNvMs1_NtNtCs9iG4RRqsTsR_6silent4core8responseNtB5_8Response14content_lengthB9_
FN:153,_RNvMs1_NtNtCs9iG4RRqsTsR_6silent4core8responseNtB5_8Response14extensions_mutB9_
FN:214,_RNvMs1_NtNtCs9iG4RRqsTsR_6silent4core8responseNtB5_8Response18copy_from_responseB9_
FN:121,_RNvMs1_NtNtCs9iG4RRqsTsR_6silent4core8responseNtB5_8Response8set_bodyB9_
FN:45,_RNvMs0_NtNtCs9iG4RRqsTsR_6silent4core8responseNtB5_8Response5empty
FN:31,_RNvXNtNtCs9iG4RRqsTsR_6silent4core8responseNtB2_8ResponseNtNtCsiMcf32LsBml_4core3fmt5Debug3fmtB6_
FN:99,_RINvMs0_NtNtCs7wZ7Ymcehhq_6silent4core8responseNtB6_8Response4jsonINtNtCsiMcf32LsBml_4core6option6OptionlEEBa_
FN:99,_RINvMs0_NtNtCs7wZ7Ymcehhq_6silent4core8responseNtB6_8Response4jsonNtNtCskxbBfrLNYPn_5alloc6string6StringEBa_
FN:99,_RINvMs0_NtNtCs7wZ7Ymcehhq_6silent4core8responseNtB6_8Response4jsonNtNtCslJa0pizjxGe_10serde_json5value5ValueEBa_
FN:99,_RINvMs0_NtNtCs7wZ7Ymcehhq_6silent4core8responseNtB6_8Response4jsonNtNtNtNtBa_7handler15handler_wrapper5tests12HelloHandlerEBa_
FN:99,_RINvMs0_NtNtCs7wZ7Ymcehhq_6silent4core8responseNtB6_8Response4jsonNtNvNtB6_5testss_25test_response_from_struct8TestDataEBa_
FN:99,_RINvMs0_NtNtCs7wZ7Ymcehhq_6silent4core8responseNtB6_8Response4jsonNtNvNtB6_5testss_30test_response_from_json_object6PersonEBa_
FN:99,_RINvMs0_NtNtCs7wZ7Ymcehhq_6silent4core8responseNtB6_8Response4jsonNtNvNtB6_5testss_30test_response_json_with_struct8TestDataEBa_
FN:99,_RINvMs0_NtNtCs7wZ7Ymcehhq_6silent4core8responseNtB6_8Response4jsonReEBa_
FN:99,_RINvMs0_NtNtCs7wZ7Ymcehhq_6silent4core8responseNtB6_8Response4jsonlEBa_
FN:159,_RINvMs1_NtNtCs7wZ7Ymcehhq_6silent4core8responseNtB6_8Response10get_configlEBa_
FN:197,_RINvMs1_NtNtCs7wZ7Ymcehhq_6silent4core8responseNtB6_8Response16set_typed_headerNtNtNtCs4sSFlm5qmXA_7headers6common12content_type11ContentTypeEBa_
FN:205,_RINvMs1_NtNtCs7wZ7Ymcehhq_6silent4core8responseNtB6_8Response17with_typed_headerNtNtNtCs4sSFlm5qmXA_7headers6common12content_type11ContentTypeEBa_
FN:165,_RINvMs1_NtNtCs7wZ7Ymcehhq_6silent4core8responseNtB6_8Response18get_config_unchecklEBa_
FN:72,_RNCNvMs0_NtNtCs7wZ7Ymcehhq_6silent4core8responseNtB7_8Response8redirect0Bb_
FN:148,_RNvMs1_NtNtCs7wZ7Ymcehhq_6silent4core8responseNtB5_8Response10extensionsB9_
FN:137,_RNvMs1_NtNtCs7wZ7Ymcehhq_6silent4core8responseNtB5_8Response10set_headerB9_
FN:110,_RNvMs1_NtNtCs7wZ7Ymcehhq_6silent4core8responseNtB5_8Response10set_statusB9_
FN:177,_RNvMs1_NtNtCs7wZ7Ymcehhq_6silent4core8responseNtB5_8Response11configs_mutB9_
FN:187,_RNvMs1_NtNtCs7wZ7Ymcehhq_6silent4core8responseNtB5_8Response11headers_mutB9_
FN:142,_RNvMs1_NtNtCs7wZ7Ymcehhq_6silent4core8responseNtB5_8Response11with_headerB9_
FN:115,_RNvMs1_NtNtCs7wZ7Ymcehhq_6silent4core8responseNtB5_8Response11with_statusB9_
FN:192,_RNvMs1_NtNtCs7wZ7Ymcehhq_6silent4core8responseNtB5_8Response14content_lengthB9_
FN:153,_RNvMs1_NtNtCs7wZ7Ymcehhq_6silent4core8responseNtB5_8Response14extensions_mutB9_
FN:214,_RNvMs1_NtNtCs7wZ7Ymcehhq_6silent4core8responseNtB5_8Response18copy_from_responseB9_
FN:132,_RNvMs1_NtNtCs7wZ7Ymcehhq_6silent4core8responseNtB5_8Response4bodyB9_
FN:171,_RNvMs1_NtNtCs7wZ7Ymcehhq_6silent4core8responseNtB5_8Response7configsB9_
FN:182,_RNvMs1_NtNtCs7wZ7Ymcehhq_6silent4core8responseNtB5_8Response7headersB9_
FN:121,_RNvMs1_NtNtCs7wZ7Ymcehhq_6silent4core8responseNtB5_8Response8set_bodyB9_
FN:126,_RNvMs1_NtNtCs7wZ7Ymcehhq_6silent4core8responseNtB5_8Response9with_bodyB9_
FN:223,_RNvXs2_NtNtCs7wZ7Ymcehhq_6silent4core8responseNtB5_8ResponseINtNtCsiMcf32LsBml_4core7convert4FromINtNtB11_6option6OptionlEE4fromB9_
FN:223,_RNvXs2_NtNtCs7wZ7Ymcehhq_6silent4core8responseNtB5_8ResponseINtNtCsiMcf32LsBml_4core7convert4FromNtNtCskxbBfrLNYPn_5alloc6string6StringE4fromB9_
FN:223,_RNvXs2_NtNtCs7wZ7Ymcehhq_6silent4core8responseNtB5_8ResponseINtNtCsiMcf32LsBml_4core7convert4FromNtNtNtNtB9_7handler15handler_wrapper5tests12HelloHandlerE4fromB9_
FN:223,_RNvXs2_NtNtCs7wZ7Ymcehhq_6silent4core8responseNtB5_8ResponseINtNtCsiMcf32LsBml_4core7convert4FromNtNvNtB5_5testss_25test_response_from_struct8TestDataE4fromB9_
FN:223,_RNvXs2_NtNtCs7wZ7Ymcehhq_6silent4core8responseNtB5_8ResponseINtNtCsiMcf32LsBml_4core7convert4FromNtNvNtB5_5testss_30test_response_from_json_object6PersonE4fromB9_
FN:223,_RNvXs2_NtNtCs7wZ7Ymcehhq_6silent4core8responseNtB5_8ResponseINtNtCsiMcf32LsBml_4core7convert4FromReE4fromB9_
FN:223,_RNvXs2_NtNtCs7wZ7Ymcehhq_6silent4core8responseNtB5_8ResponseINtNtCsiMcf32LsBml_4core7convert4FromlE4fromB9_
FN:372,_RNvNtNtNtCs7wZ7Ymcehhq_6silent4core8response5testss_18test_response_body
FN:259,_RNvNtNtNtCs7wZ7Ymcehhq_6silent4core8response5testss_18test_response_html
FN:268,_RNvNtNtNtCs7wZ7Ymcehhq_6silent4core8response5testss_18test_response_json
FN:250,_RNvNtNtNtCs7wZ7Ymcehhq_6silent4core8response5testss_18test_response_text
FN:242,_RNvNtNtNtCs7wZ7Ymcehhq_6silent4core8response5testss_19test_response_empty
FN:334,_RNvNtNtNtCs7wZ7Ymcehhq_6silent4core8response5testss_20test_response_status
FN:513,_RNvNtNtNtCs7wZ7Ymcehhq_6silent4core8response5testss_21test_response_configs
FN:425,_RNvNtNtNtCs7wZ7Ymcehhq_6silent4core8response5testss_21test_response_headers
FN:378,_RNvNtNtNtCs7wZ7Ymcehhq_6silent4core8response5testss_22test_response_set_body
FN:393,_RNvNtNtNtCs7wZ7Ymcehhq_6silent4core8response5testss_23test_response_take_body
FN:386,_RNvNtNtNtCs7wZ7Ymcehhq_6silent4core8response5testss_23test_response_with_body
FN:679,_RNvNtNtNtCs7wZ7Ymcehhq_6silent4core8response5testss_24test_response_empty_html
FN:686,_RNvNtNtNtCs7wZ7Ymcehhq_6silent4core8response5testss_24test_response_empty_json
FN:672,_RNvNtNtNtCs7wZ7Ymcehhq_6silent4core8response5testss_24test_response_empty_text
FN:491,_RNvNtNtNtCs7wZ7Ymcehhq_6silent4core8response5testss_24test_response_extensions
FN:700,_RNvNtNtNtCs7wZ7Ymcehhq_6silent4core8response5testss_24test_response_large_body
FN:447,_RNvNtNtNtCs7wZ7Ymcehhq_6silent4core8response5testss_24test_response_set_header
FN:340,_RNvNtNtNtCs7wZ7Ymcehhq_6silent4core8response5testss_24test_response_set_status
FN:519,_RNvNtNtNtCs7wZ7Ymcehhq_6silent4core8response5testss_25test_response_configs_mut
FN:595,_RNvNtNtNtCs7wZ7Ymcehhq_6silent4core8response5testss_25test_response_from_string
FN:609,_RNvNtNtNtCs7wZ7Ymcehhq_6silent4core8response5testss_25test_response_from_struct
FN:438,_RNvNtNtNtCs7wZ7Ymcehhq_6silent4core8response5testss_25test_response_headers_mut
FN:462,_RNvNtNtNtCs7wZ7Ymcehhq_6silent4core8response5testss_25test_response_with_header
FN:356,_RNvNtNtNtCs7wZ7Ymcehhq_6silent4core8response5testss_25test_response_with_status
FN:646,_RNvNtNtNtCs7wZ7Ymcehhq_6silent4core8response5testss_26test_response_debug_format
FN:602,_RNvNtNtNtCs7wZ7Ymcehhq_6silent4core8response5testss_26test_response_from_integer
FN:693,_RNvNtNtNtCs7wZ7Ymcehhq_6silent4core8response5testss_26test_response_unicode_text
FN:432,_RNvNtNtNtCs7wZ7Ymcehhq_6silent4core8response5testss_27test_response_headers_empty
FN:409,_RNvNtNtNtCs7wZ7Ymcehhq_6silent4core8response5testss_28test_response_content_length
FN:654,_RNvNtNtNtCs7wZ7Ymcehhq_6silent4core8response5testss_28test_response_display_format
FN:497,_RNvNtNtNtCs7wZ7Ymcehhq_6silent4core8response5testss_28test_response_extensions_mut
FN:622,_RNvNtNtNtCs7wZ7Ymcehhq_6silent4core8response5testss_29test_response_from_null_value
FN:401,_RNvNtNtNtCs7wZ7Ymcehhq_6silent4core8response5testss_29test_response_take_body_twice
FN:725,_RNvNtNtNtCs7wZ7Ymcehhq_6silent4core8response5testss_29test_response_version_default
FN:629,_RNvNtNtNtCs7wZ7Ymcehhq_6silent4core8response5testss_30test_response_from_json_object
FN:278,_RNvNtNtNtCs7wZ7Ymcehhq_6silent4core8response5testss_30test_response_json_with_struct
FN:476,_RNvNtNtNtCs7wZ7Ymcehhq_6silent4core8response5testss_30test_response_set_typed_header
FN:716,_RNvNtNtNtCs7wZ7Ymcehhq_6silent4core8response5testss_31test_response_status_code_range
FN:468,_RNvNtNtNtCs7wZ7Ymcehhq_6silent4core8response5testss_31test_response_with_header_chain
FN:362,_RNvNtNtNtCs7wZ7Ymcehhq_6silent4core8response5testss_31test_response_with_status_chain
FN:483,_RNvNtNtNtCs7wZ7Ymcehhq_6silent4core8response5testss_31test_response_with_typed_header
FN:560,_RNvNtNtNtCs7wZ7Ymcehhq_6silent4core8response5testss_32test_response_copy_from_response
FN:541,_RNvNtNtNtCs7wZ7Ymcehhq_6silent4core8response5testss_32test_response_get_config_success
FN:314,_RNvNtNtNtCs7wZ7Ymcehhq_6silent4core8response5testss_32test_response_redirect_empty_url
FN:294,_RNvNtNtNtCs7wZ7Ymcehhq_6silent4core8response5testss_32test_response_redirect_valid_url
FN:708,_RNvNtNtNtCs7wZ7Ymcehhq_6silent4core8response5testss_33test_response_set_body_after_take
FN:454,_RNvNtNtNtCs7wZ7Ymcehhq_6silent4core8response5testss_33test_response_set_header_multiple
FN:347,_RNvNtNtNtCs7wZ7Ymcehhq_6silent4core8response5testss_33test_response_set_status_multiple
FN:416,_RNvNtNtNtCs7wZ7Ymcehhq_6silent4core8response5testss_34test_response_content_length_empty
FN:661,_RNvNtNtNtCs7wZ7Ymcehhq_6silent4core8response5testss_34test_response_display_equals_debug
FN:526,_RNvNtNtNtCs7wZ7Ymcehhq_6silent4core8response5testss_34test_response_get_config_not_found
FN:323,_RNvNtNtNtCs7wZ7Ymcehhq_6silent4core8response5testss_34test_response_redirect_invalid_url
FN:305,_RNvNtNtNtCs7wZ7Ymcehhq_6silent4core8response5testss_35test_response_redirect_relative_url
FN:504,_RNvNtNtNtCs7wZ7Ymcehhq_6silent4core8response5testss_39test_response_extensions_insert_and_get
FN:533,_RNvNtNtNtCs7wZ7Ymcehhq_6silent4core8response5testss_39test_response_get_config_uncheck_panics
FN:550,_RNvNtNtNtCs7wZ7Ymcehhq_6silent4core8response5testss_40test_response_get_config_uncheck_success
FN:731,_RNvNtNtNtCs7wZ7Ymcehhq_6silent4core8response5testss_40test_response_multiple_headers_same_name
FN:584,_RNvNtNtNtCs7wZ7Ymcehhq_6silent4core8response5testss_45test_response_copy_from_response_empty_source
FN:573,_RNvNtNtNtCs7wZ7Ymcehhq_6silent4core8response5testss_55test_response_copy_from_response_preserves_some_headers
FN:91,_RNvMs0_NtNtCs7wZ7Ymcehhq_6silent4core8responseNtB5_8Response4htmlB9_
FN:83,_RNvMs0_NtNtCs7wZ7Ymcehhq_6silent4core8responseNtB5_8Response4textB9_
FN:45,_RNvMs0_NtNtCs7wZ7Ymcehhq_6silent4core8responseNtB5_8Response5empty
FN:57,_RNvMs0_NtNtCs7wZ7Ymcehhq_6silent4core8responseNtB5_8Response6statusB9_
FN:67,_RNvMs0_NtNtCs7wZ7Ymcehhq_6silent4core8responseNtB5_8Response8redirectB9_
FN:62,_RNvMs0_NtNtCs7wZ7Ymcehhq_6silent4core8responseNtB5_8Response9take_bodyB9_
FN:31,_RNvXNtNtCs7wZ7Ymcehhq_6silent4core8responseNtB2_8ResponseNtNtCsiMcf32LsBml_4core3fmt5Debug3fmtB6_
FN:38,_RNvXs_NtNtCs7wZ7Ymcehhq_6silent4core8responseNtB4_8ResponseNtNtCsiMcf32LsBml_4core3fmt7Display3fmtB8_
FNDA:0,_RINvMs0_NtNtCs9iG4RRqsTsR_6silent4core8responseNtB6_8Response4jsonNtNtCskxbBfrLNYPn_5alloc6string6StringECs9aLyz1Wdihv_11integration
FNDA:1,_RINvMs1_NtNtCs9iG4RRqsTsR_6silent4core8responseNtB6_8Response17with_typed_headerNtNtNtCs4sSFlm5qmXA_7headers6common12content_type11ContentTypeECs9aLyz1Wdihv_11integration
FNDA:0,_RNvMs1_NtNtCs9iG4RRqsTsR_6silent4core8responseNtB5_8Response11with_statusCs9aLyz1Wdihv_11integration
FNDA:1,_RNvMs1_NtNtCs9iG4RRqsTsR_6silent4core8responseNtB5_8Response9with_bodyCs9aLyz1Wdihv_11integration
FNDA:1,_RNvXs2_NtNtCs9iG4RRqsTsR_6silent4core8responseNtB5_8ResponseINtNtCsiMcf32LsBml_4core7convert4FromNtNtCskxbBfrLNYPn_5alloc6string6StringE4fromCs9aLyz1Wdihv_11integration
FNDA:0,_RINvMs0_NtNtCs9iG4RRqsTsR_6silent4core8responseNtB6_8Response4jsonpEBa_
FNDA:0,_RINvMs1_NtNtCs9iG4RRqsTsR_6silent4core8responseINtB6_8ResponsepE10get_configpEBa_
FNDA:0,_RINvMs1_NtNtCs9iG4RRqsTsR_6silent4core8responseINtB6_8ResponsepE17with_typed_headerpEBa_
FNDA:0,_RINvMs1_NtNtCs9iG4RRqsTsR_6silent4core8responseINtB6_8ResponsepE18get_config_uncheckpEBa_
FNDA:0,_RNCNvMs0_NtNtCs9iG4RRqsTsR_6silent4core8responseNtB7_8Response8redirect0Bb_
FNDA:0,_RNvMs0_NtNtCs9iG4RRqsTsR_6silent4core8responseNtB5_8Response4htmlB9_
FNDA:0,_RNvMs0_NtNtCs9iG4RRqsTsR_6silent4core8responseNtB5_8Response4textB9_
FNDA:0,_RNvMs0_NtNtCs9iG4RRqsTsR_6silent4core8responseNtB5_8Response6statusB9_
FNDA:0,_RNvMs0_NtNtCs9iG4RRqsTsR_6silent4core8responseNtB5_8Response8redirectB9_
FNDA:0,_RNvMs0_NtNtCs9iG4RRqsTsR_6silent4core8responseNtB5_8Response9take_bodyB9_
FNDA:0,_RNvMs1_NtNtCs9iG4RRqsTsR_6silent4core8responseINtB5_8ResponsepE10set_headerB9_
FNDA:0,_RNvMs1_NtNtCs9iG4RRqsTsR_6silent4core8responseINtB5_8ResponsepE11configs_mutB9_
FNDA:0,_RNvMs1_NtNtCs9iG4RRqsTsR_6silent4core8responseINtB5_8ResponsepE11with_headerB9_
FNDA:0,_RNvMs1_NtNtCs9iG4RRqsTsR_6silent4core8responseINtB5_8ResponsepE11with_statusB9_
FNDA:0,_RNvMs1_NtNtCs9iG4RRqsTsR_6silent4core8responseINtB5_8ResponsepE4bodyB9_
FNDA:0,_RNvMs1_NtNtCs9iG4RRqsTsR_6silent4core8responseINtB5_8ResponsepE7configsB9_
FNDA:0,_RNvMs1_NtNtCs9iG4RRqsTsR_6silent4core8responseINtB5_8ResponsepE7headersB9_
FNDA:0,_RNvMs1_NtNtCs9iG4RRqsTsR_6silent4core8responseINtB5_8ResponsepE9with_bodyB9_
FNDA:0,_RNvXININtNtCs9iG4RRqsTsR_6silent4core8responses2_0pENtB5_8ResponseINtNtCsiMcf32LsBml_4core7convert4FrompE4fromB9_
FNDA:0,_RNvXs_NtNtCs9iG4RRqsTsR_6silent4core8responseNtB4_8ResponseNtNtCsiMcf32LsBml_4core3fmt7Display3fmtB8_
FNDA:0,_RINvMs1_NtNtCs9iG4RRqsTsR_6silent4core8responseNtB6_8Response16set_typed_headerNtNtNtCs4sSFlm5qmXA_7headers6common12content_type11ContentTypeEBa_
FNDA:0,_RNvMs1_NtNtCs9iG4RRqsTsR_6silent4core8responseNtB5_8Response10extensionsB9_
FNDA:0,_RNvMs1_NtNtCs9iG4RRqsTsR_6silent4core8responseNtB5_8Response10set_statusB9_
FNDA:0,_RNvMs1_NtNtCs9iG4RRqsTsR_6silent4core8responseNtB5_8Response11headers_mutB9_
FNDA:0,_RNvMs1_NtNtCs9iG4RRqsTsR_6silent4core8responseNtB5_8Response14content_lengthB9_
FNDA:0,_RNvMs1_NtNtCs9iG4RRqsTsR_6silent4core8responseNtB5_8Response14extensions_mutB9_
FNDA:1,_RNvMs1_NtNtCs9iG4RRqsTsR_6silent4core8responseNtB5_8Response18copy_from_responseB9_
FNDA:1,_RNvMs1_NtNtCs9iG4RRqsTsR_6silent4core8responseNtB5_8Response8set_bodyB9_
FNDA:2,_RNvMs0_NtNtCs9iG4RRqsTsR_6silent4core8responseNtB5_8Response5empty
FNDA:0,_RNvXNtNtCs9iG4RRqsTsR_6silent4core8responseNtB2_8ResponseNtNtCsiMcf32LsBml_4core3fmt5Debug3fmtB6_
FNDA:0,_RINvMs0_NtNtCs7wZ7Ymcehhq_6silent4core8responseNtB6_8Response4jsonINtNtCsiMcf32LsBml_4core6option6OptionlEEBa_
FNDA:0,_RINvMs0_NtNtCs7wZ7Ymcehhq_6silent4core8responseNtB6_8Response4jsonNtNtCskxbBfrLNYPn_5alloc6string6StringEBa_
FNDA:3,_RINvMs0_NtNtCs7wZ7Ymcehhq_6silent4core8responseNtB6_8Response4jsonNtNtCslJa0pizjxGe_10serde_json5value5ValueEBa_
FNDA:1,_RINvMs0_NtNtCs7wZ7Ymcehhq_6silent4core8responseNtB6_8Response4jsonNtNtNtNtBa_7handler15handler_wrapper5tests12HelloHandlerEBa_
FNDA:1,_RINvMs0_NtNtCs7wZ7Ymcehhq_6silent4core8responseNtB6_8Response4jsonNtNvNtB6_5testss_25test_response_from_struct8TestDataEBa_
FNDA:1,_RINvMs0_NtNtCs7wZ7Ymcehhq_6silent4core8responseNtB6_8Response4jsonNtNvNtB6_5testss_30test_response_from_json_object6PersonEBa_
FNDA:1,_RINvMs0_NtNtCs7wZ7Ymcehhq_6silent4core8responseNtB6_8Response4jsonNtNvNtB6_5testss_30test_response_json_with_struct8TestDataEBa_
FNDA:0,_RINvMs0_NtNtCs7wZ7Ymcehhq_6silent4core8responseNtB6_8Response4jsonReEBa_
FNDA:1,_RINvMs0_NtNtCs7wZ7Ymcehhq_6silent4core8responseNtB6_8Response4jsonlEBa_
FNDA:2,_RINvMs1_NtNtCs7wZ7Ymcehhq_6silent4core8responseNtB6_8Response10get_configlEBa_
FNDA:188,_RINvMs1_NtNtCs7wZ7Ymcehhq_6silent4core8responseNtB6_8Response16set_typed_headerNtNtNtCs4sSFlm5qmXA_7headers6common12content_type11ContentTypeEBa_
FNDA:101,_RINvMs1_NtNtCs7wZ7Ymcehhq_6silent4core8responseNtB6_8Response17with_typed_headerNtNtNtCs4sSFlm5qmXA_7headers6common12content_type11ContentTypeEBa_
FNDA:1,_RINvMs1_NtNtCs7wZ7Ymcehhq_6silent4core8responseNtB6_8Response18get_config_unchecklEBa_
FNDA:0,_RNCNvMs0_NtNtCs7wZ7Ymcehhq_6silent4core8responseNtB7_8Response8redirect0Bb_
FNDA:95,_RNvMs1_NtNtCs7wZ7Ymcehhq_6silent4core8responseNtB5_8Response10extensionsB9_
FNDA:3,_RNvMs1_NtNtCs7wZ7Ymcehhq_6silent4core8responseNtB5_8Response10set_headerB9_
FNDA:67,_RNvMs1_NtNtCs7wZ7Ymcehhq_6silent4core8responseNtB5_8Response10set_statusB9_
FNDA:3,_RNvMs1_NtNtCs7wZ7Ymcehhq_6silent4core8responseNtB5_8Response11configs_mutB9_
FNDA:47,_RNvMs1_NtNtCs7wZ7Ymcehhq_6silent4core8responseNtB5_8Response11headers_mutB9_
FNDA:5,_RNvMs1_NtNtCs7wZ7Ymcehhq_6silent4core8responseNtB5_8Response11with_headerB9_
FNDA:5,_RNvMs1_NtNtCs7wZ7Ymcehhq_6silent4core8responseNtB5_8Response11with_statusB9_
FNDA:3,_RNvMs1_NtNtCs7wZ7Ymcehhq_6silent4core8responseNtB5_8Response14content_lengthB9_
FNDA:92,_RNvMs1_NtNtCs7wZ7Ymcehhq_6silent4core8responseNtB5_8Response14extensions_mutB9_
FNDA:140,_RNvMs1_NtNtCs7wZ7Ymcehhq_6silent4core8responseNtB5_8Response18copy_from_responseB9_
FNDA:6,_RNvMs1_NtNtCs7wZ7Ymcehhq_6silent4core8responseNtB5_8Response4bodyB9_
FNDA:2,_RNvMs1_NtNtCs7wZ7Ymcehhq_6silent4core8responseNtB5_8Response7configsB9_
FNDA:51,_RNvMs1_NtNtCs7wZ7Ymcehhq_6silent4core8responseNtB5_8Response7headersB9_
FNDA:393,_RNvMs1_NtNtCs7wZ7Ymcehhq_6silent4core8responseNtB5_8Response8set_bodyB9_
FNDA:101,_RNvMs1_NtNtCs7wZ7Ymcehhq_6silent4core8responseNtB5_8Response9with_bodyB9_
FNDA:1,_RNvXs2_NtNtCs7wZ7Ymcehhq_6silent4core8responseNtB5_8ResponseINtNtCsiMcf32LsBml_4core7convert4FromINtNtB11_6option6OptionlEE4fromB9_
FNDA:17,_RNvXs2_NtNtCs7wZ7Ymcehhq_6silent4core8responseNtB5_8ResponseINtNtCsiMcf32LsBml_4core7convert4FromNtNtCskxbBfrLNYPn_5alloc6string6StringE4fromB9_
FNDA:1,_RNvXs2_NtNtCs7wZ7Ymcehhq_6silent4core8responseNtB5_8ResponseINtNtCsiMcf32LsBml_4core7convert4FromNtNtNtNtB9_7handler15handler_wrapper5tests12HelloHandlerE4fromB9_
FNDA:1,_RNvXs2_NtNtCs7wZ7Ymcehhq_6silent4core8responseNtB5_8ResponseINtNtCsiMcf32LsBml_4core7convert4FromNtNvNtB5_5testss_25test_response_from_struct8TestDataE4fromB9_
FNDA:1,_RNvXs2_NtNtCs7wZ7Ymcehhq_6silent4core8responseNtB5_8ResponseINtNtCsiMcf32LsBml_4core7convert4FromNtNvNtB5_5testss_30test_response_from_json_object6PersonE4fromB9_
FNDA:83,_RNvXs2_NtNtCs7wZ7Ymcehhq_6silent4core8responseNtB5_8ResponseINtNtCsiMcf32LsBml_4core7convert4FromReE4fromB9_
FNDA:1,_RNvXs2_NtNtCs7wZ7Ymcehhq_6silent4core8responseNtB5_8ResponseINtNtCsiMcf32LsBml_4core7convert4FromlE4fromB9_
FNDA:1,_RNvNtNtNtCs7wZ7Ymcehhq_6silent4core8response5testss_18test_response_body
FNDA:1,_RNvNtNtNtCs7wZ7Ymcehhq_6silent4core8response5testss_18test_response_html
FNDA:1,_RNvNtNtNtCs7wZ7Ymcehhq_6silent4core8response5testss_18test_response_json
FNDA:1,_RNvNtNtNtCs7wZ7Ymcehhq_6silent4core8response5testss_18test_response_text
FNDA:1,_RNvNtNtNtCs7wZ7Ymcehhq_6silent4core8response5testss_19test_response_empty
FNDA:1,_RNvNtNtNtCs7wZ7Ymcehhq_6silent4core8response5testss_20test_response_status
FNDA:1,_RNvNtNtNtCs7wZ7Ymcehhq_6silent4core8response5testss_21test_response_configs
FNDA:1,_RNvNtNtNtCs7wZ7Ymcehhq_6silent4core8response5testss_21test_response_headers
FNDA:1,_RNvNtNtNtCs7wZ7Ymcehhq_6silent4core8response5testss_22test_response_set_body
FNDA:1,_RNvNtNtNtCs7wZ7Ymcehhq_6silent4core8response5testss_23test_response_take_body
FNDA:1,_RNvNtNtNtCs7wZ7Ymcehhq_6silent4core8response5testss_23test_response_with_body
FNDA:1,_RNvNtNtNtCs7wZ7Ymcehhq_6silent4core8response5testss_24test_response_empty_html
FNDA:1,_RNvNtNtNtCs7wZ7Ymcehhq_6silent4core8response5testss_24test_response_empty_json
FNDA:1,_RNvNtNtNtCs7wZ7Ymcehhq_6silent4core8response5testss_24test_response_empty_text
FNDA:1,_RNvNtNtNtCs7wZ7Ymcehhq_6silent4core8response5testss_24test_response_extensions
FNDA:1,_RNvNtNtNtCs7wZ7Ymcehhq_6silent4core8response5testss_24test_response_large_body
FNDA:1,_RNvNtNtNtCs7wZ7Ymcehhq_6silent4core8response5testss_24test_response_set_header
FNDA:1,_RNvNtNtNtCs7wZ7Ymcehhq_6silent4core8response5testss_24test_response_set_status
FNDA:1,_RNvNtNtNtCs7wZ7Ymcehhq_6silent4core8response5testss_25test_response_configs_mut
FNDA:1,_RNvNtNtNtCs7wZ7Ymcehhq_6silent4core8response5testss_25test_response_from_string
FNDA:1,_RNvNtNtNtCs7wZ7Ymcehhq_6silent4core8response5testss_25test_response_from_struct
FNDA:1,_RNvNtNtNtCs7wZ7Ymcehhq_6silent4core8response5testss_25test_response_headers_mut
FNDA:1,_RNvNtNtNtCs7wZ7Ymcehhq_6silent4core8response5testss_25test_response_with_header
FNDA:1,_RNvNtNtNtCs7wZ7Ymcehhq_6silent4core8response5testss_25test_response_with_status
FNDA:1,_RNvNtNtNtCs7wZ7Ymcehhq_6silent4core8response5testss_26test_response_debug_format
FNDA:1,_RNvNtNtNtCs7wZ7Ymcehhq_6silent4core8response5testss_26test_response_from_integer
FNDA:1,_RNvNtNtNtCs7wZ7Ymcehhq_6silent4core8response5testss_26test_response_unicode_text
FNDA:1,_RNvNtNtNtCs7wZ7Ymcehhq_6silent4core8response5testss_27test_response_headers_empty
FNDA:1,_RNvNtNtNtCs7wZ7Ymcehhq_6silent4core8response5testss_28test_response_content_length
FNDA:1,_RNvNtNtNtCs7wZ7Ymcehhq_6silent4core8response5testss_28test_response_display_format
FNDA:1,_RNvNtNtNtCs7wZ7Ymcehhq_6silent4core8response5testss_28test_response_extensions_mut
FNDA:1,_RNvNtNtNtCs7wZ7Ymcehhq_6silent4core8response5testss_29test_response_from_null_value
FNDA:1,_RNvNtNtNtCs7wZ7Ymcehhq_6silent4core8response5testss_29test_response_take_body_twice
FNDA:1,_RNvNtNtNtCs7wZ7Ymcehhq_6silent4core8response5testss_29test_response_version_default
FNDA:1,_RNvNtNtNtCs7wZ7Ymcehhq_6silent4core8response5testss_30test_response_from_json_object
FNDA:1,_RNvNtNtNtCs7wZ7Ymcehhq_6silent4core8response5testss_30test_response_json_with_struct
FNDA:1,_RNvNtNtNtCs7wZ7Ymcehhq_6silent4core8response5testss_30test_response_set_typed_header
FNDA:1,_RNvNtNtNtCs7wZ7Ymcehhq_6silent4core8response5testss_31test_response_status_code_range
FNDA:1,_RNvNtNtNtCs7wZ7Ymcehhq_6silent4core8response5testss_31test_response_with_header_chain
FNDA:1,_RNvNtNtNtCs7wZ7Ymcehhq_6silent4core8response5testss_31test_response_with_status_chain
FNDA:1,_RNvNtNtNtCs7wZ7Ymcehhq_6silent4core8response5testss_31test_response_with_typed_header
FNDA:1,_RNvNtNtNtCs7wZ7Ymcehhq_6silent4core8response5testss_32test_response_copy_from_response
FNDA:1,_RNvNtNtNtCs7wZ7Ymcehhq_6silent4core8response5testss_32test_response_get_config_success
FNDA:1,_RNvNtNtNtCs7wZ7Ymcehhq_6silent4core8response5testss_32test_response_redirect_empty_url
FNDA:1,_RNvNtNtNtCs7wZ7Ymcehhq_6silent4core8response5testss_32test_response_redirect_valid_url
FNDA:1,_RNvNtNtNtCs7wZ7Ymcehhq_6silent4core8response5testss_33test_response_set_body_after_take
FNDA:1,_RNvNtNtNtCs7wZ7Ymcehhq_6silent4core8response5testss_33test_response_set_header_multiple
FNDA:1,_RNvNtNtNtCs7wZ7Ymcehhq_6silent4core8response5testss_33test_response_set_status_multiple
FNDA:1,_RNvNtNtNtCs7wZ7Ymcehhq_6silent4core8response5testss_34test_response_content_length_empty
FNDA:1,_RNvNtNtNtCs7wZ7Ymcehhq_6silent4core8response5testss_34test_response_display_equals_debug
FNDA:1,_RNvNtNtNtCs7wZ7Ymcehhq_6silent4core8response5testss_34test_response_get_config_not_found
FNDA:1,_RNvNtNtNtCs7wZ7Ymcehhq_6silent4core8response5testss_34test_response_redirect_invalid_url
FNDA:1,_RNvNtNtNtCs7wZ7Ymcehhq_6silent4core8response5testss_35test_response_redirect_relative_url
FNDA:1,_RNvNtNtNtCs7wZ7Ymcehhq_6silent4core8response5testss_39test_response_extensions_insert_and_get
FNDA:1,_RNvNtNtNtCs7wZ7Ymcehhq_6silent4core8response5testss_39test_response_get_config_uncheck_panics
FNDA:1,_RNvNtNtNtCs7wZ7Ymcehhq_6silent4core8response5testss_40test_response_get_config_uncheck_success
FNDA:1,_RNvNtNtNtCs7wZ7Ymcehhq_6silent4core8response5testss_40test_response_multiple_headers_same_name
FNDA:1,_RNvNtNtNtCs7wZ7Ymcehhq_6silent4core8response5testss_45test_response_copy_from_response_empty_source
FNDA:1,_RNvNtNtNtCs7wZ7Ymcehhq_6silent4core8response5testss_55test_response_copy_from_response_preserves_some_headers
FNDA:4,_RNvMs0_NtNtCs7wZ7Ymcehhq_6silent4core8responseNtB5_8Response4htmlB9_
FNDA:156,_RNvMs0_NtNtCs7wZ7Ymcehhq_6silent4core8responseNtB5_8Response4textB9_
FNDA:630,_RNvMs0_NtNtCs7wZ7Ymcehhq_6silent4core8responseNtB5_8Response5empty
FNDA:60,_RNvMs0_NtNtCs7wZ7Ymcehhq_6silent4core8responseNtB5_8Response6statusB9_
FNDA:4,_RNvMs0_NtNtCs7wZ7Ymcehhq_6silent4core8responseNtB5_8Response8redirectB9_
FNDA:12,_RNvMs0_NtNtCs7wZ7Ymcehhq_6silent4core8responseNtB5_8Response9take_bodyB9_
FNDA:4,_RNvXNtNtCs7wZ7Ymcehhq_6silent4core8responseNtB2_8ResponseNtNtCsiMcf32LsBml_4core3fmt5Debug3fmtB6_
FNDA:2,_RNvXs_NtNtCs7wZ7Ymcehhq_6silent4core8responseNtB4_8ResponseNtNtCsiMcf32LsBml_4core3fmt7Display3fmtB8_
FNF:89
FNH:88
DA:31,4
DA:32,4
DA:33,4
DA:38,2
DA:39,2
DA:40,2
DA:45,632
DA:46,632
DA:47,632
DA:48,632
DA:49,632
DA:50,632
DA:51,632
DA:52,632
DA:53,632
DA:54,632
DA:57,60
DA:58,60
DA:59,60
DA:62,12
DA:63,12
DA:64,12
DA:67,4
DA:68,4
DA:69,4
DA:70,4
DA:71,4
DA:72,4
DA:73,0
DA:75,0
DA:77,0
DA:79,4
DA:80,4
DA:83,156
DA:84,156
DA:85,156
DA:86,156
DA:87,156
DA:88,156
DA:91,4
DA:92,4
DA:93,4
DA:94,4
DA:95,4
DA:96,4
DA:99,8
DA:100,8
DA:101,8
DA:102,8
DA:103,8
DA:104,8
DA:110,67
DA:111,67
DA:112,67
DA:115,5
DA:116,5
DA:117,5
DA:118,5
DA:121,394
DA:122,394
DA:123,394
DA:126,102
DA:127,102
DA:128,102
DA:129,102
DA:132,6
DA:133,6
DA:134,6
DA:137,3
DA:138,3
DA:139,3
DA:142,5
DA:143,5
DA:144,5
DA:145,5
DA:148,95
DA:149,95
DA:150,95
DA:153,92
DA:154,92
DA:155,92
DA:159,2
DA:160,2
DA:161,2
DA:165,1
DA:166,1
DA:167,1
DA:171,2
DA:172,2
DA:173,2
DA:177,3
DA:178,3
DA:179,3
DA:182,51
DA:183,51
DA:184,51
DA:187,47
DA:188,47
DA:189,47
DA:192,3
DA:193,3
DA:194,3
DA:197,188
DA:198,188
DA:199,188
DA:201,188
DA:202,188
DA:205,102
DA:206,102
DA:207,102
DA:209,102
DA:210,102
DA:211,102
DA:214,141
DA:215,141
DA:216,141
DA:217,141
DA:218,141
DA:219,141
DA:223,106
DA:224,106
DA:225,101
DA:226,101
DA:227,101
DA:228,1
DA:229,4
DA:231,106
DA:242,1
DA:243,1
DA:244,1
DA:245,1
DA:246,1
DA:247,1
DA:250,1
DA:251,1
DA:252,1
DA:253,1
DA:254,1
DA:255,1
DA:256,1
DA:259,1
DA:260,1
DA:261,1
DA:262,1
DA:263,1
DA:264,1
DA:265,1
DA:268,1
DA:269,1
DA:270,1
DA:271,1
DA:272,1
DA:273,1
DA:274,1
DA:275,1
DA:278,1
DA:284,1
DA:285,1
DA:286,1
DA:287,1
DA:288,1
DA:289,1
DA:290,1
DA:291,1
DA:294,1
DA:295,1
DA:296,1
DA:297,1
DA:298,1
DA:299,1
DA:300,1
DA:301,1
DA:302,1
DA:305,1
DA:306,1
DA:307,1
DA:308,1
DA:309,1
DA:310,1
DA:311,1
DA:314,1
DA:315,1
DA:317,1
DA:318,1
DA:319,1
DA:320,1
DA:323,1
DA:324,1
DA:326,1
DA:327,1
DA:328,1
DA:329,1
DA:334,1
DA:335,1
DA:336,1
DA:337,1
DA:340,1
DA:341,1
DA:342,1
DA:343,1
DA:344,1
DA:347,1
DA:348,1
DA:349,1
DA:350,1
DA:351,1
DA:352,1
DA:353,1
DA:356,1
DA:357,1
DA:358,1
DA:359,1
DA:362,1
DA:363,1
DA:364,1
DA:365,1
DA:366,1
DA:367,1
DA:372,1
DA:373,1
DA:374,1
DA:375,1
DA:378,1
DA:379,1
DA:380,1
DA:381,1
DA:382,1
DA:383,1
DA:386,1
DA:387,1
DA:388,1
DA:389,1
DA:390,1
DA:393,1
DA:394,1
DA:395,1
DA:396,1
DA:397,1
DA:398,1
DA:401,1
DA:402,1
DA:403,1
DA:404,1
DA:405,1
DA:406,1
DA:409,1
DA:410,1
DA:411,1
DA:412,1
DA:413,1
DA:416,1
DA:417,1
DA:418,1
DA:419,1
DA:420,1
DA:425,1
DA:426,1
DA:427,1
DA:428,1
DA:429,1
DA:432,1
DA:433,1
DA:434,1
DA:435,1
DA:438,1
DA:439,1
DA:440,1
DA:441,1
DA:442,1
DA:443,1
DA:444,1
DA:447,1
DA:448,1
DA:449,1
DA:450,1
DA:451,1
DA:454,1
DA:455,1
DA:456,1
DA:457,1
DA:458,1
DA:459,1
DA:462,1
DA:463,1
DA:464,1
DA:465,1
DA:468,1
DA:469,1
DA:470,1
DA:471,1
DA:472,1
DA:473,1
DA:476,1
DA:477,1
DA:478,1
DA:479,1
DA:480,1
DA:483,1
DA:484,1
DA:485,1
DA:486,1
DA:491,1
DA:492,1
DA:493,1
DA:494,1
DA:497,1
DA:498,1
DA:499,1
DA:500,1
DA:501,1
DA:504,1
DA:505,1
DA:506,1
DA:507,1
DA:508,1
DA:513,1
DA:514,1
DA:515,1
DA:516,1
DA:519,1
DA:520,1
DA:521,1
DA:522,1
DA:523,1
DA:526,1
DA:527,1
DA:528,1
DA:529,1
DA:530,1
DA:533,1
DA:538,1
DA:541,1
DA:542,1
DA:543,1
DA:544,1
DA:545,1
DA:546,1
DA:547,1
DA:550,1
DA:551,1
DA:552,1
DA:553,1
DA:554,1
DA:555,1
DA:560,1
DA:561,1
DA:562,1
DA:563,1
DA:564,1
DA:566,1
DA:567,1
DA:568,1
DA:569,1
DA:570,1
DA:573,1
DA:574,1
DA:575,1
DA:576,1
DA:578,1
DA:580,1
DA:581,1
DA:584,1
DA:585,1
DA:586,1
DA:588,1
DA:589,1
DA:590,1
DA:595,1
DA:596,1
DA:597,1
DA:598,1
DA:599,1
DA:602,1
DA:603,1
DA:604,1
DA:605,1
DA:606,1
DA:609,1
DA:614,1
DA:615,1
DA:616,1
DA:617,1
DA:618,1
DA:619,1
DA:622,1
DA:623,1
DA:624,1
DA:625,1
DA:626,1
DA:629,1
DA:635,1
DA:636,1
DA:637,1
DA:638,1
DA:639,1
DA:640,1
DA:641,1
DA:646,1
DA:647,1
DA:648,1
DA:649,1
DA:650,1
DA:651,1
DA:654,1
DA:655,1
DA:656,1
DA:657,1
DA:658,1
DA:661,1
DA:662,1
DA:663,1
DA:664,1
DA:666,1
DA:667,1
DA:672,1
DA:673,1
DA:674,1
DA:675,1
DA:676,1
DA:679,1
DA:680,1
DA:681,1
DA:682,1
DA:683,1
DA:686,1
DA:687,1
DA:688,1
DA:689,1
DA:690,1
DA:693,1
DA:694,1
DA:695,1
DA:696,1
DA:697,1
DA:700,1
DA:701,1
DA:702,1
DA:703,1
DA:704,1
DA:705,1
DA:708,1
DA:709,1
DA:710,1
DA:711,1
DA:712,1
DA:713,1
DA:716,1
DA:717,1
DA:718,5
DA:719,5
DA:720,5
DA:722,1
DA:725,1
DA:726,1
DA:727,1
DA:728,1
DA:731,1
DA:732,1
DA:733,1
DA:734,1
DA:735,1
DA:736,1
DA:737,1
DA:738,1
DA:739,1
BRF:0
BRH:0
LF:467
LH:460
end_of_record
SF:/Users/hubertshelley/Documents/silent/silent/silent/src/core/serde/mod.rs
FN:18,_RINvNtNtCs9iG4RRqsTsR_6silent4core5serde12from_str_mapppppEB6_
FN:32,_RINvNtNtCs9iG4RRqsTsR_6silent4core5serde12from_str_valppEB6_
FN:62,_RINvXNtNtCs9iG4RRqsTsR_6silent4core5serdeNtB3_15ValueEnumAccessNtNtCs2wpcYnWkYL6_10serde_core2de10EnumAccess12variant_seedpEB7_
FN:43,_RINvXs1_NtNtCs9iG4RRqsTsR_6silent4core5serdeNtB6_8CowValueNtNtCs2wpcYnWkYL6_10serde_core2de12Deserializer14deserialize_i8pEBa_
FN:43,_RINvXs1_NtNtCs9iG4RRqsTsR_6silent4core5serdeNtB6_8CowValueNtNtCs2wpcYnWkYL6_10serde_core2de12Deserializer14deserialize_u8pEBa_
FN:125,_RINvXs1_NtNtCs9iG4RRqsTsR_6silent4core5serdeNtB6_8CowValueNtNtCs2wpcYnWkYL6_10serde_core2de12Deserializer15deserialize_anypEBa_
FN:43,_RINvXs1_NtNtCs9iG4RRqsTsR_6silent4core5serdeNtB6_8CowValueNtNtCs2wpcYnWkYL6_10serde_core2de12Deserializer15deserialize_f32pEBa_
FN:43,_RINvXs1_NtNtCs9iG4RRqsTsR_6silent4core5serdeNtB6_8CowValueNtNtCs2wpcYnWkYL6_10serde_core2de12Deserializer15deserialize_f64pEBa_
FN:43,_RINvXs1_NtNtCs9iG4RRqsTsR_6silent4core5serdeNtB6_8CowValueNtNtCs2wpcYnWkYL6_10serde_core2de12Deserializer15deserialize_i16pEBa_
FN:43,_RINvXs1_NtNtCs9iG4RRqsTsR_6silent4core5serdeNtB6_8CowValueNtNtCs2wpcYnWkYL6_10serde_core2de12Deserializer15deserialize_i32pEBa_
FN:43,_RINvXs1_NtNtCs9iG4RRqsTsR_6silent4core5serdeNtB6_8CowValueNtNtCs2wpcYnWkYL6_10serde_core2de12Deserializer15deserialize_i64pEBa_
FN:43,_RINvXs1_NtNtCs9iG4RRqsTsR_6silent4core5serdeNtB6_8CowValueNtNtCs2wpcYnWkYL6_10serde_core2de12Deserializer15deserialize_u16pEBa_
FN:43,_RINvXs1_NtNtCs9iG4RRqsTsR_6silent4core5serdeNtB6_8CowValueNtNtCs2wpcYnWkYL6_10serde_core2de12Deserializer15deserialize_u32pEBa_
FN:43,_RINvXs1_NtNtCs9iG4RRqsTsR_6silent4core5serdeNtB6_8CowValueNtNtCs2wpcYnWkYL6_10serde_core2de12Deserializer15deserialize_u64pEBa_
FN:43,_RINvXs1_NtNtCs9iG4RRqsTsR_6silent4core5serdeNtB6_8CowValueNtNtCs2wpcYnWkYL6_10serde_core2de12Deserializer16deserialize_boolpEBa_
FN:156,_RINvXs1_NtNtCs9iG4RRqsTsR_6silent4core5serdeNtB6_8CowValueNtNtCs2wpcYnWkYL6_10serde_core2de12Deserializer16deserialize_enumpEBa_
FN:136,_RINvXs1_NtNtCs9iG4RRqsTsR_6silent4core5serdeNtB6_8CowValueNtNtCs2wpcYnWkYL6_10serde_core2de12Deserializer18deserialize_optionpEBa_
FN:144,_RINvXs1_NtNtCs9iG4RRqsTsR_6silent4core5serdeNtB6_8CowValueNtNtCs2wpcYnWkYL6_10serde_core2de12Deserializer26deserialize_newtype_structpEBa_
FN:90,_RINvXs_NtNtCs9iG4RRqsTsR_6silent4core5serdeNtB5_21UnitOnlyVariantAccessNtNtCs2wpcYnWkYL6_10serde_core2de13VariantAccess13tuple_variantpEB9_
FN:98,_RINvXs_NtNtCs9iG4RRqsTsR_6silent4core5serdeNtB5_21UnitOnlyVariantAccessNtNtCs2wpcYnWkYL6_10serde_core2de13VariantAccess14struct_variantpEB9_
FN:82,_RINvXs_NtNtCs9iG4RRqsTsR_6silent4core5serdeNtB5_21UnitOnlyVariantAccessNtNtCs2wpcYnWkYL6_10serde_core2de13VariantAccess20newtype_variant_seedpEB9_
FN:27,_RNCINvNtNtCs9iG4RRqsTsR_6silent4core5serde12from_str_mapppppE0B8_
FN:77,_RNvXs_NtNtCs9iG4RRqsTsR_6silent4core5serdeNtB4_21UnitOnlyVariantAccessNtNtCs2wpcYnWkYL6_10serde_core2de13VariantAccess12unit_variantB8_
FN:116,_RNvXs0_NtNtCs9iG4RRqsTsR_6silent4core5serdeNtB5_8CowValueNtNtCs2wpcYnWkYL6_10serde_core2de16IntoDeserializer17into_deserializer
FN:43,_RINvXs1_NtNtCs7wZ7Ymcehhq_6silent4core5serdeNtB6_8CowValueNtNtCs2wpcYnWkYL6_10serde_core2de12Deserializer14deserialize_i8pEBa_
FN:43,_RINvXs1_NtNtCs7wZ7Ymcehhq_6silent4core5serdeNtB6_8CowValueNtNtCs2wpcYnWkYL6_10serde_core2de12Deserializer14deserialize_u8pEBa_
FN:43,_RINvXs1_NtNtCs7wZ7Ymcehhq_6silent4core5serdeNtB6_8CowValueNtNtCs2wpcYnWkYL6_10serde_core2de12Deserializer15deserialize_f32pEBa_
FN:43,_RINvXs1_NtNtCs7wZ7Ymcehhq_6silent4core5serdeNtB6_8CowValueNtNtCs2wpcYnWkYL6_10serde_core2de12Deserializer15deserialize_i16pEBa_
FN:43,_RINvXs1_NtNtCs7wZ7Ymcehhq_6silent4core5serdeNtB6_8CowValueNtNtCs2wpcYnWkYL6_10serde_core2de12Deserializer15deserialize_u16pEBa_
FN:144,_RINvXs1_NtNtCs7wZ7Ymcehhq_6silent4core5serdeNtB6_8CowValueNtNtCs2wpcYnWkYL6_10serde_core2de12Deserializer26deserialize_newtype_structpEBa_
FN:90,_RINvXs_NtNtCs7wZ7Ymcehhq_6silent4core5serdeNtB5_21UnitOnlyVariantAccessNtNtCs2wpcYnWkYL6_10serde_core2de13VariantAccess13tuple_variantpEB9_
FN:98,_RINvXs_NtNtCs7wZ7Ymcehhq_6silent4core5serdeNtB5_21UnitOnlyVariantAccessNtNtCs2wpcYnWkYL6_10serde_core2de13VariantAccess14struct_variantpEB9_
FN:82,_RINvXs_NtNtCs7wZ7Ymcehhq_6silent4core5serdeNtB5_21UnitOnlyVariantAccessNtNtCs2wpcYnWkYL6_10serde_core2de13VariantAccess20newtype_variant_seedpEB9_
FN:18,_RINvNtNtCs7wZ7Ymcehhq_6silent4core5serde12from_str_mapINtNtCskxbBfrLNYPn_5alloc3vec3VecTINtNtBV_6borrow3CoweEB1o_EENtNvNtB2_5testss_34test_from_str_map_with_cow_strings4TestB1o_B1o_EB6_
FN:18,_RINvNtNtCs7wZ7Ymcehhq_6silent4core5serde12from_str_mapINtNtCskxbBfrLNYPn_5alloc3vec3VecTReB1o_EENtNvNtB2_5testss_23test_from_str_map_empty5EmptyB1o_B1o_EB6_
FN:18,_RINvNtNtCs7wZ7Ymcehhq_6silent4core5serde12from_str_mapINtNtCskxbBfrLNYPn_5alloc3vec3VecTReB1o_EENtNvNtB2_5testss_25test_from_str_map_unicode11UnicodeTestB1o_B1o_EB6_
FN:18,_RINvNtNtCs7wZ7Ymcehhq_6silent4core5serde12from_str_mapINtNtCskxbBfrLNYPn_5alloc3vec3VecTReB1o_EENtNvNtB2_5testss_31test_from_str_map_missing_field8RequiredB1o_B1o_EB6_
FN:18,_RINvNtNtCs7wZ7Ymcehhq_6silent4core5serde12from_str_mapINtNtCskxbBfrLNYPn_5alloc3vec3VecTReB1o_EENtNvNtB2_5testss_31test_from_str_map_nested_struct5OuterB1o_B1o_EB6_
FN:18,_RINvNtNtCs7wZ7Ymcehhq_6silent4core5serde12from_str_mapINtNtCskxbBfrLNYPn_5alloc3vec3VecTReB1o_EENtNvNtB2_5testss_31test_from_str_map_simple_struct6ConfigB1o_B1o_EB6_
FN:18,_RINvNtNtCs7wZ7Ymcehhq_6silent4core5serde12from_str_mapINtNtCskxbBfrLNYPn_5alloc3vec3VecTReB1o_EENtNvNtB2_5testss_32test_from_str_map_duplicate_keys7DupTestB1o_B1o_EB6_
FN:18,_RINvNtNtCs7wZ7Ymcehhq_6silent4core5serde12from_str_mapINtNtCskxbBfrLNYPn_5alloc3vec3VecTReB1o_EENtNvNtB2_5testss_33test_from_str_map_multiple_fields10MultiFieldB1o_B1o_EB6_
FN:18,_RINvNtNtCs7wZ7Ymcehhq_6silent4core5serde12from_str_mapINtNtNtNtCsiMcf32LsBml_4core4iter8adapters3map3MapINtNtNtNtCsle0CjmPo1W9_3std11collections4hash3map4IterNtNtCskxbBfrLNYPn_5alloc6string6StringNtNtB4_10path_param9PathParamENCNCNvXNtNtB6_9extractor12from_requestINtNtB3L_5types4PathB2w_ENtB3J_11FromRequest12from_request00EB2w_ReB2w_EB6_
FN:18,_RINvNtNtCs7wZ7Ymcehhq_6silent4core5serde12from_str_mapINtNtNtNtCsiMcf32LsBml_4core4iter8adapters3map3MapINtNtNtNtCsle0CjmPo1W9_3std11collections4hash3map4IterNtNtCskxbBfrLNYPn_5alloc6string6StringNtNtB4_10path_param9PathParamENCNCNvXNtNtB6_9extractor12from_requestINtNtB3L_5types4PathNtNCNvNtB3L_5testss_27test_path_single_and_struct01UENtB3J_11FromRequest12from_request00EB4y_ReB2w_EB6_
FN:18,_RINvNtNtCs7wZ7Ymcehhq_6silent4core5serde12from_str_mapINtNtNtNtCsiMcf32LsBml_4core4iter8adapters3map3MapINtNtNtNtCsle0CjmPo1W9_3std11collections4hash3map4IterNtNtCskxbBfrLNYPn_5alloc6string6StringNtNtB4_10path_param9PathParamENCNCNvXNtNtB6_9extractor12from_requestINtNtB3L_5types4PathlENtB3J_11FromRequest12from_request00ElReB2w_EB6_
FN:18,_RINvNtNtCs7wZ7Ymcehhq_6silent4core5serde12from_str_mapINtNtNtNtCsiMcf32LsBml_4core4iter8adapters3map3MapINtNtNtNtCsle0CjmPo1W9_3std11collections4hash3map4IterNtNtCskxbBfrLNYPn_5alloc6string6StringNtNtB4_10path_param9PathParamENCNCNvXNtNtB6_9extractor12from_requestINtNtB3L_5types4PathmENtB3J_11FromRequest12from_request00EmReB2w_EB6_
FN:18,_RINvNtNtCs7wZ7Ymcehhq_6silent4core5serde12from_str_mapINtNtNtNtCsiMcf32LsBml_4core4iter8adapters3map3MapINtNtNtNtCsle0CjmPo1W9_3std11collections4hash3map4IterNtNtCskxbBfrLNYPn_5alloc6string6StringNtNtB4_10path_param9PathParamENCNCNvXNtNtB6_9extractor12from_requestINtNtB3L_5types4PathxENtB3J_11FromRequest12from_request00ExReB2w_EB6_
FN:18,_RINvNtNtCs7wZ7Ymcehhq_6silent4core5serde12from_str_mapINtNtNtNtCsiMcf32LsBml_4core4iter8adapters3map3MapINtNtNtNtCsle0CjmPo1W9_3std11collections4hash3map4IterNtNtCskxbBfrLNYPn_5alloc6string6StringNtNtB4_10path_param9PathParamENCNCNvXNtNtB6_9extractor12from_requestINtNtB3L_5types4PathyENtB3J_11FromRequest12from_request00EyReB2w_EB6_
FN:32,_RINvNtNtCs7wZ7Ymcehhq_6silent4core5serde12from_str_valReINtNtCsiMcf32LsBml_4core6option6OptionNtNtCskxbBfrLNYPn_5alloc6string6StringEEB6_
FN:32,_RINvNtNtCs7wZ7Ymcehhq_6silent4core5serde12from_str_valReNtNCNvNtNtB6_9extractor5testss_27test_path_single_and_struct01UEB6_
FN:32,_RINvNtNtCs7wZ7Ymcehhq_6silent4core5serde12from_str_valReNtNtCskxbBfrLNYPn_5alloc6string6StringEB6_
FN:32,_RINvNtNtCs7wZ7Ymcehhq_6silent4core5serde12from_str_valReNtNvNtB2_5testss_24test_from_str_val_struct6PersonEB6_
FN:32,_RINvNtNtCs7wZ7Ymcehhq_6silent4core5serde12from_str_valReNtNvNtB2_5testss_34test_value_enum_access_simple_enum5ColorEB6_
FN:32,_RINvNtNtCs7wZ7Ymcehhq_6silent4core5serde12from_str_valReNtNvNtB2_5testss_38test_value_enum_access_invalid_variant5ColorEB6_
FN:32,_RINvNtNtCs7wZ7Ymcehhq_6silent4core5serde12from_str_valReNtNvNtB2_5testss_42test_unit_only_variant_access_unit_variant10SimpleEnumEB6_
FN:32,_RINvNtNtCs7wZ7Ymcehhq_6silent4core5serde12from_str_valRebEB6_
FN:32,_RINvNtNtCs7wZ7Ymcehhq_6silent4core5serde12from_str_valRedEB6_
FN:32,_RINvNtNtCs7wZ7Ymcehhq_6silent4core5serde12from_str_valRelEB6_
FN:32,_RINvNtNtCs7wZ7Ymcehhq_6silent4core5serde12from_str_valRemEB6_
FN:32,_RINvNtNtCs7wZ7Ymcehhq_6silent4core5serde12from_str_valRexEB6_
FN:32,_RINvNtNtCs7wZ7Ymcehhq_6silent4core5serde12from_str_valReyEB6_
FN:62,_RINvXNtNtCs7wZ7Ymcehhq_6silent4core5serdeNtB3_15ValueEnumAccessNtNtCs2wpcYnWkYL6_10serde_core2de10EnumAccess12variant_seedINtNtCsiMcf32LsBml_4core6marker11PhantomDataNtNvXNvNtNtB3_9multipart5tests1__NtB2L_6StatusNtB11_11Deserialize11deserialize7___FieldEEB7_
FN:62,_RINvXNtNtCs7wZ7Ymcehhq_6silent4core5serdeNtB3_15ValueEnumAccessNtNtCs2wpcYnWkYL6_10serde_core2de10EnumAccess12variant_seedINtNtCsiMcf32LsBml_4core6marker11PhantomDataNtNvXNvNtNtB3_9multipart5testss_1__NtB2L_5ColorNtB11_11Deserialize11deserialize7___FieldEEB7_
FN:62,_RINvXNtNtCs7wZ7Ymcehhq_6silent4core5serdeNtB3_15ValueEnumAccessNtNtCs2wpcYnWkYL6_10serde_core2de10EnumAccess12variant_seedINtNtCsiMcf32LsBml_4core6marker11PhantomDataNtNvXNvNvNtB3_5testss_34test_value_enum_access_simple_enum1__NtB2L_5ColorNtB11_11Deserialize11deserialize7___FieldEEB7_
FN:62,_RINvXNtNtCs7wZ7Ymcehhq_6silent4core5serdeNtB3_15ValueEnumAccessNtNtCs2wpcYnWkYL6_10serde_core2de10EnumAccess12variant_seedINtNtCsiMcf32LsBml_4core6marker11PhantomDataNtNvXNvNvNtB3_5testss_38test_value_enum_access_invalid_variant1__NtB2L_5ColorNtB11_11Deserialize11deserialize7___FieldEEB7_
FN:62,_RINvXNtNtCs7wZ7Ymcehhq_6silent4core5serdeNtB3_15ValueEnumAccessNtNtCs2wpcYnWkYL6_10serde_core2de10EnumAccess12variant_seedINtNtCsiMcf32LsBml_4core6marker11PhantomDataNtNvXNvNvNtB3_5testss_42test_unit_only_variant_access_unit_variant1__NtB2L_10SimpleEnumNtB11_11Deserialize11deserialize7___FieldEEB7_
FN:125,_RINvXs1_NtNtCs7wZ7Ymcehhq_6silent4core5serdeNtB6_8CowValueNtNtCs2wpcYnWkYL6_10serde_core2de12Deserializer15deserialize_anyNtNtBW_11ignored_any10IgnoredAnyEBa_
FN:125,_RINvXs1_NtNtCs7wZ7Ymcehhq_6silent4core5serdeNtB6_8CowValueNtNtCs2wpcYnWkYL6_10serde_core2de12Deserializer15deserialize_anyNtNtBW_5impls13StringVisitorEBa_
FN:125,_RINvXs1_NtNtCs7wZ7Ymcehhq_6silent4core5serdeNtB6_8CowValueNtNtCs2wpcYnWkYL6_10serde_core2de12Deserializer15deserialize_anyNtNvXNvNCNvNtNtBa_9extractor5testss_27test_path_single_and_struct01__NtB23_1UNtBW_11Deserialize11deserialize14___FieldVisitorEBa_
FN:125,_RINvXs1_NtNtCs7wZ7Ymcehhq_6silent4core5serdeNtB6_8CowValueNtNtCs2wpcYnWkYL6_10serde_core2de12Deserializer15deserialize_anyNtNvXNvNCNvNtNtBa_9extractor5testss_27test_path_single_and_struct01__NtB23_1UNtBW_11Deserialize11deserialize9___VisitorEBa_
FN:125,_RINvXs1_NtNtCs7wZ7Ymcehhq_6silent4core5serdeNtB6_8CowValueNtNtCs2wpcYnWkYL6_10serde_core2de12Deserializer15deserialize_anyNtNvXNvNvNtB6_5testss_23test_from_str_map_empty1__NtB23_5EmptyNtBW_11Deserialize11deserialize14___FieldVisitorEBa_
FN:125,_RINvXs1_NtNtCs7wZ7Ymcehhq_6silent4core5serdeNtB6_8CowValueNtNtCs2wpcYnWkYL6_10serde_core2de12Deserializer15deserialize_anyNtNvXNvNvNtB6_5testss_24test_from_str_val_struct1__NtB23_6PersonNtBW_11Deserialize11deserialize9___VisitorEBa_
FN:125,_RINvXs1_NtNtCs7wZ7Ymcehhq_6silent4core5serdeNtB6_8CowValueNtNtCs2wpcYnWkYL6_10serde_core2de12Deserializer15deserialize_anyNtNvXNvNvNtB6_5testss_25test_from_str_map_unicode1__NtB23_11UnicodeTestNtBW_11Deserialize11deserialize14___FieldVisitorEBa_
FN:125,_RINvXs1_NtNtCs7wZ7Ymcehhq_6silent4core5serdeNtB6_8CowValueNtNtCs2wpcYnWkYL6_10serde_core2de12Deserializer15deserialize_anyNtNvXNvNvNtB6_5testss_31test_from_str_map_missing_field1__NtB23_8RequiredNtBW_11Deserialize11deserialize14___FieldVisitorEBa_
FN:125,_RINvXs1_NtNtCs7wZ7Ymcehhq_6silent4core5serdeNtB6_8CowValueNtNtCs2wpcYnWkYL6_10serde_core2de12Deserializer15deserialize_anyNtNvXNvNvNtB6_5testss_31test_from_str_map_nested_struct1__NtB23_5InnerNtBW_11Deserialize11deserialize9___VisitorEBa_
FN:125,_RINvXs1_NtNtCs7wZ7Ymcehhq_6silent4core5serdeNtB6_8CowValueNtNtCs2wpcYnWkYL6_10serde_core2de12Deserializer15deserialize_anyNtNvXNvNvNtB6_5testss_31test_from_str_map_nested_structs_1__NtB23_5OuterNtBW_11Deserialize11deserialize14___FieldVisitorEBa_
FN:125,_RINvXs1_NtNtCs7wZ7Ymcehhq_6silent4core5serdeNtB6_8CowValueNtNtCs2wpcYnWkYL6_10serde_core2de12Deserializer15deserialize_anyNtNvXNvNvNtB6_5testss_31test_from_str_map_simple_struct1__NtB23_6ConfigNtBW_11Deserialize11deserialize14___FieldVisitorEBa_
FN:125,_RINvXs1_NtNtCs7wZ7Ymcehhq_6silent4core5serdeNtB6_8CowValueNtNtCs2wpcYnWkYL6_10serde_core2de12Deserializer15deserialize_anyNtNvXNvNvNtB6_5testss_32test_from_str_map_duplicate_keys1__NtB23_7DupTestNtBW_11Deserialize11deserialize14___FieldVisitorEBa_
FN:125,_RINvXs1_NtNtCs7wZ7Ymcehhq_6silent4core5serdeNtB6_8CowValueNtNtCs2wpcYnWkYL6_10serde_core2de12Deserializer15deserialize_anyNtNvXNvNvNtB6_5testss_33test_from_str_map_multiple_fields1__NtB23_10MultiFieldNtBW_11Deserialize11deserialize14___FieldVisitorEBa_
FN:125,_RINvXs1_NtNtCs7wZ7Ymcehhq_6silent4core5serdeNtB6_8CowValueNtNtCs2wpcYnWkYL6_10serde_core2de12Deserializer15deserialize_anyNtNvXNvNvNtB6_5testss_34test_from_str_map_with_cow_strings1__NtB23_4TestNtBW_11Deserialize11deserialize14___FieldVisitorEBa_
FN:43,_RINvXs1_NtNtCs7wZ7Ymcehhq_6silent4core5serdeNtB6_8CowValueNtNtCs2wpcYnWkYL6_10serde_core2de12Deserializer15deserialize_f64NtNvXs1e_NtBW_5implsdNtBW_11Deserialize11deserialize16PrimitiveVisitorEBa_
FN:43,_RINvXs1_NtNtCs7wZ7Ymcehhq_6silent4core5serdeNtB6_8CowValueNtNtCs2wpcYnWkYL6_10serde_core2de12Deserializer15deserialize_i32NtNvXsR_NtBW_5implslNtBW_11Deserialize11deserialize16PrimitiveVisitorEBa_
FN:43,_RINvXs1_NtNtCs7wZ7Ymcehhq_6silent4core5serdeNtB6_8CowValueNtNtCs2wpcYnWkYL6_10serde_core2de12Deserializer15deserialize_i64NtNvXsU_NtBW_5implsxNtBW_11Deserialize11deserialize16PrimitiveVisitorEBa_
FN:43,_RINvXs1_NtNtCs7wZ7Ymcehhq_6silent4core5serdeNtB6_8CowValueNtNtCs2wpcYnWkYL6_10serde_core2de12Deserializer15deserialize_u32NtNvXs16_NtBW_5implsmNtBW_11Deserialize11deserialize16PrimitiveVisitorEBa_
FN:43,_RINvXs1_NtNtCs7wZ7Ymcehhq_6silent4core5serdeNtB6_8CowValueNtNtCs2wpcYnWkYL6_10serde_core2de12Deserializer15deserialize_u64NtNvXs19_NtBW_5implsyNtBW_11Deserialize11deserialize16PrimitiveVisitorEBa_
FN:43,_RINvXs1_NtNtCs7wZ7Ymcehhq_6silent4core5serdeNtB6_8CowValueNtNtCs2wpcYnWkYL6_10serde_core2de12Deserializer16deserialize_boolNtNtBW_5impls11BoolVisitorEBa_
FN:156,_RINvXs1_NtNtCs7wZ7Ymcehhq_6silent4core5serdeNtB6_8CowValueNtNtCs2wpcYnWkYL6_10serde_core2de12Deserializer16deserialize_enumNtNvXNvNvNtB6_5testss_34test_value_enum_access_simple_enum1__NtB24_5ColorNtBW_11Deserialize11deserialize9___VisitorEBa_
FN:156,_RINvXs1_NtNtCs7wZ7Ymcehhq_6silent4core5serdeNtB6_8CowValueNtNtCs2wpcYnWkYL6_10serde_core2de12Deserializer16deserialize_enumNtNvXNvNvNtB6_5testss_38test_value_enum_access_invalid_variant1__NtB24_5ColorNtBW_11Deserialize11deserialize9___VisitorEBa_
FN:156,_RINvXs1_NtNtCs7wZ7Ymcehhq_6silent4core5serdeNtB6_8CowValueNtNtCs2wpcYnWkYL6_10serde_core2de12Deserializer16deserialize_enumNtNvXNvNvNtB6_5testss_42test_unit_only_variant_access_unit_variant1__NtB24_10SimpleEnumNtBW_11Deserialize11deserialize9___VisitorEBa_
FN:136,_RINvXs1_NtNtCs7wZ7Ymcehhq_6silent4core5serdeNtB6_8CowValueNtNtCs2wpcYnWkYL6_10serde_core2de12Deserializer18deserialize_optionINtNtBW_5impls13OptionVisitorNtNtCskxbBfrLNYPn_5alloc6string6StringEEBa_
FN:27,_RNCINvNtNtCs7wZ7Ymcehhq_6silent4core5serde12from_str_mapINtNtCskxbBfrLNYPn_5alloc3vec3VecTINtNtBX_6borrow3CoweEB1q_EENtNvNtB4_5testss_34test_from_str_map_with_cow_strings4TestB1q_B1q_E0B8_
FN:27,_RNCINvNtNtCs7wZ7Ymcehhq_6silent4core5serde12from_str_mapINtNtCskxbBfrLNYPn_5alloc3vec3VecTReB1q_EENtNvNtB4_5testss_23test_from_str_map_empty5EmptyB1q_B1q_E0B8_
FN:27,_RNCINvNtNtCs7wZ7Ymcehhq_6silent4core5serde12from_str_mapINtNtCskxbBfrLNYPn_5alloc3vec3VecTReB1q_EENtNvNtB4_5testss_25test_from_str_map_unicode11UnicodeTestB1q_B1q_E0B8_
FN:27,_RNCINvNtNtCs7wZ7Ymcehhq_6silent4core5serde12from_str_mapINtNtCskxbBfrLNYPn_5alloc3vec3VecTReB1q_EENtNvNtB4_5testss_31test_from_str_map_missing_field8RequiredB1q_B1q_E0B8_
FN:27,_RNCINvNtNtCs7wZ7Ymcehhq_6silent4core5serde12from_str_mapINtNtCskxbBfrLNYPn_5alloc3vec3VecTReB1q_EENtNvNtB4_5testss_31test_from_str_map_nested_struct5OuterB1q_B1q_E0B8_
FN:27,_RNCINvNtNtCs7wZ7Ymcehhq_6silent4core5serde12from_str_mapINtNtCskxbBfrLNYPn_5alloc3vec3VecTReB1q_EENtNvNtB4_5testss_31test_from_str_map_simple_struct6ConfigB1q_B1q_E0B8_
FN:27,_RNCINvNtNtCs7wZ7Ymcehhq_6silent4core5serde12from_str_mapINtNtCskxbBfrLNYPn_5alloc3vec3VecTReB1q_EENtNvNtB4_5testss_32test_from_str_map_duplicate_keys7DupTestB1q_B1q_E0B8_
FN:27,_RNCINvNtNtCs7wZ7Ymcehhq_6silent4core5serde12from_str_mapINtNtCskxbBfrLNYPn_5alloc3vec3VecTReB1q_EENtNvNtB4_5testss_33test_from_str_map_multiple_fields10MultiFieldB1q_B1q_E0B8_
FN:27,_RNCINvNtNtCs7wZ7Ymcehhq_6silent4core5serde12from_str_mapINtNtNtNtCsiMcf32LsBml_4core4iter8adapters3map3MapINtNtNtNtCsle0CjmPo1W9_3std11collections4hash3map4IterNtNtCskxbBfrLNYPn_5alloc6string6StringNtNtB6_10path_param9PathParamENCNCNvXNtNtB8_9extractor12from_requestINtNtB3N_5types4PathB2y_ENtB3L_11FromRequest12from_request00EB2y_ReB2y_E0B8_
FN:27,_RNCINvNtNtCs7wZ7Ymcehhq_6silent4core5serde12from_str_mapINtNtNtNtCsiMcf32LsBml_4core4iter8adapters3map3MapINtNtNtNtCsle0CjmPo1W9_3std11collections4hash3map4IterNtNtCskxbBfrLNYPn_5alloc6string6StringNtNtB6_10path_param9PathParamENCNCNvXNtNtB8_9extractor12from_requestINtNtB3N_5types4PathNtNCNvNtB3N_5testss_27test_path_single_and_struct01UENtB3L_11FromRequest12from_request00EB4A_ReB2y_E0B8_
FN:27,_RNCINvNtNtCs7wZ7Ymcehhq_6silent4core5serde12from_str_mapINtNtNtNtCsiMcf32LsBml_4core4iter8adapters3map3MapINtNtNtNtCsle0CjmPo1W9_3std11collections4hash3map4IterNtNtCskxbBfrLNYPn_5alloc6string6StringNtNtB6_10path_param9PathParamENCNCNvXNtNtB8_9extractor12from_requestINtNtB3N_5types4PathlENtB3L_11FromRequest12from_request00ElReB2y_E0B8_
FN:27,_RNCINvNtNtCs7wZ7Ymcehhq_6silent4core5serde12from_str_mapINtNtNtNtCsiMcf32LsBml_4core4iter8adapters3map3MapINtNtNtNtCsle0CjmPo1W9_3std11collections4hash3map4IterNtNtCskxbBfrLNYPn_5alloc6string6StringNtNtB6_10path_param9PathParamENCNCNvXNtNtB8_9extractor12from_requestINtNtB3N_5types4PathmENtB3L_11FromRequest12from_request00EmReB2y_E0B8_
FN:27,_RNCINvNtNtCs7wZ7Ymcehhq_6silent4core5serde12from_str_mapINtNtNtNtCsiMcf32LsBml_4core4iter8adapters3map3MapINtNtNtNtCsle0CjmPo1W9_3std11collections4hash3map4IterNtNtCskxbBfrLNYPn_5alloc6string6StringNtNtB6_10path_param9PathParamENCNCNvXNtNtB8_9extractor12from_requestINtNtB3N_5types4PathxENtB3L_11FromRequest12from_request00ExReB2y_E0B8_
FN:27,_RNCINvNtNtCs7wZ7Ymcehhq_6silent4core5serde12from_str_mapINtNtNtNtCsiMcf32LsBml_4core4iter8adapters3map3MapINtNtNtNtCsle0CjmPo1W9_3std11collections4hash3map4IterNtNtCskxbBfrLNYPn_5alloc6string6StringNtNtB6_10path_param9PathParamENCNCNvXNtNtB8_9extractor12from_requestINtNtB3N_5types4PathyENtB3L_11FromRequest12from_request00EyReB2y_E0B8_
FN:116,_RNvXs0_NtNtCs7wZ7Ymcehhq_6silent4core5serdeNtB5_8CowValueNtNtCs2wpcYnWkYL6_10serde_core2de16IntoDeserializer17into_deserializer
FN:77,_RNvXs_NtNtCs7wZ7Ymcehhq_6silent4core5serdeNtB4_21UnitOnlyVariantAccessNtNtCs2wpcYnWkYL6_10serde_core2de13VariantAccess12unit_variantB8_
FN:381,_RNvNtNtNtCs7wZ7Ymcehhq_6silent4core5serde5testss_19test_cow_value_bool
FN:395,_RNvNtNtNtCs7wZ7Ymcehhq_6silent4core5serde5testss_20test_cow_value_float
FN:388,_RNvNtNtNtCs7wZ7Ymcehhq_6silent4core5serde5testss_22test_cow_value_integer
FN:513,_RNvNtNtNtCs7wZ7Ymcehhq_6silent4core5serde5testss_22test_cow_value_unicode
FN:220,_RNvNtNtNtCs7wZ7Ymcehhq_6silent4core5serde5testss_22test_from_str_val_bool
FN:467,_RNvNtNtNtCs7wZ7Ymcehhq_6silent4core5serde5testss_22test_from_str_val_zero
FN:319,_RNvNtNtNtCs7wZ7Ymcehhq_6silent4core5serde5testss_23test_from_str_map_empty
FN:229,_RNvNtNtNtCs7wZ7Ymcehhq_6silent4core5serde5testss_23test_from_str_val_float
FN:374,_RNvNtNtNtCs7wZ7Ymcehhq_6silent4core5serde5testss_24test_cow_value_owned_str
FN:208,_RNvNtNtNtCs7wZ7Ymcehhq_6silent4core5serde5testss_24test_from_str_val_string
FN:235,_RNvNtNtNtCs7wZ7Ymcehhq_6silent4core5serde5testss_24test_from_str_val_struct
FN:485,_RNvNtNtNtCs7wZ7Ymcehhq_6silent4core5serde5testss_25test_from_str_map_unicode
FN:214,_RNvNtNtNtCs7wZ7Ymcehhq_6silent4core5serde5testss_25test_from_str_val_integer
FN:473,_RNvNtNtNtCs7wZ7Ymcehhq_6silent4core5serde5testss_26test_from_str_val_negative
FN:254,_RNvNtNtNtCs7wZ7Ymcehhq_6silent4core5serde5testss_26test_from_str_val_optional
FN:367,_RNvNtNtNtCs7wZ7Ymcehhq_6silent4core5serde5testss_27test_cow_value_borrowed_str
FN:402,_RNvNtNtNtCs7wZ7Ymcehhq_6silent4core5serde5testss_27test_cow_value_invalid_bool
FN:409,_RNvNtNtNtCs7wZ7Ymcehhq_6silent4core5serde5testss_30test_cow_value_invalid_integer
FN:461,_RNvNtNtNtCs7wZ7Ymcehhq_6silent4core5serde5testss_30test_from_str_val_empty_string
FN:479,_RNvNtNtNtCs7wZ7Ymcehhq_6silent4core5serde5testss_30test_from_str_val_large_number
FN:330,_RNvNtNtNtCs7wZ7Ymcehhq_6silent4core5serde5testss_31test_from_str_map_missing_field
FN:282,_RNvNtNtNtCs7wZ7Ymcehhq_6silent4core5serde5testss_31test_from_str_map_nested_struct
FN:267,_RNvNtNtNtCs7wZ7Ymcehhq_6silent4core5serde5testss_31test_from_str_map_simple_struct
FN:500,_RNvNtNtNtCs7wZ7Ymcehhq_6silent4core5serde5testss_32test_from_str_map_duplicate_keys
FN:520,_RNvNtNtNtCs7wZ7Ymcehhq_6silent4core5serde5testss_33test_cow_value_special_characters
FN:300,_RNvNtNtNtCs7wZ7Ymcehhq_6silent4core5serde5testss_33test_from_str_map_multiple_fields
FN:248,_RNvNtNtNtCs7wZ7Ymcehhq_6silent4core5serde5testss_33test_from_str_val_invalid_integer
FN:344,_RNvNtNtNtCs7wZ7Ymcehhq_6silent4core5serde5testss_34test_from_str_map_with_cow_strings
FN:418,_RNvNtNtNtCs7wZ7Ymcehhq_6silent4core5serde5testss_34test_value_enum_access_simple_enum
FN:432,_RNvNtNtNtCs7wZ7Ymcehhq_6silent4core5serde5testss_38test_value_enum_access_invalid_variant
FN:446,_RNvNtNtNtCs7wZ7Ymcehhq_6silent4core5serde5testss_42test_unit_only_variant_access_unit_variant
FNDA:0,_RINvNtNtCs9iG4RRqsTsR_6silent4core5serde12from_str_mapppppEB6_
FNDA:0,_RINvNtNtCs9iG4RRqsTsR_6silent4core5serde12from_str_valppEB6_
FNDA:0,_RINvXNtNtCs9iG4RRqsTsR_6silent4core5serdeNtB3_15ValueEnumAccessNtNtCs2wpcYnWkYL6_10serde_core2de10EnumAccess12variant_seedpEB7_
FNDA:0,_RINvXs1_NtNtCs9iG4RRqsTsR_6silent4core5serdeNtB6_8CowValueNtNtCs2wpcYnWkYL6_10serde_core2de12Deserializer14deserialize_i8pEBa_
FNDA:0,_RINvXs1_NtNtCs9iG4RRqsTsR_6silent4core5serdeNtB6_8CowValueNtNtCs2wpcYnWkYL6_10serde_core2de12Deserializer14deserialize_u8pEBa_
FNDA:0,_RINvXs1_NtNtCs9iG4RRqsTsR_6silent4core5serdeNtB6_8CowValueNtNtCs2wpcYnWkYL6_10serde_core2de12Deserializer15deserialize_anypEBa_
FNDA:0,_RINvXs1_NtNtCs9iG4RRqsTsR_6silent4core5serdeNtB6_8CowValueNtNtCs2wpcYnWkYL6_10serde_core2de12Deserializer15deserialize_f32pEBa_
FNDA:0,_RINvXs1_NtNtCs9iG4RRqsTsR_6silent4core5serdeNtB6_8CowValueNtNtCs2wpcYnWkYL6_10serde_core2de12Deserializer15deserialize_f64pEBa_
FNDA:0,_RINvXs1_NtNtCs9iG4RRqsTsR_6silent4core5serdeNtB6_8CowValueNtNtCs2wpcYnWkYL6_10serde_core2de12Deserializer15deserialize_i16pEBa_
FNDA:0,_RINvXs1_NtNtCs9iG4RRqsTsR_6silent4core5serdeNtB6_8CowValueNtNtCs2wpcYnWkYL6_10serde_core2de12Deserializer15deserialize_i32pEBa_
FNDA:0,_RINvXs1_NtNtCs9iG4RRqsTsR_6silent4core5serdeNtB6_8CowValueNtNtCs2wpcYnWkYL6_10serde_core2de12Deserializer15deserialize_i64pEBa_
FNDA:0,_RINvXs1_NtNtCs9iG4RRqsTsR_6silent4core5serdeNtB6_8CowValueNtNtCs2wpcYnWkYL6_10serde_core2de12Deserializer15deserialize_u16pEBa_
FNDA:0,_RINvXs1_NtNtCs9iG4RRqsTsR_6silent4core5serdeNtB6_8CowValueNtNtCs2wpcYnWkYL6_10serde_core2de12Deserializer15deserialize_u32pEBa_
FNDA:0,_RINvXs1_NtNtCs9iG4RRqsTsR_6silent4core5serdeNtB6_8CowValueNtNtCs2wpcYnWkYL6_10serde_core2de12Deserializer15deserialize_u64pEBa_
FNDA:0,_RINvXs1_NtNtCs9iG4RRqsTsR_6silent4core5serdeNtB6_8CowValueNtNtCs2wpcYnWkYL6_10serde_core2de12Deserializer16deserialize_boolpEBa_
FNDA:0,_RINvXs1_NtNtCs9iG4RRqsTsR_6silent4core5serdeNtB6_8CowValueNtNtCs2wpcYnWkYL6_10serde_core2de12Deserializer16deserialize_enumpEBa_
FNDA:0,_RINvXs1_NtNtCs9iG4RRqsTsR_6silent4core5serdeNtB6_8CowValueNtNtCs2wpcYnWkYL6_10serde_core2de12Deserializer18deserialize_optionpEBa_
FNDA:0,_RINvXs1_NtNtCs9iG4RRqsTsR_6silent4core5serdeNtB6_8CowValueNtNtCs2wpcYnWkYL6_10serde_core2de12Deserializer26deserialize_newtype_structpEBa_
FNDA:0,_RINvXs_NtNtCs9iG4RRqsTsR_6silent4core5serdeNtB5_21UnitOnlyVariantAccessNtNtCs2wpcYnWkYL6_10serde_core2de13VariantAccess13tuple_variantpEB9_
FNDA:0,_RINvXs_NtNtCs9iG4RRqsTsR_6silent4core5serdeNtB5_21UnitOnlyVariantAccessNtNtCs2wpcYnWkYL6_10serde_core2de13VariantAccess14struct_variantpEB9_
FNDA:0,_RINvXs_NtNtCs9iG4RRqsTsR_6silent4core5serdeNtB5_21UnitOnlyVariantAccessNtNtCs2wpcYnWkYL6_10serde_core2de13VariantAccess20newtype_variant_seedpEB9_
FNDA:0,_RNCINvNtNtCs9iG4RRqsTsR_6silent4core5serde12from_str_mapppppE0B8_
FNDA:0,_RNvXs_NtNtCs9iG4RRqsTsR_6silent4core5serdeNtB4_21UnitOnlyVariantAccessNtNtCs2wpcYnWkYL6_10serde_core2de13VariantAccess12unit_variantB8_
FNDA:0,_RNvXs0_NtNtCs9iG4RRqsTsR_6silent4core5serdeNtB5_8CowValueNtNtCs2wpcYnWkYL6_10serde_core2de16IntoDeserializer17into_deserializer
FNDA:0,_RINvXs1_NtNtCs7wZ7Ymcehhq_6silent4core5serdeNtB6_8CowValueNtNtCs2wpcYnWkYL6_10serde_core2de12Deserializer14deserialize_i8pEBa_
FNDA:0,_RINvXs1_NtNtCs7wZ7Ymcehhq_6silent4core5serdeNtB6_8CowValueNtNtCs2wpcYnWkYL6_10serde_core2de12Deserializer14deserialize_u8pEBa_
FNDA:0,_RINvXs1_NtNtCs7wZ7Ymcehhq_6silent4core5serdeNtB6_8CowValueNtNtCs2wpcYnWkYL6_10serde_core2de12Deserializer15deserialize_f32pEBa_
FNDA:0,_RINvXs1_NtNtCs7wZ7Ymcehhq_6silent4core5serdeNtB6_8CowValueNtNtCs2wpcYnWkYL6_10serde_core2de12Deserializer15deserialize_i16pEBa_
FNDA:0,_RINvXs1_NtNtCs7wZ7Ymcehhq_6silent4core5serdeNtB6_8CowValueNtNtCs2wpcYnWkYL6_10serde_core2de12Deserializer15deserialize_u16pEBa_
FNDA:0,_RINvXs1_NtNtCs7wZ7Ymcehhq_6silent4core5serdeNtB6_8CowValueNtNtCs2wpcYnWkYL6_10serde_core2de12Deserializer26deserialize_newtype_structpEBa_
FNDA:0,_RINvXs_NtNtCs7wZ7Ymcehhq_6silent4core5serdeNtB5_21UnitOnlyVariantAccessNtNtCs2wpcYnWkYL6_10serde_core2de13VariantAccess13tuple_variantpEB9_
FNDA:0,_RINvXs_NtNtCs7wZ7Ymcehhq_6silent4core5serdeNtB5_21UnitOnlyVariantAccessNtNtCs2wpcYnWkYL6_10serde_core2de13VariantAccess14struct_variantpEB9_
FNDA:0,_RINvXs_NtNtCs7wZ7Ymcehhq_6silent4core5serdeNtB5_21UnitOnlyVariantAccessNtNtCs2wpcYnWkYL6_10serde_core2de13VariantAccess20newtype_variant_seedpEB9_
FNDA:1,_RINvNtNtCs7wZ7Ymcehhq_6silent4core5serde12from_str_mapINtNtCskxbBfrLNYPn_5alloc3vec3VecTINtNtBV_6borrow3CoweEB1o_EENtNvNtB2_5testss_34test_from_str_map_with_cow_strings4TestB1o_B1o_EB6_
FNDA:1,_RINvNtNtCs7wZ7Ymcehhq_6silent4core5serde12from_str_mapINtNtCskxbBfrLNYPn_5alloc3vec3VecTReB1o_EENtNvNtB2_5testss_23test_from_str_map_empty5EmptyB1o_B1o_EB6_
FNDA:1,_RINvNtNtCs7wZ7Ymcehhq_6silent4core5serde12from_str_mapINtNtCskxbBfrLNYPn_5alloc3vec3VecTReB1o_EENtNvNtB2_5testss_25test_from_str_map_unicode11UnicodeTestB1o_B1o_EB6_
FNDA:1,_RINvNtNtCs7wZ7Ymcehhq_6silent4core5serde12from_str_mapINtNtCskxbBfrLNYPn_5alloc3vec3VecTReB1o_EENtNvNtB2_5testss_31test_from_str_map_missing_field8RequiredB1o_B1o_EB6_
FNDA:1,_RINvNtNtCs7wZ7Ymcehhq_6silent4core5serde12from_str_mapINtNtCskxbBfrLNYPn_5alloc3vec3VecTReB1o_EENtNvNtB2_5testss_31test_from_str_map_nested_struct5OuterB1o_B1o_EB6_
FNDA:1,_RINvNtNtCs7wZ7Ymcehhq_6silent4core5serde12from_str_mapINtNtCskxbBfrLNYPn_5alloc3vec3VecTReB1o_EENtNvNtB2_5testss_31test_from_str_map_simple_struct6ConfigB1o_B1o_EB6_
FNDA:1,_RINvNtNtCs7wZ7Ymcehhq_6silent4core5serde12from_str_mapINtNtCskxbBfrLNYPn_5alloc3vec3VecTReB1o_EENtNvNtB2_5testss_32test_from_str_map_duplicate_keys7DupTestB1o_B1o_EB6_
FNDA:1,_RINvNtNtCs7wZ7Ymcehhq_6silent4core5serde12from_str_mapINtNtCskxbBfrLNYPn_5alloc3vec3VecTReB1o_EENtNvNtB2_5testss_33test_from_str_map_multiple_fields10MultiFieldB1o_B1o_EB6_
FNDA:0,_RINvNtNtCs7wZ7Ymcehhq_6silent4core5serde12from_str_mapINtNtNtNtCsiMcf32LsBml_4core4iter8adapters3map3MapINtNtNtNtCsle0CjmPo1W9_3std11collections4hash3map4IterNtNtCskxbBfrLNYPn_5alloc6string6StringNtNtB4_10path_param9PathParamENCNCNvXNtNtB6_9extractor12from_requestINtNtB3L_5types4PathB2w_ENtB3J_11FromRequest12from_request00EB2w_ReB2w_EB6_
FNDA:1,_RINvNtNtCs7wZ7Ymcehhq_6silent4core5serde12from_str_mapINtNtNtNtCsiMcf32LsBml_4core4iter8adapters3map3MapINtNtNtNtCsle0CjmPo1W9_3std11collections4hash3map4IterNtNtCskxbBfrLNYPn_5alloc6string6StringNtNtB4_10path_param9PathParamENCNCNvXNtNtB6_9extractor12from_requestINtNtB3L_5types4PathNtNCNvNtB3L_5testss_27test_path_single_and_struct01UENtB3J_11FromRequest12from_request00EB4y_ReB2w_EB6_
FNDA:0,_RINvNtNtCs7wZ7Ymcehhq_6silent4core5serde12from_str_mapINtNtNtNtCsiMcf32LsBml_4core4iter8adapters3map3MapINtNtNtNtCsle0CjmPo1W9_3std11collections4hash3map4IterNtNtCskxbBfrLNYPn_5alloc6string6StringNtNtB4_10path_param9PathParamENCNCNvXNtNtB6_9extractor12from_requestINtNtB3L_5types4PathlENtB3J_11FromRequest12from_request00ElReB2w_EB6_
FNDA:0,_RINvNtNtCs7wZ7Ymcehhq_6silent4core5serde12from_str_mapINtNtNtNtCsiMcf32LsBml_4core4iter8adapters3map3MapINtNtNtNtCsle0CjmPo1W9_3std11collections4hash3map4IterNtNtCskxbBfrLNYPn_5alloc6string6StringNtNtB4_10path_param9PathParamENCNCNvXNtNtB6_9extractor12from_requestINtNtB3L_5types4PathmENtB3J_11FromRequest12from_request00EmReB2w_EB6_
FNDA:0,_RINvNtNtCs7wZ7Ymcehhq_6silent4core5serde12from_str_mapINtNtNtNtCsiMcf32LsBml_4core4iter8adapters3map3MapINtNtNtNtCsle0CjmPo1W9_3std11collections4hash3map4IterNtNtCskxbBfrLNYPn_5alloc6string6StringNtNtB4_10path_param9PathParamENCNCNvXNtNtB6_9extractor12from_requestINtNtB3L_5types4PathxENtB3J_11FromRequest12from_request00ExReB2w_EB6_
FNDA:0,_RINvNtNtCs7wZ7Ymcehhq_6silent4core5serde12from_str_mapINtNtNtNtCsiMcf32LsBml_4core4iter8adapters3map3MapINtNtNtNtCsle0CjmPo1W9_3std11collections4hash3map4IterNtNtCskxbBfrLNYPn_5alloc6string6StringNtNtB4_10path_param9PathParamENCNCNvXNtNtB6_9extractor12from_requestINtNtB3L_5types4PathyENtB3J_11FromRequest12from_request00EyReB2w_EB6_
FNDA:2,_RINvNtNtCs7wZ7Ymcehhq_6silent4core5serde12from_str_valReINtNtCsiMcf32LsBml_4core6option6OptionNtNtCskxbBfrLNYPn_5alloc6string6StringEEB6_
FNDA:0,_RINvNtNtCs7wZ7Ymcehhq_6silent4core5serde12from_str_valReNtNCNvNtNtB6_9extractor5testss_27test_path_single_and_struct01UEB6_
FNDA:4,_RINvNtNtCs7wZ7Ymcehhq_6silent4core5serde12from_str_valReNtNtCskxbBfrLNYPn_5alloc6string6StringEB6_
FNDA:1,_RINvNtNtCs7wZ7Ymcehhq_6silent4core5serde12from_str_valReNtNvNtB2_5testss_24test_from_str_val_struct6PersonEB6_
FNDA:1,_RINvNtNtCs7wZ7Ymcehhq_6silent4core5serde12from_str_valReNtNvNtB2_5testss_34test_value_enum_access_simple_enum5ColorEB6_
FNDA:1,_RINvNtNtCs7wZ7Ymcehhq_6silent4core5serde12from_str_valReNtNvNtB2_5testss_38test_value_enum_access_invalid_variant5ColorEB6_
FNDA:1,_RINvNtNtCs7wZ7Ymcehhq_6silent4core5serde12from_str_valReNtNvNtB2_5testss_42test_unit_only_variant_access_unit_variant10SimpleEnumEB6_
FNDA:2,_RINvNtNtCs7wZ7Ymcehhq_6silent4core5serde12from_str_valRebEB6_
FNDA:1,_RINvNtNtCs7wZ7Ymcehhq_6silent4core5serde12from_str_valRedEB6_
FNDA:12,_RINvNtNtCs7wZ7Ymcehhq_6silent4core5serde12from_str_valRelEB6_
FNDA:1,_RINvNtNtCs7wZ7Ymcehhq_6silent4core5serde12from_str_valRemEB6_
FNDA:2,_RINvNtNtCs7wZ7Ymcehhq_6silent4core5serde12from_str_valRexEB6_
FNDA:2,_RINvNtNtCs7wZ7Ymcehhq_6silent4core5serde12from_str_valReyEB6_
FNDA:1,_RINvXNtNtCs7wZ7Ymcehhq_6silent4core5serdeNtB3_15ValueEnumAccessNtNtCs2wpcYnWkYL6_10serde_core2de10EnumAccess12variant_seedINtNtCsiMcf32LsBml_4core6marker11PhantomDataNtNvXNvNtNtB3_9multipart5tests1__NtB2L_6StatusNtB11_11Deserialize11deserialize7___FieldEEB7_
FNDA:3,_RINvXNtNtCs7wZ7Ymcehhq_6silent4core5serdeNtB3_15ValueEnumAccessNtNtCs2wpcYnWkYL6_10serde_core2de10EnumAccess12variant_seedINtNtCsiMcf32LsBml_4core6marker11PhantomDataNtNvXNvNtNtB3_9multipart5testss_1__NtB2L_5ColorNtB11_11Deserialize11deserialize7___FieldEEB7_
FNDA:1,_RINvXNtNtCs7wZ7Ymcehhq_6silent4core5serdeNtB3_15ValueEnumAccessNtNtCs2wpcYnWkYL6_10serde_core2de10EnumAccess12variant_seedINtNtCsiMcf32LsBml_4core6marker11PhantomDataNtNvXNvNvNtB3_5testss_34test_value_enum_access_simple_enum1__NtB2L_5ColorNtB11_11Deserialize11deserialize7___FieldEEB7_
FNDA:1,_RINvXNtNtCs7wZ7Ymcehhq_6silent4core5serdeNtB3_15ValueEnumAccessNtNtCs2wpcYnWkYL6_10serde_core2de10EnumAccess12variant_seedINtNtCsiMcf32LsBml_4core6marker11PhantomDataNtNvXNvNvNtB3_5testss_38test_value_enum_access_invalid_variant1__NtB2L_5ColorNtB11_11Deserialize11deserialize7___FieldEEB7_
FNDA:1,_RINvXNtNtCs7wZ7Ymcehhq_6silent4core5serdeNtB3_15ValueEnumAccessNtNtCs2wpcYnWkYL6_10serde_core2de10EnumAccess12variant_seedINtNtCsiMcf32LsBml_4core6marker11PhantomDataNtNvXNvNvNtB3_5testss_42test_unit_only_variant_access_unit_variant1__NtB2L_10SimpleEnumNtB11_11Deserialize11deserialize7___FieldEEB7_
FNDA:0,_RINvXs1_NtNtCs7wZ7Ymcehhq_6silent4core5serdeNtB6_8CowValueNtNtCs2wpcYnWkYL6_10serde_core2de12Deserializer15deserialize_anyNtNtBW_11ignored_any10IgnoredAnyEBa_
FNDA:32,_RINvXs1_NtNtCs7wZ7Ymcehhq_6silent4core5serdeNtB6_8CowValueNtNtCs2wpcYnWkYL6_10serde_core2de12Deserializer15deserialize_anyNtNtBW_5impls13StringVisitorEBa_
FNDA:2,_RINvXs1_NtNtCs7wZ7Ymcehhq_6silent4core5serdeNtB6_8CowValueNtNtCs2wpcYnWkYL6_10serde_core2de12Deserializer15deserialize_anyNtNvXNvNCNvNtNtBa_9extractor5testss_27test_path_single_and_struct01__NtB23_1UNtBW_11Deserialize11deserialize14___FieldVisitorEBa_
FNDA:0,_RINvXs1_NtNtCs7wZ7Ymcehhq_6silent4core5serdeNtB6_8CowValueNtNtCs2wpcYnWkYL6_10serde_core2de12Deserializer15deserialize_anyNtNvXNvNCNvNtNtBa_9extractor5testss_27test_path_single_and_struct01__NtB23_1UNtBW_11Deserialize11deserialize9___VisitorEBa_
FNDA:0,_RINvXs1_NtNtCs7wZ7Ymcehhq_6silent4core5serdeNtB6_8CowValueNtNtCs2wpcYnWkYL6_10serde_core2de12Deserializer15deserialize_anyNtNvXNvNvNtB6_5testss_23test_from_str_map_empty1__NtB23_5EmptyNtBW_11Deserialize11deserialize14___FieldVisitorEBa_
FNDA:1,_RINvXs1_NtNtCs7wZ7Ymcehhq_6silent4core5serdeNtB6_8CowValueNtNtCs2wpcYnWkYL6_10serde_core2de12Deserializer15deserialize_anyNtNvXNvNvNtB6_5testss_24test_from_str_val_struct1__NtB23_6PersonNtBW_11Deserialize11deserialize9___VisitorEBa_
FNDA:2,_RINvXs1_NtNtCs7wZ7Ymcehhq_6silent4core5serdeNtB6_8CowValueNtNtCs2wpcYnWkYL6_10serde_core2de12Deserializer15deserialize_anyNtNvXNvNvNtB6_5testss_25test_from_str_map_unicode1__NtB23_11UnicodeTestNtBW_11Deserialize11deserialize14___FieldVisitorEBa_
FNDA:1,_RINvXs1_NtNtCs7wZ7Ymcehhq_6silent4core5serdeNtB6_8CowValueNtNtCs2wpcYnWkYL6_10serde_core2de12Deserializer15deserialize_anyNtNvXNvNvNtB6_5testss_31test_from_str_map_missing_field1__NtB23_8RequiredNtBW_11Deserialize11deserialize14___FieldVisitorEBa_
FNDA:1,_RINvXs1_NtNtCs7wZ7Ymcehhq_6silent4core5serdeNtB6_8CowValueNtNtCs2wpcYnWkYL6_10serde_core2de12Deserializer15deserialize_anyNtNvXNvNvNtB6_5testss_31test_from_str_map_nested_struct1__NtB23_5InnerNtBW_11Deserialize11deserialize9___VisitorEBa_
FNDA:1,_RINvXs1_NtNtCs7wZ7Ymcehhq_6silent4core5serdeNtB6_8CowValueNtNtCs2wpcYnWkYL6_10serde_core2de12Deserializer15deserialize_anyNtNvXNvNvNtB6_5testss_31test_from_str_map_nested_structs_1__NtB23_5OuterNtBW_11Deserialize11deserialize14___FieldVisitorEBa_
FNDA:2,_RINvXs1_NtNtCs7wZ7Ymcehhq_6silent4core5serdeNtB6_8CowValueNtNtCs2wpcYnWkYL6_10serde_core2de12Deserializer15deserialize_anyNtNvXNvNvNtB6_5testss_31test_from_str_map_simple_struct1__NtB23_6ConfigNtBW_11Deserialize11deserialize14___FieldVisitorEBa_
FNDA:2,_RINvXs1_NtNtCs7wZ7Ymcehhq_6silent4core5serdeNtB6_8CowValueNtNtCs2wpcYnWkYL6_10serde_core2de12Deserializer15deserialize_anyNtNvXNvNvNtB6_5testss_32test_from_str_map_duplicate_keys1__NtB23_7DupTestNtBW_11Deserialize11deserialize14___FieldVisitorEBa_
FNDA:4,_RINvXs1_NtNtCs7wZ7Ymcehhq_6silent4core5serdeNtB6_8CowValueNtNtCs2wpcYnWkYL6_10serde_core2de12Deserializer15deserialize_anyNtNvXNvNvNtB6_5testss_33test_from_str_map_multiple_fields1__NtB23_10MultiFieldNtBW_11Deserialize11deserialize14___FieldVisitorEBa_
FNDA:2,_RINvXs1_NtNtCs7wZ7Ymcehhq_6silent4core5serdeNtB6_8CowValueNtNtCs2wpcYnWkYL6_10serde_core2de12Deserializer15deserialize_anyNtNvXNvNvNtB6_5testss_34test_from_str_map_with_cow_strings1__NtB23_4TestNtBW_11Deserialize11deserialize14___FieldVisitorEBa_
FNDA:7,_RINvXs1_NtNtCs7wZ7Ymcehhq_6silent4core5serdeNtB6_8CowValueNtNtCs2wpcYnWkYL6_10serde_core2de12Deserializer15deserialize_f64NtNvXs1e_NtBW_5implsdNtBW_11Deserialize11deserialize16PrimitiveVisitorEBa_
FNDA:129,_RINvXs1_NtNtCs7wZ7Ymcehhq_6silent4core5serdeNtB6_8CowValueNtNtCs2wpcYnWkYL6_10serde_core2de12Deserializer15deserialize_i32NtNvXsR_NtBW_5implslNtBW_11Deserialize11deserialize16PrimitiveVisitorEBa_
FNDA:3,_RINvXs1_NtNtCs7wZ7Ymcehhq_6silent4core5serdeNtB6_8CowValueNtNtCs2wpcYnWkYL6_10serde_core2de12Deserializer15deserialize_i64NtNvXsU_NtBW_5implsxNtBW_11Deserialize11deserialize16PrimitiveVisitorEBa_
FNDA:1,_RINvXs1_NtNtCs7wZ7Ymcehhq_6silent4core5serdeNtB6_8CowValueNtNtCs2wpcYnWkYL6_10serde_core2de12Deserializer15deserialize_u32NtNvXs16_NtBW_5implsmNtBW_11Deserialize11deserialize16PrimitiveVisitorEBa_
FNDA:2,_RINvXs1_NtNtCs7wZ7Ymcehhq_6silent4core5serdeNtB6_8CowValueNtNtCs2wpcYnWkYL6_10serde_core2de12Deserializer15deserialize_u64NtNvXs19_NtBW_5implsyNtBW_11Deserialize11deserialize16PrimitiveVisitorEBa_
FNDA:11,_RINvXs1_NtNtCs7wZ7Ymcehhq_6silent4core5serdeNtB6_8CowValueNtNtCs2wpcYnWkYL6_10serde_core2de12Deserializer16deserialize_boolNtNtBW_5impls11BoolVisitorEBa_
FNDA:1,_RINvXs1_NtNtCs7wZ7Ymcehhq_6silent4core5serdeNtB6_8CowValueNtNtCs2wpcYnWkYL6_10serde_core2de12Deserializer16deserialize_enumNtNvXNvNvNtB6_5testss_34test_value_enum_access_simple_enum1__NtB24_5ColorNtBW_11Deserialize11deserialize9___VisitorEBa_
FNDA:1,_RINvXs1_NtNtCs7wZ7Ymcehhq_6silent4core5serdeNtB6_8CowValueNtNtCs2wpcYnWkYL6_10serde_core2de12Deserializer16deserialize_enumNtNvXNvNvNtB6_5testss_38test_value_enum_access_invalid_variant1__NtB24_5ColorNtBW_11Deserialize11deserialize9___VisitorEBa_
FNDA:1,_RINvXs1_NtNtCs7wZ7Ymcehhq_6silent4core5serdeNtB6_8CowValueNtNtCs2wpcYnWkYL6_10serde_core2de12Deserializer16deserialize_enumNtNvXNvNvNtB6_5testss_42test_unit_only_variant_access_unit_variant1__NtB24_10SimpleEnumNtBW_11Deserialize11deserialize9___VisitorEBa_
FNDA:2,_RINvXs1_NtNtCs7wZ7Ymcehhq_6silent4core5serdeNtB6_8CowValueNtNtCs2wpcYnWkYL6_10serde_core2de12Deserializer18deserialize_optionINtNtBW_5impls13OptionVisitorNtNtCskxbBfrLNYPn_5alloc6string6StringEEBa_
FNDA:2,_RNCINvNtNtCs7wZ7Ymcehhq_6silent4core5serde12from_str_mapINtNtCskxbBfrLNYPn_5alloc3vec3VecTINtNtBX_6borrow3CoweEB1q_EENtNvNtB4_5testss_34test_from_str_map_with_cow_strings4TestB1q_B1q_E0B8_
FNDA:0,_RNCINvNtNtCs7wZ7Ymcehhq_6silent4core5serde12from_str_mapINtNtCskxbBfrLNYPn_5alloc3vec3VecTReB1q_EENtNvNtB4_5testss_23test_from_str_map_empty5EmptyB1q_B1q_E0B8_
FNDA:2,_RNCINvNtNtCs7wZ7Ymcehhq_6silent4core5serde12from_str_mapINtNtCskxbBfrLNYPn_5alloc3vec3VecTReB1q_EENtNvNtB4_5testss_25test_from_str_map_unicode11UnicodeTestB1q_B1q_E0B8_
FNDA:1,_RNCINvNtNtCs7wZ7Ymcehhq_6silent4core5serde12from_str_mapINtNtCskxbBfrLNYPn_5alloc3vec3VecTReB1q_EENtNvNtB4_5testss_31test_from_str_map_missing_field8RequiredB1q_B1q_E0B8_
FNDA:1,_RNCINvNtNtCs7wZ7Ymcehhq_6silent4core5serde12from_str_mapINtNtCskxbBfrLNYPn_5alloc3vec3VecTReB1q_EENtNvNtB4_5testss_31test_from_str_map_nested_struct5OuterB1q_B1q_E0B8_
FNDA:2,_RNCINvNtNtCs7wZ7Ymcehhq_6silent4core5serde12from_str_mapINtNtCskxbBfrLNYPn_5alloc3vec3VecTReB1q_EENtNvNtB4_5testss_31test_from_str_map_simple_struct6ConfigB1q_B1q_E0B8_
FNDA:2,_RNCINvNtNtCs7wZ7Ymcehhq_6silent4core5serde12from_str_mapINtNtCskxbBfrLNYPn_5alloc3vec3VecTReB1q_EENtNvNtB4_5testss_32test_from_str_map_duplicate_keys7DupTestB1q_B1q_E0B8_
FNDA:4,_RNCINvNtNtCs7wZ7Ymcehhq_6silent4core5serde12from_str_mapINtNtCskxbBfrLNYPn_5alloc3vec3VecTReB1q_EENtNvNtB4_5testss_33test_from_str_map_multiple_fields10MultiFieldB1q_B1q_E0B8_
FNDA:0,_RNCINvNtNtCs7wZ7Ymcehhq_6silent4core5serde12from_str_mapINtNtNtNtCsiMcf32LsBml_4core4iter8adapters3map3MapINtNtNtNtCsle0CjmPo1W9_3std11collections4hash3map4IterNtNtCskxbBfrLNYPn_5alloc6string6StringNtNtB6_10path_param9PathParamENCNCNvXNtNtB8_9extractor12from_requestINtNtB3N_5types4PathB2y_ENtB3L_11FromRequest12from_request00EB2y_ReB2y_E0B8_
FNDA:2,_RNCINvNtNtCs7wZ7Ymcehhq_6silent4core5serde12from_str_mapINtNtNtNtCsiMcf32LsBml_4core4iter8adapters3map3MapINtNtNtNtCsle0CjmPo1W9_3std11collections4hash3map4IterNtNtCskxbBfrLNYPn_5alloc6string6StringNtNtB6_10path_param9PathParamENCNCNvXNtNtB8_9extractor12from_requestINtNtB3N_5types4PathNtNCNvNtB3N_5testss_27test_path_single_and_struct01UENtB3L_11FromRequest12from_request00EB4A_ReB2y_E0B8_
FNDA:0,_RNCINvNtNtCs7wZ7Ymcehhq_6silent4core5serde12from_str_mapINtNtNtNtCsiMcf32LsBml_4core4iter8adapters3map3MapINtNtNtNtCsle0CjmPo1W9_3std11collections4hash3map4IterNtNtCskxbBfrLNYPn_5alloc6string6StringNtNtB6_10path_param9PathParamENCNCNvXNtNtB8_9extractor12from_requestINtNtB3N_5types4PathlENtB3L_11FromRequest12from_request00ElReB2y_E0B8_
FNDA:0,_RNCINvNtNtCs7wZ7Ymcehhq_6silent4core5serde12from_str_mapINtNtNtNtCsiMcf32LsBml_4core4iter8adapters3map3MapINtNtNtNtCsle0CjmPo1W9_3std11collections4hash3map4IterNtNtCskxbBfrLNYPn_5alloc6string6StringNtNtB6_10path_param9PathParamENCNCNvXNtNtB8_9extractor12from_requestINtNtB3N_5types4PathmENtB3L_11FromRequest12from_request00EmReB2y_E0B8_
FNDA:0,_RNCINvNtNtCs7wZ7Ymcehhq_6silent4core5serde12from_str_mapINtNtNtNtCsiMcf32LsBml_4core4iter8adapters3map3MapINtNtNtNtCsle0CjmPo1W9_3std11collections4hash3map4IterNtNtCskxbBfrLNYPn_5alloc6string6StringNtNtB6_10path_param9PathParamENCNCNvXNtNtB8_9extractor12from_requestINtNtB3N_5types4PathxENtB3L_11FromRequest12from_request00ExReB2y_E0B8_
FNDA:0,_RNCINvNtNtCs7wZ7Ymcehhq_6silent4core5serde12from_str_mapINtNtNtNtCsiMcf32LsBml_4core4iter8adapters3map3MapINtNtNtNtCsle0CjmPo1W9_3std11collections4hash3map4IterNtNtCskxbBfrLNYPn_5alloc6string6StringNtNtB6_10path_param9PathParamENCNCNvXNtNtB8_9extractor12from_requestINtNtB3N_5types4PathyENtB3L_11FromRequest12from_request00EyReB2y_E0B8_
FNDA:163,_RNvXs0_NtNtCs7wZ7Ymcehhq_6silent4core5serdeNtB5_8CowValueNtNtCs2wpcYnWkYL6_10serde_core2de16IntoDeserializer17into_deserializer
FNDA:6,_RNvXs_NtNtCs7wZ7Ymcehhq_6silent4core5serdeNtB4_21UnitOnlyVariantAccessNtNtCs2wpcYnWkYL6_10serde_core2de13VariantAccess12unit_variantB8_
FNDA:1,_RNvNtNtNtCs7wZ7Ymcehhq_6silent4core5serde5testss_19test_cow_value_bool
FNDA:1,_RNvNtNtNtCs7wZ7Ymcehhq_6silent4core5serde5testss_20test_cow_value_float
FNDA:1,_RNvNtNtNtCs7wZ7Ymcehhq_6silent4core5serde5testss_22test_cow_value_integer
FNDA:1,_RNvNtNtNtCs7wZ7Ymcehhq_6silent4core5serde5testss_22test_cow_value_unicode
FNDA:1,_RNvNtNtNtCs7wZ7Ymcehhq_6silent4core5serde5testss_22test_from_str_val_bool
FNDA:1,_RNvNtNtNtCs7wZ7Ymcehhq_6silent4core5serde5testss_22test_from_str_val_zero
FNDA:1,_RNvNtNtNtCs7wZ7Ymcehhq_6silent4core5serde5testss_23test_from_str_map_empty
FNDA:1,_RNvNtNtNtCs7wZ7Ymcehhq_6silent4core5serde5testss_23test_from_str_val_float
FNDA:1,_RNvNtNtNtCs7wZ7Ymcehhq_6silent4core5serde5testss_24test_cow_value_owned_str
FNDA:1,_RNvNtNtNtCs7wZ7Ymcehhq_6silent4core5serde5testss_24test_from_str_val_string
FNDA:1,_RNvNtNtNtCs7wZ7Ymcehhq_6silent4core5serde5testss_24test_from_str_val_struct
FNDA:1,_RNvNtNtNtCs7wZ7Ymcehhq_6silent4core5serde5testss_25test_from_str_map_unicode
FNDA:1,_RNvNtNtNtCs7wZ7Ymcehhq_6silent4core5serde5testss_25test_from_str_val_integer
FNDA:1,_RNvNtNtNtCs7wZ7Ymcehhq_6silent4core5serde5testss_26test_from_str_val_negative
FNDA:1,_RNvNtNtNtCs7wZ7Ymcehhq_6silent4core5serde5testss_26test_from_str_val_optional
FNDA:1,_RNvNtNtNtCs7wZ7Ymcehhq_6silent4core5serde5testss_27test_cow_value_borrowed_str
FNDA:1,_RNvNtNtNtCs7wZ7Ymcehhq_6silent4core5serde5testss_27test_cow_value_invalid_bool
FNDA:1,_RNvNtNtNtCs7wZ7Ymcehhq_6silent4core5serde5testss_30test_cow_value_invalid_integer
FNDA:1,_RNvNtNtNtCs7wZ7Ymcehhq_6silent4core5serde5testss_30test_from_str_val_empty_string
FNDA:1,_RNvNtNtNtCs7wZ7Ymcehhq_6silent4core5serde5testss_30test_from_str_val_large_number
FNDA:1,_RNvNtNtNtCs7wZ7Ymcehhq_6silent4core5serde5testss_31test_from_str_map_missing_field
FNDA:1,_RNvNtNtNtCs7wZ7Ymcehhq_6silent4core5serde5testss_31test_from_str_map_nested_struct
FNDA:1,_RNvNtNtNtCs7wZ7Ymcehhq_6silent4core5serde5testss_31test_from_str_map_simple_struct
FNDA:1,_RNvNtNtNtCs7wZ7Ymcehhq_6silent4core5serde5testss_32test_from_str_map_duplicate_keys
FNDA:1,_RNvNtNtNtCs7wZ7Ymcehhq_6silent4core5serde5testss_33test_cow_value_special_characters
FNDA:1,_RNvNtNtNtCs7wZ7Ymcehhq_6silent4core5serde5testss_33test_from_str_map_multiple_fields
FNDA:1,_RNvNtNtNtCs7wZ7Ymcehhq_6silent4core5serde5testss_33test_from_str_val_invalid_integer
FNDA:1,_RNvNtNtNtCs7wZ7Ymcehhq_6silent4core5serde5testss_34test_from_str_map_with_cow_strings
FNDA:1,_RNvNtNtNtCs7wZ7Ymcehhq_6silent4core5serde5testss_34test_value_enum_access_simple_enum
FNDA:1,_RNvNtNtNtCs7wZ7Ymcehhq_6silent4core5serde5testss_38test_value_enum_access_invalid_variant
FNDA:1,_RNvNtNtNtCs7wZ7Ymcehhq_6silent4core5serde5testss_42test_unit_only_variant_access_unit_variant
FNF:45
FNH:41
DA:18,9
DA:19,9
DA:20,9
DA:21,9
DA:22,9
DA:23,9
DA:25,9
DA:26,9
DA:27,16
DA:28,9
DA:29,9
DA:32,30
DA:33,30
DA:34,30
DA:35,30
DA:37,30
DA:38,30
DA:43,153
DA:44,153
DA:46,153
DA:47,150
DA:48,3
DA:50,153
DA:62,7
DA:63,7
DA:64,7
DA:66,7
DA:67,6
DA:68,7
DA:77,6
DA:78,6
DA:79,6
DA:82,0
DA:83,0
DA:84,0
DA:86,0
DA:87,0
DA:90,0
DA:91,0
DA:92,0
DA:94,0
DA:95,0
DA:98,0
DA:99,0
DA:100,0
DA:101,0
DA:102,0
DA:103,0
DA:104,0
DA:106,0
DA:107,0
DA:116,163
DA:117,163
DA:118,163
DA:125,50
DA:126,50
DA:127,50
DA:129,50
DA:130,46
DA:131,4
DA:133,50
DA:136,2
DA:137,2
DA:138,2
DA:140,2
DA:141,2
DA:144,0
DA:145,0
DA:146,0
DA:147,0
DA:148,0
DA:149,0
DA:150,0
DA:152,0
DA:153,0
DA:156,3
DA:157,3
DA:158,3
DA:159,3
DA:160,3
DA:161,3
DA:162,3
DA:163,3
DA:165,3
DA:166,3
DA:208,1
DA:209,1
DA:210,1
DA:211,1
DA:214,1
DA:215,1
DA:216,1
DA:217,1
DA:220,1
DA:221,1
DA:222,1
DA:224,1
DA:225,1
DA:226,1
DA:229,1
DA:230,1
DA:231,1
DA:232,1
DA:235,1
DA:243,1
DA:244,1
DA:245,1
DA:248,1
DA:249,1
DA:250,1
DA:251,1
DA:254,1
DA:256,1
DA:257,1
DA:260,1
DA:261,1
DA:262,1
DA:267,1
DA:274,1
DA:275,1
DA:277,1
DA:278,1
DA:279,1
DA:282,1
DA:293,1
DA:294,1
DA:296,1
DA:297,1
DA:300,1
DA:309,1
DA:310,1
DA:312,1
DA:313,1
DA:314,1
DA:315,1
DA:316,1
DA:319,1
DA:323,1
DA:324,1
DA:326,1
DA:327,1
DA:330,1
DA:337,1
DA:338,1
DA:340,1
DA:341,1
DA:344,1
DA:351,1
DA:352,1
DA:353,1
DA:354,1
DA:355,1
DA:356,1
DA:359,1
DA:360,1
DA:361,1
DA:362,1
DA:367,1
DA:368,1
DA:369,1
DA:370,1
DA:371,1
DA:374,1
DA:375,1
DA:376,1
DA:377,1
DA:378,1
DA:381,1
DA:382,1
DA:383,1
DA:384,1
DA:385,1
DA:388,1
DA:389,1
DA:390,1
DA:391,1
DA:392,1
DA:395,1
DA:396,1
DA:397,1
DA:398,1
DA:399,1
DA:402,1
DA:403,1
DA:404,1
DA:405,1
DA:406,1
DA:409,1
DA:410,1
DA:411,1
DA:412,1
DA:413,1
DA:418,1
DA:427,1
DA:428,1
DA:429,1
DA:432,1
DA:439,1
DA:440,1
DA:441,1
DA:446,1
DA:454,1
DA:455,1
DA:456,1
DA:461,1
DA:462,1
DA:463,1
DA:464,1
DA:467,1
DA:468,1
DA:469,1
DA:470,1
DA:473,1
DA:474,1
DA:475,1
DA:476,1
DA:479,1
DA:480,1
DA:481,1
DA:482,1
DA:485,1
DA:492,1
DA:493,1
DA:495,1
DA:496,1
DA:497,1
DA:500,1
DA:507,1
DA:508,1
DA:509,1
DA:510,1
DA:513,1
DA:514,1
DA:515,1
DA:516,1
DA:517,1
DA:520,1
DA:521,1
DA:522,1
DA:523,1
DA:524,1
BRF:0
BRH:0
LF:242
LH:214
end_of_record
SF:/Users/hubertshelley/Documents/silent/silent/silent/src/core/serde/multipart.rs
FN:8,_RINvNtNtNtCs9iG4RRqsTsR_6silent4core5serde9multipart18from_str_multi_valpppEB8_
FN:21,_RINvXININtNtNtCs9iG4RRqsTsR_6silent4core5serde9multiparts_0pEINtB6_8VecValuepENtNtCs2wpcYnWkYL6_10serde_core2de12Deserializer14deserialize_i8pEBc_
FN:21,_RINvXININtNtNtCs9iG4RRqsTsR_6silent4core5serde9multiparts_0pEINtB6_8VecValuepENtNtCs2wpcYnWkYL6_10serde_core2de12Deserializer14deserialize_u8pEBc_
FN:58,_RINvXININtNtNtCs9iG4RRqsTsR_6silent4core5serde9multiparts_0pEINtB6_8VecValuepENtNtCs2wpcYnWkYL6_10serde_core2de12Deserializer15deserialize_anypEBc_
FN:21,_RINvXININtNtNtCs9iG4RRqsTsR_6silent4core5serde9multiparts_0pEINtB6_8VecValuepENtNtCs2wpcYnWkYL6_10serde_core2de12Deserializer15deserialize_f32pEBc_
FN:21,_RINvXININtNtNtCs9iG4RRqsTsR_6silent4core5serde9multiparts_0pEINtB6_8VecValuepENtNtCs2wpcYnWkYL6_10serde_core2de12Deserializer15deserialize_f64pEBc_
FN:21,_RINvXININtNtNtCs9iG4RRqsTsR_6silent4core5serde9multiparts_0pEINtB6_8VecValuepENtNtCs2wpcYnWkYL6_10serde_core2de12Deserializer15deserialize_i16pEBc_
FN:21,_RINvXININtNtNtCs9iG4RRqsTsR_6silent4core5serde9multiparts_0pEINtB6_8VecValuepENtNtCs2wpcYnWkYL6_10serde_core2de12Deserializer15deserialize_i32pEBc_
FN:21,_RINvXININtNtNtCs9iG4RRqsTsR_6silent4core5serde9multiparts_0pEINtB6_8VecValuepENtNtCs2wpcYnWkYL6_10serde_core2de12Deserializer15deserialize_i64pEBc_
FN:89,_RINvXININtNtNtCs9iG4RRqsTsR_6silent4core5serde9multiparts_0pEINtB6_8VecValuepENtNtCs2wpcYnWkYL6_10serde_core2de12Deserializer15deserialize_seqpEBc_
FN:21,_RINvXININtNtNtCs9iG4RRqsTsR_6silent4core5serde9multiparts_0pEINtB6_8VecValuepENtNtCs2wpcYnWkYL6_10serde_core2de12Deserializer15deserialize_u16pEBc_
FN:21,_RINvXININtNtNtCs9iG4RRqsTsR_6silent4core5serde9multiparts_0pEINtB6_8VecValuepENtNtCs2wpcYnWkYL6_10serde_core2de12Deserializer15deserialize_u32pEBc_
FN:21,_RINvXININtNtNtCs9iG4RRqsTsR_6silent4core5serde9multiparts_0pEINtB6_8VecValuepENtNtCs2wpcYnWkYL6_10serde_core2de12Deserializer15deserialize_u64pEBc_
FN:21,_RINvXININtNtNtCs9iG4RRqsTsR_6silent4core5serde9multiparts_0pEINtB6_8VecValuepENtNtCs2wpcYnWkYL6_10serde_core2de12Deserializer16deserialize_boolpEBc_
FN:116,_RINvXININtNtNtCs9iG4RRqsTsR_6silent4core5serde9multiparts_0pEINtB6_8VecValuepENtNtCs2wpcYnWkYL6_10serde_core2de12Deserializer16deserialize_enumpEBc_
FN:97,_RINvXININtNtNtCs9iG4RRqsTsR_6silent4core5serde9multiparts_0pEINtB6_8VecValuepENtNtCs2wpcYnWkYL6_10serde_core2de12Deserializer17deserialize_tuplepEBc_
FN:69,_RINvXININtNtNtCs9iG4RRqsTsR_6silent4core5serde9multiparts_0pEINtB6_8VecValuepENtNtCs2wpcYnWkYL6_10serde_core2de12Deserializer18deserialize_optionpEBc_
FN:104,_RINvXININtNtNtCs9iG4RRqsTsR_6silent4core5serde9multiparts_0pEINtB6_8VecValuepENtNtCs2wpcYnWkYL6_10serde_core2de12Deserializer24deserialize_tuple_structpEBc_
FN:77,_RINvXININtNtNtCs9iG4RRqsTsR_6silent4core5serde9multiparts_0pEINtB6_8VecValuepENtNtCs2wpcYnWkYL6_10serde_core2de12Deserializer26deserialize_newtype_structpEBc_
FN:14,_RNCINvNtNtNtCs9iG4RRqsTsR_6silent4core5serde9multipart18from_str_multi_valpppE0Ba_
FN:46,_RNvXININtNtNtCs9iG4RRqsTsR_6silent4core5serde9multipart0pEINtB5_8VecValuepENtNtCs2wpcYnWkYL6_10serde_core2de16IntoDeserializer17into_deserializerBb_
FN:104,_RINvXININtNtNtCs7wZ7Ymcehhq_6silent4core5serde9multiparts_0pEINtB6_8VecValuepENtNtCs2wpcYnWkYL6_10serde_core2de12Deserializer24deserialize_tuple_structpEBc_
FN:77,_RINvXININtNtNtCs7wZ7Ymcehhq_6silent4core5serde9multiparts_0pEINtB6_8VecValuepENtNtCs2wpcYnWkYL6_10serde_core2de12Deserializer26deserialize_newtype_structpEBc_
FN:46,_RNvXININtNtNtCs7wZ7Ymcehhq_6silent4core5serde9multipart0pEINtB5_8VecValuepENtNtCs2wpcYnWkYL6_10serde_core2de16IntoDeserializer17into_deserializerBb_
FN:240,_RNvNtNtNtNtCs7wZ7Ymcehhq_6silent4core5serde9multipart5testss_26test_from_str_multi_val_i8
FN:212,_RNvNtNtNtNtCs7wZ7Ymcehhq_6silent4core5serde9multipart5testss_26test_from_str_multi_val_u8
FN:268,_RNvNtNtNtNtCs7wZ7Ymcehhq_6silent4core5serde9multipart5testss_27test_from_str_multi_val_f32
FN:275,_RNvNtNtNtNtCs7wZ7Ymcehhq_6silent4core5serde9multipart5testss_27test_from_str_multi_val_f64
FN:247,_RNvNtNtNtNtCs7wZ7Ymcehhq_6silent4core5serde9multipart5testss_27test_from_str_multi_val_i16
FN:254,_RNvNtNtNtNtCs7wZ7Ymcehhq_6silent4core5serde9multipart5testss_27test_from_str_multi_val_i32
FN:261,_RNvNtNtNtNtCs7wZ7Ymcehhq_6silent4core5serde9multipart5testss_27test_from_str_multi_val_i64
FN:219,_RNvNtNtNtNtCs7wZ7Ymcehhq_6silent4core5serde9multipart5testss_27test_from_str_multi_val_u16
FN:226,_RNvNtNtNtNtCs7wZ7Ymcehhq_6silent4core5serde9multipart5testss_27test_from_str_multi_val_u32
FN:233,_RNvNtNtNtNtCs7wZ7Ymcehhq_6silent4core5serde9multipart5testss_27test_from_str_multi_val_u64
FN:423,_RNvNtNtNtNtCs7wZ7Ymcehhq_6silent4core5serde9multipart5testss_28test_from_str_multi_val_zero
FN:303,_RNvNtNtNtNtCs7wZ7Ymcehhq_6silent4core5serde9multipart5testss_29test_from_str_multi_val_tuple
FN:189,_RNvNtNtNtNtCs7wZ7Ymcehhq_6silent4core5serde9multipart5testss_31test_from_str_multi_val_vec_f64
FN:182,_RNvNtNtNtNtCs7wZ7Ymcehhq_6silent4core5serde9multipart5testss_31test_from_str_multi_val_vec_i32
FN:196,_RNvNtNtNtNtCs7wZ7Ymcehhq_6silent4core5serde9multipart5testss_32test_from_str_multi_val_vec_bool
FN:203,_RNvNtNtNtNtCs7wZ7Ymcehhq_6silent4core5serde9multipart5testss_33test_from_str_multi_val_empty_vec
FN:291,_RNvNtNtNtNtCs7wZ7Ymcehhq_6silent4core5serde9multipart5testss_34test_from_str_multi_val_option_vec
FN:175,_RNvNtNtNtNtCs7wZ7Ymcehhq_6silent4core5serde9multipart5testss_34test_from_str_multi_val_vec_string
FN:458,_RNvNtNtNtNtCs7wZ7Ymcehhq_6silent4core5serde9multipart5testss_34test_from_str_multi_very_large_vec
FN:412,_RNvNtNtNtNtCs7wZ7Ymcehhq_6silent4core5serde9multipart5testss_35test_from_str_multi_val_long_string
FN:284,_RNvNtNtNtNtCs7wZ7Ymcehhq_6silent4core5serde9multipart5testss_35test_from_str_multi_val_option_some
FN:382,_RNvNtNtNtNtCs7wZ7Ymcehhq_6silent4core5serde9multipart5testss_35test_from_str_multi_val_overflow_i8
FN:375,_RNvNtNtNtNtCs7wZ7Ymcehhq_6silent4core5serde9multipart5testss_35test_from_str_multi_val_overflow_u8
FN:310,_RNvNtNtNtNtCs7wZ7Ymcehhq_6silent4core5serde9multipart5testss_35test_from_str_multi_val_tuple_three
FN:389,_RNvNtNtNtNtCs7wZ7Ymcehhq_6silent4core5serde9multipart5testss_35test_from_str_multi_vec_single_bool
FN:368,_RNvNtNtNtNtCs7wZ7Ymcehhq_6silent4core5serde9multipart5testss_36test_from_str_multi_val_invalid_bool
FN:396,_RNvNtNtNtNtCs7wZ7Ymcehhq_6silent4core5serde9multipart5testss_37test_from_str_multi_val_multiple_bool
FN:430,_RNvNtNtNtNtCs7wZ7Ymcehhq_6silent4core5serde9multipart5testss_37test_from_str_multi_val_negative_zero
FN:168,_RNvNtNtNtNtCs7wZ7Ymcehhq_6silent4core5serde9multipart5testss_37test_from_str_multi_val_single_string
FN:361,_RNvNtNtNtNtCs7wZ7Ymcehhq_6silent4core5serde9multipart5testss_38test_from_str_multi_val_invalid_number
FN:333,_RNvNtNtNtNtCs7wZ7Ymcehhq_6silent4core5serde9multipart5testss_41test_from_str_multi_val_enum_unit_variant
FN:317,_RNvNtNtNtNtCs7wZ7Ymcehhq_6silent4core5serde9multipart5testss_41test_from_str_multi_val_tuple_mixed_types
FN:405,_RNvNtNtNtNtCs7wZ7Ymcehhq_6silent4core5serde9multipart5testss_42test_from_str_multi_val_single_char_string
FN:451,_RNvNtNtNtNtCs7wZ7Ymcehhq_6silent4core5serde9multipart5testss_43test_from_str_multi_val_scientific_notation
FN:437,_RNvNtNtNtNtCs7wZ7Ymcehhq_6silent4core5serde9multipart5testss_44test_from_str_multi_val_vec_negative_numbers
FN:347,_RNvNtNtNtNtCs7wZ7Ymcehhq_6silent4core5serde9multipart5testss_47test_from_str_multi_val_enum_different_variants
FN:444,_RNvNtNtNtNtCs7wZ7Ymcehhq_6silent4core5serde9multipart5testss_47test_from_str_multi_val_mixed_positive_negative
FN:8,_RINvNtNtNtCs7wZ7Ymcehhq_6silent4core5serde9multipart18from_str_multi_valINtNtCskxbBfrLNYPn_5alloc3vec3VecNtNtB1d_6string6StringEIB19_lEB1F_EB8_
FN:8,_RINvNtNtNtCs7wZ7Ymcehhq_6silent4core5serde9multipart18from_str_multi_valINtNtCskxbBfrLNYPn_5alloc3vec3VecReEIB19_NtNtB1d_6string6StringEB1F_EB8_
FN:8,_RINvNtNtNtCs7wZ7Ymcehhq_6silent4core5serde9multipart18from_str_multi_valINtNtCskxbBfrLNYPn_5alloc3vec3VecReEIB19_bEB1F_EB8_
FN:8,_RINvNtNtNtCs7wZ7Ymcehhq_6silent4core5serde9multipart18from_str_multi_valINtNtCskxbBfrLNYPn_5alloc3vec3VecReEIB19_dEB1F_EB8_
FN:8,_RINvNtNtNtCs7wZ7Ymcehhq_6silent4core5serde9multipart18from_str_multi_valINtNtCskxbBfrLNYPn_5alloc3vec3VecReEIB19_lEB1F_EB8_
FN:8,_RINvNtNtNtCs7wZ7Ymcehhq_6silent4core5serde9multipart18from_str_multi_valINtNtCskxbBfrLNYPn_5alloc3vec3VecReEINtNtCsiMcf32LsBml_4core6option6OptionIB19_NtNtB1d_6string6StringEEB1F_EB8_
FN:8,_RINvNtNtNtCs7wZ7Ymcehhq_6silent4core5serde9multipart18from_str_multi_valINtNtCskxbBfrLNYPn_5alloc3vec3VecReEINtNtCsiMcf32LsBml_4core6option6OptionNtNtB1d_6string6StringEB1F_EB8_
FN:8,_RINvNtNtNtCs7wZ7Ymcehhq_6silent4core5serde9multipart18from_str_multi_valINtNtCskxbBfrLNYPn_5alloc3vec3VecReENtNtB1d_6string6StringB1F_EB8_
FN:8,_RINvNtNtNtCs7wZ7Ymcehhq_6silent4core5serde9multipart18from_str_multi_valINtNtCskxbBfrLNYPn_5alloc3vec3VecReENtNtB2_5tests5ColorB1F_EB8_
FN:8,_RINvNtNtNtCs7wZ7Ymcehhq_6silent4core5serde9multipart18from_str_multi_valINtNtCskxbBfrLNYPn_5alloc3vec3VecReENtNtB2_5tests6StatusB1F_EB8_
FN:8,_RINvNtNtNtCs7wZ7Ymcehhq_6silent4core5serde9multipart18from_str_multi_valINtNtCskxbBfrLNYPn_5alloc3vec3VecReETNtNtB1d_6string6StringB1J_EB1F_EB8_
FN:8,_RINvNtNtNtCs7wZ7Ymcehhq_6silent4core5serde9multipart18from_str_multi_valINtNtCskxbBfrLNYPn_5alloc3vec3VecReETlNtNtB1d_6string6StringdEB1F_EB8_
FN:8,_RINvNtNtNtCs7wZ7Ymcehhq_6silent4core5serde9multipart18from_str_multi_valINtNtCskxbBfrLNYPn_5alloc3vec3VecReETlllEB1F_EB8_
FN:8,_RINvNtNtNtCs7wZ7Ymcehhq_6silent4core5serde9multipart18from_str_multi_valINtNtCskxbBfrLNYPn_5alloc3vec3VecReEaB1F_EB8_
FN:8,_RINvNtNtNtCs7wZ7Ymcehhq_6silent4core5serde9multipart18from_str_multi_valINtNtCskxbBfrLNYPn_5alloc3vec3VecReEbB1F_EB8_
FN:8,_RINvNtNtNtCs7wZ7Ymcehhq_6silent4core5serde9multipart18from_str_multi_valINtNtCskxbBfrLNYPn_5alloc3vec3VecReEdB1F_EB8_
FN:8,_RINvNtNtNtCs7wZ7Ymcehhq_6silent4core5serde9multipart18from_str_multi_valINtNtCskxbBfrLNYPn_5alloc3vec3VecReEfB1F_EB8_
FN:8,_RINvNtNtNtCs7wZ7Ymcehhq_6silent4core5serde9multipart18from_str_multi_valINtNtCskxbBfrLNYPn_5alloc3vec3VecReEhB1F_EB8_
FN:8,_RINvNtNtNtCs7wZ7Ymcehhq_6silent4core5serde9multipart18from_str_multi_valINtNtCskxbBfrLNYPn_5alloc3vec3VecReElB1F_EB8_
FN:8,_RINvNtNtNtCs7wZ7Ymcehhq_6silent4core5serde9multipart18from_str_multi_valINtNtCskxbBfrLNYPn_5alloc3vec3VecReEmB1F_EB8_
FN:8,_RINvNtNtNtCs7wZ7Ymcehhq_6silent4core5serde9multipart18from_str_multi_valINtNtCskxbBfrLNYPn_5alloc3vec3VecReEsB1F_EB8_
FN:8,_RINvNtNtNtCs7wZ7Ymcehhq_6silent4core5serde9multipart18from_str_multi_valINtNtCskxbBfrLNYPn_5alloc3vec3VecReEtB1F_EB8_
FN:8,_RINvNtNtNtCs7wZ7Ymcehhq_6silent4core5serde9multipart18from_str_multi_valINtNtCskxbBfrLNYPn_5alloc3vec3VecReExB1F_EB8_
FN:8,_RINvNtNtNtCs7wZ7Ymcehhq_6silent4core5serde9multipart18from_str_multi_valINtNtCskxbBfrLNYPn_5alloc3vec3VecReEyB1F_EB8_
FN:89,_RINvXs_NtNtNtCs7wZ7Ymcehhq_6silent4core5serde9multipartINtB5_8VecValueINtNtNtNtCsiMcf32LsBml_4core4iter8adapters3map3MapINtNtNtCskxbBfrLNYPn_5alloc3vec9into_iter8IntoIterNtNtB21_6string6StringENCINvB5_18from_str_multi_valINtB1Z_3VecB2I_EIB3y_lEB2I_E0EENtNtCs2wpcYnWkYL6_10serde_core2de12Deserializer15deserialize_seqINtNvXsh_NtB44_5implsIB3y_pENtB44_11Deserialize11deserialize10VecVisitorlEEBb_
FN:89,_RINvXs_NtNtNtCs7wZ7Ymcehhq_6silent4core5serde9multipartINtB5_8VecValueINtNtNtNtCsiMcf32LsBml_4core4iter8adapters3map3MapINtNtNtCskxbBfrLNYPn_5alloc3vec9into_iter8IntoIterReENCINvB5_18from_str_multi_valINtB1Z_3VecB2I_EIB3e_NtNtB21_6string6StringEB2I_E0EENtNtCs2wpcYnWkYL6_10serde_core2de12Deserializer15deserialize_seqINtNvXsh_NtB45_5implsIB3e_pENtB45_11Deserialize11deserialize10VecVisitorB3y_EEBb_
FN:89,_RINvXs_NtNtNtCs7wZ7Ymcehhq_6silent4core5serde9multipartINtB5_8VecValueINtNtNtNtCsiMcf32LsBml_4core4iter8adapters3map3MapINtNtNtCskxbBfrLNYPn_5alloc3vec9into_iter8IntoIterReENCINvB5_18from_str_multi_valINtB1Z_3VecB2I_EIB3e_bEB2I_E0EENtNtCs2wpcYnWkYL6_10serde_core2de12Deserializer15deserialize_seqINtNvXsh_NtB3K_5implsIB3e_pENtB3K_11Deserialize11deserialize10VecVisitorbEEBb_
FN:89,_RINvXs_NtNtNtCs7wZ7Ymcehhq_6silent4core5serde9multipartINtB5_8VecValueINtNtNtNtCsiMcf32LsBml_4core4iter8adapters3map3MapINtNtNtCskxbBfrLNYPn_5alloc3vec9into_iter8IntoIterReENCINvB5_18from_str_multi_valINtB1Z_3VecB2I_EIB3e_dEB2I_E0EENtNtCs2wpcYnWkYL6_10serde_core2de12Deserializer15deserialize_seqINtNvXsh_NtB3K_5implsIB3e_pENtB3K_11Deserialize11deserialize10VecVisitordEEBb_
FN:89,_RINvXs_NtNtNtCs7wZ7Ymcehhq_6silent4core5serde9multipartINtB5_8VecValueINtNtNtNtCsiMcf32LsBml_4core4iter8adapters3map3MapINtNtNtCskxbBfrLNYPn_5alloc3vec9into_iter8IntoIterReENCINvB5_18from_str_multi_valINtB1Z_3VecB2I_EIB3e_lEB2I_E0EENtNtCs2wpcYnWkYL6_10serde_core2de12Deserializer15deserialize_seqINtNvXsh_NtB3K_5implsIB3e_pENtB3K_11Deserialize11deserialize10VecVisitorlEEBb_
FN:89,_RINvXs_NtNtNtCs7wZ7Ymcehhq_6silent4core5serde9multipartINtB5_8VecValueINtNtNtNtCsiMcf32LsBml_4core4iter8adapters3map3MapINtNtNtCskxbBfrLNYPn_5alloc3vec9into_iter8IntoIterReENCINvB5_18from_str_multi_valINtB1Z_3VecB2I_EINtNtB1f_6option6OptionIB3e_NtNtB21_6string6StringEEB2I_E0EENtNtCs2wpcYnWkYL6_10serde_core2de12Deserializer15deserialize_seqINtNvXsh_NtB4t_5implsIB3e_pENtB4t_11Deserialize11deserialize10VecVisitorB3V_EEBb_
FN:69,_RINvXs_NtNtNtCs7wZ7Ymcehhq_6silent4core5serde9multipartINtB5_8VecValueINtNtNtNtCsiMcf32LsBml_4core4iter8adapters3map3MapINtNtNtCskxbBfrLNYPn_5alloc3vec9into_iter8IntoIterReENCINvB5_18from_str_multi_valINtB1Z_3VecB2I_EINtNtB1f_6option6OptionIB3e_NtNtB21_6string6StringEEB2I_E0EENtNtCs2wpcYnWkYL6_10serde_core2de12Deserializer18deserialize_optionINtNtB4t_5impls13OptionVisitorB3Q_EEBb_
FN:58,_RINvXs_NtNtNtCs7wZ7Ymcehhq_6silent4core5serde9multipartINtB5_8VecValueINtNtNtNtCsiMcf32LsBml_4core4iter8adapters3map3MapINtNtNtCskxbBfrLNYPn_5alloc3vec9into_iter8IntoIterReENCINvB5_18from_str_multi_valINtB1Z_3VecB2I_EINtNtB1f_6option6OptionNtNtB21_6string6StringEB2I_E0EENtNtCs2wpcYnWkYL6_10serde_core2de12Deserializer15deserialize_anyNtNtB4n_5impls13StringVisitorEBb_
FN:69,_RINvXs_NtNtNtCs7wZ7Ymcehhq_6silent4core5serde9multipartINtB5_8VecValueINtNtNtNtCsiMcf32LsBml_4core4iter8adapters3map3MapINtNtNtCskxbBfrLNYPn_5alloc3vec9into_iter8IntoIterReENCINvB5_18from_str_multi_valINtB1Z_3VecB2I_EINtNtB1f_6option6OptionNtNtB21_6string6StringEB2I_E0EENtNtCs2wpcYnWkYL6_10serde_core2de12Deserializer18deserialize_optionINtNtB4n_5impls13OptionVisitorB3Q_EEBb_
FN:58,_RINvXs_NtNtNtCs7wZ7Ymcehhq_6silent4core5serde9multipartINtB5_8VecValueINtNtNtNtCsiMcf32LsBml_4core4iter8adapters3map3MapINtNtNtCskxbBfrLNYPn_5alloc3vec9into_iter8IntoIterReENCINvB5_18from_str_multi_valINtB1Z_3VecB2I_ENtNtB21_6string6StringB2I_E0EENtNtCs2wpcYnWkYL6_10serde_core2de12Deserializer15deserialize_anyNtNtB3Z_5impls13StringVisitorEBb_
FN:116,_RINvXs_NtNtNtCs7wZ7Ymcehhq_6silent4core5serde9multipartINtB5_8VecValueINtNtNtNtCsiMcf32LsBml_4core4iter8adapters3map3MapINtNtNtCskxbBfrLNYPn_5alloc3vec9into_iter8IntoIterReENCINvB5_18from_str_multi_valINtB1Z_3VecB2I_ENtNtB5_5tests5ColorB2I_E0EENtNtCs2wpcYnWkYL6_10serde_core2de12Deserializer16deserialize_enumNtNvXNvB3v_s_1__B3t_NtB3W_11Deserialize11deserialize9___VisitorEBb_
FN:116,_RINvXs_NtNtNtCs7wZ7Ymcehhq_6silent4core5serde9multipartINtB5_8VecValueINtNtNtNtCsiMcf32LsBml_4core4iter8adapters3map3MapINtNtNtCskxbBfrLNYPn_5alloc3vec9into_iter8IntoIterReENCINvB5_18from_str_multi_valINtB1Z_3VecB2I_ENtNtB5_5tests6StatusB2I_E0EENtNtCs2wpcYnWkYL6_10serde_core2de12Deserializer16deserialize_enumNtNvXNvB3v_1__B3t_NtB3X_11Deserialize11deserialize9___VisitorEBb_
FN:89,_RINvXs_NtNtNtCs7wZ7Ymcehhq_6silent4core5serde9multipartINtB5_8VecValueINtNtNtNtCsiMcf32LsBml_4core4iter8adapters3map3MapINtNtNtCskxbBfrLNYPn_5alloc3vec9into_iter8IntoIterReENCINvB5_18from_str_multi_valINtB1Z_3VecB2I_ETNtNtB21_6string6StringB3u_EB2I_E0EENtNtCs2wpcYnWkYL6_10serde_core2de12Deserializer15deserialize_seqINtNvXs30_NtB45_5implsTppENtB45_11Deserialize11deserialize12TupleVisitorB3u_B3u_EEBb_
FN:97,_RINvXs_NtNtNtCs7wZ7Ymcehhq_6silent4core5serde9multipartINtB5_8VecValueINtNtNtNtCsiMcf32LsBml_4core4iter8adapters3map3MapINtNtNtCskxbBfrLNYPn_5alloc3vec9into_iter8IntoIterReENCINvB5_18from_str_multi_valINtB1Z_3VecB2I_ETNtNtB21_6string6StringB3u_EB2I_E0EENtNtCs2wpcYnWkYL6_10serde_core2de12Deserializer17deserialize_tupleINtNvXs30_NtB45_5implsTppENtB45_11Deserialize11deserialize12TupleVisitorB3u_B3u_EEBb_
FN:89,_RINvXs_NtNtNtCs7wZ7Ymcehhq_6silent4core5serde9multipartINtB5_8VecValueINtNtNtNtCsiMcf32LsBml_4core4iter8adapters3map3MapINtNtNtCskxbBfrLNYPn_5alloc3vec9into_iter8IntoIterReENCINvB5_18from_str_multi_valINtB1Z_3VecB2I_ETlNtNtB21_6string6StringdEB2I_E0EENtNtCs2wpcYnWkYL6_10serde_core2de12Deserializer15deserialize_seqINtNvXs31_NtB43_5implsTpppENtB43_11Deserialize11deserialize12TupleVisitorlB3v_dEEBb_
FN:97,_RINvXs_NtNtNtCs7wZ7Ymcehhq_6silent4core5serde9multipartINtB5_8VecValueINtNtNtNtCsiMcf32LsBml_4core4iter8adapters3map3MapINtNtNtCskxbBfrLNYPn_5alloc3vec9into_iter8IntoIterReENCINvB5_18from_str_multi_valINtB1Z_3VecB2I_ETlNtNtB21_6string6StringdEB2I_E0EENtNtCs2wpcYnWkYL6_10serde_core2de12Deserializer17deserialize_tupleINtNvXs31_NtB43_5implsTpppENtB43_11Deserialize11deserialize12TupleVisitorlB3v_dEEBb_
FN:89,_RINvXs_NtNtNtCs7wZ7Ymcehhq_6silent4core5serde9multipartINtB5_8VecValueINtNtNtNtCsiMcf32LsBml_4core4iter8adapters3map3MapINtNtNtCskxbBfrLNYPn_5alloc3vec9into_iter8IntoIterReENCINvB5_18from_str_multi_valINtB1Z_3VecB2I_ETlllEB2I_E0EENtNtCs2wpcYnWkYL6_10serde_core2de12Deserializer15deserialize_seqINtNvXs31_NtB3I_5implsTpppENtB3I_11Deserialize11deserialize12TupleVisitorlllEEBb_
FN:97,_RINvXs_NtNtNtCs7wZ7Ymcehhq_6silent4core5serde9multipartINtB5_8VecValueINtNtNtNtCsiMcf32LsBml_4core4iter8adapters3map3MapINtNtNtCskxbBfrLNYPn_5alloc3vec9into_iter8IntoIterReENCINvB5_18from_str_multi_valINtB1Z_3VecB2I_ETlllEB2I_E0EENtNtCs2wpcYnWkYL6_10serde_core2de12Deserializer17deserialize_tupleINtNvXs31_NtB3I_5implsTpppENtB3I_11Deserialize11deserialize12TupleVisitorlllEEBb_
FN:21,_RINvXs_NtNtNtCs7wZ7Ymcehhq_6silent4core5serde9multipartINtB5_8VecValueINtNtNtNtCsiMcf32LsBml_4core4iter8adapters3map3MapINtNtNtCskxbBfrLNYPn_5alloc3vec9into_iter8IntoIterReENCINvB5_18from_str_multi_valINtB1Z_3VecB2I_EaB2I_E0EENtNtCs2wpcYnWkYL6_10serde_core2de12Deserializer14deserialize_i8NtNvXsL_NtB3E_5implsaNtB3E_11Deserialize11deserialize16PrimitiveVisitorEBb_
FN:21,_RINvXs_NtNtNtCs7wZ7Ymcehhq_6silent4core5serde9multipartINtB5_8VecValueINtNtNtNtCsiMcf32LsBml_4core4iter8adapters3map3MapINtNtNtCskxbBfrLNYPn_5alloc3vec9into_iter8IntoIterReENCINvB5_18from_str_multi_valINtB1Z_3VecB2I_EbB2I_E0EENtNtCs2wpcYnWkYL6_10serde_core2de12Deserializer16deserialize_boolNtNtB3E_5impls11BoolVisitorEBb_
FN:21,_RINvXs_NtNtNtCs7wZ7Ymcehhq_6silent4core5serde9multipartINtB5_8VecValueINtNtNtNtCsiMcf32LsBml_4core4iter8adapters3map3MapINtNtNtCskxbBfrLNYPn_5alloc3vec9into_iter8IntoIterReENCINvB5_18from_str_multi_valINtB1Z_3VecB2I_EdB2I_E0EENtNtCs2wpcYnWkYL6_10serde_core2de12Deserializer15deserialize_f64NtNvXs1e_NtB3E_5implsdNtB3E_11Deserialize11deserialize16PrimitiveVisitorEBb_
FN:21,_RINvXs_NtNtNtCs7wZ7Ymcehhq_6silent4core5serde9multipartINtB5_8VecValueINtNtNtNtCsiMcf32LsBml_4core4iter8adapters3map3MapINtNtNtCskxbBfrLNYPn_5alloc3vec9into_iter8IntoIterReENCINvB5_18from_str_multi_valINtB1Z_3VecB2I_EfB2I_E0EENtNtCs2wpcYnWkYL6_10serde_core2de12Deserializer15deserialize_f32NtNvXs1d_NtB3E_5implsfNtB3E_11Deserialize11deserialize16PrimitiveVisitorEBb_
FN:21,_RINvXs_NtNtNtCs7wZ7Ymcehhq_6silent4core5serde9multipartINtB5_8VecValueINtNtNtNtCsiMcf32LsBml_4core4iter8adapters3map3MapINtNtNtCskxbBfrLNYPn_5alloc3vec9into_iter8IntoIterReENCINvB5_18from_str_multi_valINtB1Z_3VecB2I_EhB2I_E0EENtNtCs2wpcYnWkYL6_10serde_core2de12Deserializer14deserialize_u8NtNvXs10_NtB3E_5implshNtB3E_11Deserialize11deserialize16PrimitiveVisitorEBb_
FN:21,_RINvXs_NtNtNtCs7wZ7Ymcehhq_6silent4core5serde9multipartINtB5_8VecValueINtNtNtNtCsiMcf32LsBml_4core4iter8adapters3map3MapINtNtNtCskxbBfrLNYPn_5alloc3vec9into_iter8IntoIterReENCINvB5_18from_str_multi_valINtB1Z_3VecB2I_ElB2I_E0EENtNtCs2wpcYnWkYL6_10serde_core2de12Deserializer15deserialize_i32NtNvXsR_NtB3E_5implslNtB3E_11Deserialize11deserialize16PrimitiveVisitorEBb_
FN:21,_RINvXs_NtNtNtCs7wZ7Ymcehhq_6silent4core5serde9multipartINtB5_8VecValueINtNtNtNtCsiMcf32LsBml_4core4iter8adapters3map3MapINtNtNtCskxbBfrLNYPn_5alloc3vec9into_iter8IntoIterReENCINvB5_18from_str_multi_valINtB1Z_3VecB2I_EmB2I_E0EENtNtCs2wpcYnWkYL6_10serde_core2de12Deserializer15deserialize_u32NtNvXs16_NtB3E_5implsmNtB3E_11Deserialize11deserialize16PrimitiveVisitorEBb_
FN:21,_RINvXs_NtNtNtCs7wZ7Ymcehhq_6silent4core5serde9multipartINtB5_8VecValueINtNtNtNtCsiMcf32LsBml_4core4iter8adapters3map3MapINtNtNtCskxbBfrLNYPn_5alloc3vec9into_iter8IntoIterReENCINvB5_18from_str_multi_valINtB1Z_3VecB2I_EsB2I_E0EENtNtCs2wpcYnWkYL6_10serde_core2de12Deserializer15deserialize_i16NtNvXsO_NtB3E_5implssNtB3E_11Deserialize11deserialize16PrimitiveVisitorEBb_
FN:21,_RINvXs_NtNtNtCs7wZ7Ymcehhq_6silent4core5serde9multipartINtB5_8VecValueINtNtNtNtCsiMcf32LsBml_4core4iter8adapters3map3MapINtNtNtCskxbBfrLNYPn_5alloc3vec9into_iter8IntoIterReENCINvB5_18from_str_multi_valINtB1Z_3VecB2I_EtB2I_E0EENtNtCs2wpcYnWkYL6_10serde_core2de12Deserializer15deserialize_u16NtNvXs13_NtB3E_5implstNtB3E_11Deserialize11deserialize16PrimitiveVisitorEBb_
FN:21,_RINvXs_NtNtNtCs7wZ7Ymcehhq_6silent4core5serde9multipartINtB5_8VecValueINtNtNtNtCsiMcf32LsBml_4core4iter8adapters3map3MapINtNtNtCskxbBfrLNYPn_5alloc3vec9into_iter8IntoIterReENCINvB5_18from_str_multi_valINtB1Z_3VecB2I_ExB2I_E0EENtNtCs2wpcYnWkYL6_10serde_core2de12Deserializer15deserialize_i64NtNvXsU_NtB3E_5implsxNtB3E_11Deserialize11deserialize16PrimitiveVisitorEBb_
FN:21,_RINvXs_NtNtNtCs7wZ7Ymcehhq_6silent4core5serde9multipartINtB5_8VecValueINtNtNtNtCsiMcf32LsBml_4core4iter8adapters3map3MapINtNtNtCskxbBfrLNYPn_5alloc3vec9into_iter8IntoIterReENCINvB5_18from_str_multi_valINtB1Z_3VecB2I_EyB2I_E0EENtNtCs2wpcYnWkYL6_10serde_core2de12Deserializer15deserialize_u64NtNvXs19_NtB3E_5implsyNtB3E_11Deserialize11deserialize16PrimitiveVisitorEBb_
FN:14,_RNCINvNtNtNtCs7wZ7Ymcehhq_6silent4core5serde9multipart18from_str_multi_valINtNtCskxbBfrLNYPn_5alloc3vec3VecNtNtB1f_6string6StringEIB1b_lEB1H_E0Ba_
FN:14,_RNCINvNtNtNtCs7wZ7Ymcehhq_6silent4core5serde9multipart18from_str_multi_valINtNtCskxbBfrLNYPn_5alloc3vec3VecReEIB1b_NtNtB1f_6string6StringEB1H_E0Ba_
FN:14,_RNCINvNtNtNtCs7wZ7Ymcehhq_6silent4core5serde9multipart18from_str_multi_valINtNtCskxbBfrLNYPn_5alloc3vec3VecReEIB1b_bEB1H_E0Ba_
FN:14,_RNCINvNtNtNtCs7wZ7Ymcehhq_6silent4core5serde9multipart18from_str_multi_valINtNtCskxbBfrLNYPn_5alloc3vec3VecReEIB1b_dEB1H_E0Ba_
FN:14,_RNCINvNtNtNtCs7wZ7Ymcehhq_6silent4core5serde9multipart18from_str_multi_valINtNtCskxbBfrLNYPn_5alloc3vec3VecReEIB1b_lEB1H_E0Ba_
FN:14,_RNCINvNtNtNtCs7wZ7Ymcehhq_6silent4core5serde9multipart18from_str_multi_valINtNtCskxbBfrLNYPn_5alloc3vec3VecReEINtNtCsiMcf32LsBml_4core6option6OptionIB1b_NtNtB1f_6string6StringEEB1H_E0Ba_
FN:14,_RNCINvNtNtNtCs7wZ7Ymcehhq_6silent4core5serde9multipart18from_str_multi_valINtNtCskxbBfrLNYPn_5alloc3vec3VecReEINtNtCsiMcf32LsBml_4core6option6OptionNtNtB1f_6string6StringEB1H_E0Ba_
FN:14,_RNCINvNtNtNtCs7wZ7Ymcehhq_6silent4core5serde9multipart18from_str_multi_valINtNtCskxbBfrLNYPn_5alloc3vec3VecReENtNtB1f_6string6StringB1H_E0Ba_
FN:14,_RNCINvNtNtNtCs7wZ7Ymcehhq_6silent4core5serde9multipart18from_str_multi_valINtNtCskxbBfrLNYPn_5alloc3vec3VecReENtNtB4_5tests5ColorB1H_E0Ba_
FN:14,_RNCINvNtNtNtCs7wZ7Ymcehhq_6silent4core5serde9multipart18from_str_multi_valINtNtCskxbBfrLNYPn_5alloc3vec3VecReENtNtB4_5tests6StatusB1H_E0Ba_
FN:14,_RNCINvNtNtNtCs7wZ7Ymcehhq_6silent4core5serde9multipart18from_str_multi_valINtNtCskxbBfrLNYPn_5alloc3vec3VecReETNtNtB1f_6string6StringB1L_EB1H_E0Ba_
FN:14,_RNCINvNtNtNtCs7wZ7Ymcehhq_6silent4core5serde9multipart18from_str_multi_valINtNtCskxbBfrLNYPn_5alloc3vec3VecReETlNtNtB1f_6string6StringdEB1H_E0Ba_
FN:14,_RNCINvNtNtNtCs7wZ7Ymcehhq_6silent4core5serde9multipart18from_str_multi_valINtNtCskxbBfrLNYPn_5alloc3vec3VecReETlllEB1H_E0Ba_
FN:14,_RNCINvNtNtNtCs7wZ7Ymcehhq_6silent4core5serde9multipart18from_str_multi_valINtNtCskxbBfrLNYPn_5alloc3vec3VecReEaB1H_E0Ba_
FN:14,_RNCINvNtNtNtCs7wZ7Ymcehhq_6silent4core5serde9multipart18from_str_multi_valINtNtCskxbBfrLNYPn_5alloc3vec3VecReEbB1H_E0Ba_
FN:14,_RNCINvNtNtNtCs7wZ7Ymcehhq_6silent4core5serde9multipart18from_str_multi_valINtNtCskxbBfrLNYPn_5alloc3vec3VecReEdB1H_E0Ba_
FN:14,_RNCINvNtNtNtCs7wZ7Ymcehhq_6silent4core5serde9multipart18from_str_multi_valINtNtCskxbBfrLNYPn_5alloc3vec3VecReEfB1H_E0Ba_
FN:14,_RNCINvNtNtNtCs7wZ7Ymcehhq_6silent4core5serde9multipart18from_str_multi_valINtNtCskxbBfrLNYPn_5alloc3vec3VecReEhB1H_E0Ba_
FN:14,_RNCINvNtNtNtCs7wZ7Ymcehhq_6silent4core5serde9multipart18from_str_multi_valINtNtCskxbBfrLNYPn_5alloc3vec3VecReElB1H_E0Ba_
FN:14,_RNCINvNtNtNtCs7wZ7Ymcehhq_6silent4core5serde9multipart18from_str_multi_valINtNtCskxbBfrLNYPn_5alloc3vec3VecReEmB1H_E0Ba_
FN:14,_RNCINvNtNtNtCs7wZ7Ymcehhq_6silent4core5serde9multipart18from_str_multi_valINtNtCskxbBfrLNYPn_5alloc3vec3VecReEsB1H_E0Ba_
FN:14,_RNCINvNtNtNtCs7wZ7Ymcehhq_6silent4core5serde9multipart18from_str_multi_valINtNtCskxbBfrLNYPn_5alloc3vec3VecReEtB1H_E0Ba_
FN:14,_RNCINvNtNtNtCs7wZ7Ymcehhq_6silent4core5serde9multipart18from_str_multi_valINtNtCskxbBfrLNYPn_5alloc3vec3VecReExB1H_E0Ba_
FN:14,_RNCINvNtNtNtCs7wZ7Ymcehhq_6silent4core5serde9multipart18from_str_multi_valINtNtCskxbBfrLNYPn_5alloc3vec3VecReEyB1H_E0Ba_
FN:459,_RNCNvNtNtNtNtCs7wZ7Ymcehhq_6silent4core5serde9multipart5testss_34test_from_str_multi_very_large_vec0Bb_
FNDA:0,_RINvNtNtNtCs9iG4RRqsTsR_6silent4core5serde9multipart18from_str_multi_valpppEB8_
FNDA:0,_RINvXININtNtNtCs9iG4RRqsTsR_6silent4core5serde9multiparts_0pEINtB6_8VecValuepENtNtCs2wpcYnWkYL6_10serde_core2de12Deserializer14deserialize_i8pEBc_
FNDA:0,_RINvXININtNtNtCs9iG4RRqsTsR_6silent4core5serde9multiparts_0pEINtB6_8VecValuepENtNtCs2wpcYnWkYL6_10serde_core2de12Deserializer14deserialize_u8pEBc_
FNDA:0,_RINvXININtNtNtCs9iG4RRqsTsR_6silent4core5serde9multiparts_0pEINtB6_8VecValuepENtNtCs2wpcYnWkYL6_10serde_core2de12Deserializer15deserialize_anypEBc_
FNDA:0,_RINvXININtNtNtCs9iG4RRqsTsR_6silent4core5serde9multiparts_0pEINtB6_8VecValuepENtNtCs2wpcYnWkYL6_10serde_core2de12Deserializer15deserialize_f32pEBc_
FNDA:0,_RINvXININtNtNtCs9iG4RRqsTsR_6silent4core5serde9multiparts_0pEINtB6_8VecValuepENtNtCs2wpcYnWkYL6_10serde_core2de12Deserializer15deserialize_f64pEBc_
FNDA:0,_RINvXININtNtNtCs9iG4RRqsTsR_6silent4core5serde9multiparts_0pEINtB6_8VecValuepENtNtCs2wpcYnWkYL6_10serde_core2de12Deserializer15deserialize_i16pEBc_
FNDA:0,_RINvXININtNtNtCs9iG4RRqsTsR_6silent4core5serde9multiparts_0pEINtB6_8VecValuepENtNtCs2wpcYnWkYL6_10serde_core2de12Deserializer15deserialize_i32pEBc_
FNDA:0,_RINvXININtNtNtCs9iG4RRqsTsR_6silent4core5serde9multiparts_0pEINtB6_8VecValuepENtNtCs2wpcYnWkYL6_10serde_core2de12Deserializer15deserialize_i64pEBc_
FNDA:0,_RINvXININtNtNtCs9iG4RRqsTsR_6silent4core5serde9multiparts_0pEINtB6_8VecValuepENtNtCs2wpcYnWkYL6_10serde_core2de12Deserializer15deserialize_seqpEBc_
FNDA:0,_RINvXININtNtNtCs9iG4RRqsTsR_6silent4core5serde9multiparts_0pEINtB6_8VecValuepENtNtCs2wpcYnWkYL6_10serde_core2de12Deserializer15deserialize_u16pEBc_
FNDA:0,_RINvXININtNtNtCs9iG4RRqsTsR_6silent4core5serde9multiparts_0pEINtB6_8VecValuepENtNtCs2wpcYnWkYL6_10serde_core2de12Deserializer15deserialize_u32pEBc_
FNDA:0,_RINvXININtNtNtCs9iG4RRqsTsR_6silent4core5serde9multiparts_0pEINtB6_8VecValuepENtNtCs2wpcYnWkYL6_10serde_core2de12Deserializer15deserialize_u64pEBc_
FNDA:0,_RINvXININtNtNtCs9iG4RRqsTsR_6silent4core5serde9multiparts_0pEINtB6_8VecValuepENtNtCs2wpcYnWkYL6_10serde_core2de12Deserializer16deserialize_boolpEBc_
FNDA:0,_RINvXININtNtNtCs9iG4RRqsTsR_6silent4core5serde9multiparts_0pEINtB6_8VecValuepENtNtCs2wpcYnWkYL6_10serde_core2de12Deserializer16deserialize_enumpEBc_
FNDA:0,_RINvXININtNtNtCs9iG4RRqsTsR_6silent4core5serde9multiparts_0pEINtB6_8VecValuepENtNtCs2wpcYnWkYL6_10serde_core2de12Deserializer17deserialize_tuplepEBc_
FNDA:0,_RINvXININtNtNtCs9iG4RRqsTsR_6silent4core5serde9multiparts_0pEINtB6_8VecValuepENtNtCs2wpcYnWkYL6_10serde_core2de12Deserializer18deserialize_optionpEBc_
FNDA:0,_RINvXININtNtNtCs9iG4RRqsTsR_6silent4core5serde9multiparts_0pEINtB6_8VecValuepENtNtCs2wpcYnWkYL6_10serde_core2de12Deserializer24deserialize_tuple_structpEBc_
FNDA:0,_RINvXININtNtNtCs9iG4RRqsTsR_6silent4core5serde9multiparts_0pEINtB6_8VecValuepENtNtCs2wpcYnWkYL6_10serde_core2de12Deserializer26deserialize_newtype_structpEBc_
FNDA:0,_RNCINvNtNtNtCs9iG4RRqsTsR_6silent4core5serde9multipart18from_str_multi_valpppE0Ba_
FNDA:0,_RNvXININtNtNtCs9iG4RRqsTsR_6silent4core5serde9multipart0pEINtB5_8VecValuepENtNtCs2wpcYnWkYL6_10serde_core2de16IntoDeserializer17into_deserializerBb_
FNDA:0,_RINvXININtNtNtCs7wZ7Ymcehhq_6silent4core5serde9multiparts_0pEINtB6_8VecValuepENtNtCs2wpcYnWkYL6_10serde_core2de12Deserializer24deserialize_tuple_structpEBc_
FNDA:0,_RINvXININtNtNtCs7wZ7Ymcehhq_6silent4core5serde9multiparts_0pEINtB6_8VecValuepENtNtCs2wpcYnWkYL6_10serde_core2de12Deserializer26deserialize_newtype_structpEBc_
FNDA:0,_RNvXININtNtNtCs7wZ7Ymcehhq_6silent4core5serde9multipart0pEINtB5_8VecValuepENtNtCs2wpcYnWkYL6_10serde_core2de16IntoDeserializer17into_deserializerBb_
FNDA:1,_RNvNtNtNtNtCs7wZ7Ymcehhq_6silent4core5serde9multipart5testss_26test_from_str_multi_val_i8
FNDA:1,_RNvNtNtNtNtCs7wZ7Ymcehhq_6silent4core5serde9multipart5testss_26test_from_str_multi_val_u8
FNDA:1,_RNvNtNtNtNtCs7wZ7Ymcehhq_6silent4core5serde9multipart5testss_27test_from_str_multi_val_f32
FNDA:1,_RNvNtNtNtNtCs7wZ7Ymcehhq_6silent4core5serde9multipart5testss_27test_from_str_multi_val_f64
FNDA:1,_RNvNtNtNtNtCs7wZ7Ymcehhq_6silent4core5serde9multipart5testss_27test_from_str_multi_val_i16
FNDA:1,_RNvNtNtNtNtCs7wZ7Ymcehhq_6silent4core5serde9multipart5testss_27test_from_str_multi_val_i32
FNDA:1,_RNvNtNtNtNtCs7wZ7Ymcehhq_6silent4core5serde9multipart5testss_27test_from_str_multi_val_i64
FNDA:1,_RNvNtNtNtNtCs7wZ7Ymcehhq_6silent4core5serde9multipart5testss_27test_from_str_multi_val_u16
FNDA:1,_RNvNtNtNtNtCs7wZ7Ymcehhq_6silent4core5serde9multipart5testss_27test_from_str_multi_val_u32
FNDA:1,_RNvNtNtNtNtCs7wZ7Ymcehhq_6silent4core5serde9multipart5testss_27test_from_str_multi_val_u64
FNDA:1,_RNvNtNtNtNtCs7wZ7Ymcehhq_6silent4core5serde9multipart5testss_28test_from_str_multi_val_zero
FNDA:1,_RNvNtNtNtNtCs7wZ7Ymcehhq_6silent4core5serde9multipart5testss_29test_from_str_multi_val_tuple
FNDA:1,_RNvNtNtNtNtCs7wZ7Ymcehhq_6silent4core5serde9multipart5testss_31test_from_str_multi_val_vec_f64
FNDA:1,_RNvNtNtNtNtCs7wZ7Ymcehhq_6silent4core5serde9multipart5testss_31test_from_str_multi_val_vec_i32
FNDA:1,_RNvNtNtNtNtCs7wZ7Ymcehhq_6silent4core5serde9multipart5testss_32test_from_str_multi_val_vec_bool
FNDA:1,_RNvNtNtNtNtCs7wZ7Ymcehhq_6silent4core5serde9multipart5testss_33test_from_str_multi_val_empty_vec
FNDA:1,_RNvNtNtNtNtCs7wZ7Ymcehhq_6silent4core5serde9multipart5testss_34test_from_str_multi_val_option_vec
FNDA:1,_RNvNtNtNtNtCs7wZ7Ymcehhq_6silent4core5serde9multipart5testss_34test_from_str_multi_val_vec_string
FNDA:1,_RNvNtNtNtNtCs7wZ7Ymcehhq_6silent4core5serde9multipart5testss_34test_from_str_multi_very_large_vec
FNDA:1,_RNvNtNtNtNtCs7wZ7Ymcehhq_6silent4core5serde9multipart5testss_35test_from_str_multi_val_long_string
FNDA:1,_RNvNtNtNtNtCs7wZ7Ymcehhq_6silent4core5serde9multipart5testss_35test_from_str_multi_val_option_some
FNDA:1,_RNvNtNtNtNtCs7wZ7Ymcehhq_6silent4core5serde9multipart5testss_35test_from_str_multi_val_overflow_i8
FNDA:1,_RNvNtNtNtNtCs7wZ7Ymcehhq_6silent4core5serde9multipart5testss_35test_from_str_multi_val_overflow_u8
FNDA:1,_RNvNtNtNtNtCs7wZ7Ymcehhq_6silent4core5serde9multipart5testss_35test_from_str_multi_val_tuple_three
FNDA:1,_RNvNtNtNtNtCs7wZ7Ymcehhq_6silent4core5serde9multipart5testss_35test_from_str_multi_vec_single_bool
FNDA:1,_RNvNtNtNtNtCs7wZ7Ymcehhq_6silent4core5serde9multipart5testss_36test_from_str_multi_val_invalid_bool
FNDA:1,_RNvNtNtNtNtCs7wZ7Ymcehhq_6silent4core5serde9multipart5testss_37test_from_str_multi_val_multiple_bool
FNDA:1,_RNvNtNtNtNtCs7wZ7Ymcehhq_6silent4core5serde9multipart5testss_37test_from_str_multi_val_negative_zero
FNDA:1,_RNvNtNtNtNtCs7wZ7Ymcehhq_6silent4core5serde9multipart5testss_37test_from_str_multi_val_single_string
FNDA:1,_RNvNtNtNtNtCs7wZ7Ymcehhq_6silent4core5serde9multipart5testss_38test_from_str_multi_val_invalid_number
FNDA:1,_RNvNtNtNtNtCs7wZ7Ymcehhq_6silent4core5serde9multipart5testss_41test_from_str_multi_val_enum_unit_variant
FNDA:1,_RNvNtNtNtNtCs7wZ7Ymcehhq_6silent4core5serde9multipart5testss_41test_from_str_multi_val_tuple_mixed_types
FNDA:1,_RNvNtNtNtNtCs7wZ7Ymcehhq_6silent4core5serde9multipart5testss_42test_from_str_multi_val_single_char_string
FNDA:1,_RNvNtNtNtNtCs7wZ7Ymcehhq_6silent4core5serde9multipart5testss_43test_from_str_multi_val_scientific_notation
FNDA:1,_RNvNtNtNtNtCs7wZ7Ymcehhq_6silent4core5serde9multipart5testss_44test_from_str_multi_val_vec_negative_numbers
FNDA:1,_RNvNtNtNtNtCs7wZ7Ymcehhq_6silent4core5serde9multipart5testss_47test_from_str_multi_val_enum_different_variants
FNDA:1,_RNvNtNtNtNtCs7wZ7Ymcehhq_6silent4core5serde9multipart5testss_47test_from_str_multi_val_mixed_positive_negative
FNDA:1,_RINvNtNtNtCs7wZ7Ymcehhq_6silent4core5serde9multipart18from_str_multi_valINtNtCskxbBfrLNYPn_5alloc3vec3VecNtNtB1d_6string6StringEIB19_lEB1F_EB8_
FNDA:2,_RINvNtNtNtCs7wZ7Ymcehhq_6silent4core5serde9multipart18from_str_multi_valINtNtCskxbBfrLNYPn_5alloc3vec3VecReEIB19_NtNtB1d_6string6StringEB1F_EB8_
FNDA:3,_RINvNtNtNtCs7wZ7Ymcehhq_6silent4core5serde9multipart18from_str_multi_valINtNtCskxbBfrLNYPn_5alloc3vec3VecReEIB19_bEB1F_EB8_
FNDA:1,_RINvNtNtNtCs7wZ7Ymcehhq_6silent4core5serde9multipart18from_str_multi_valINtNtCskxbBfrLNYPn_5alloc3vec3VecReEIB19_dEB1F_EB8_
FNDA:3,_RINvNtNtNtCs7wZ7Ymcehhq_6silent4core5serde9multipart18from_str_multi_valINtNtCskxbBfrLNYPn_5alloc3vec3VecReEIB19_lEB1F_EB8_
FNDA:1,_RINvNtNtNtCs7wZ7Ymcehhq_6silent4core5serde9multipart18from_str_multi_valINtNtCskxbBfrLNYPn_5alloc3vec3VecReEINtNtCsiMcf32LsBml_4core6option6OptionIB19_NtNtB1d_6string6StringEEB1F_EB8_
FNDA:1,_RINvNtNtNtCs7wZ7Ymcehhq_6silent4core5serde9multipart18from_str_multi_valINtNtCskxbBfrLNYPn_5alloc3vec3VecReEINtNtCsiMcf32LsBml_4core6option6OptionNtNtB1d_6string6StringEB1F_EB8_
FNDA:3,_RINvNtNtNtCs7wZ7Ymcehhq_6silent4core5serde9multipart18from_str_multi_valINtNtCskxbBfrLNYPn_5alloc3vec3VecReENtNtB1d_6string6StringB1F_EB8_
FNDA:3,_RINvNtNtNtCs7wZ7Ymcehhq_6silent4core5serde9multipart18from_str_multi_valINtNtCskxbBfrLNYPn_5alloc3vec3VecReENtNtB2_5tests5ColorB1F_EB8_
FNDA:1,_RINvNtNtNtCs7wZ7Ymcehhq_6silent4core5serde9multipart18from_str_multi_valINtNtCskxbBfrLNYPn_5alloc3vec3VecReENtNtB2_5tests6StatusB1F_EB8_
FNDA:1,_RINvNtNtNtCs7wZ7Ymcehhq_6silent4core5serde9multipart18from_str_multi_valINtNtCskxbBfrLNYPn_5alloc3vec3VecReETNtNtB1d_6string6StringB1J_EB1F_EB8_
FNDA:1,_RINvNtNtNtCs7wZ7Ymcehhq_6silent4core5serde9multipart18from_str_multi_valINtNtCskxbBfrLNYPn_5alloc3vec3VecReETlNtNtB1d_6string6StringdEB1F_EB8_
FNDA:1,_RINvNtNtNtCs7wZ7Ymcehhq_6silent4core5serde9multipart18from_str_multi_valINtNtCskxbBfrLNYPn_5alloc3vec3VecReETlllEB1F_EB8_
FNDA:2,_RINvNtNtNtCs7wZ7Ymcehhq_6silent4core5serde9multipart18from_str_multi_valINtNtCskxbBfrLNYPn_5alloc3vec3VecReEaB1F_EB8_
FNDA:1,_RINvNtNtNtCs7wZ7Ymcehhq_6silent4core5serde9multipart18from_str_multi_valINtNtCskxbBfrLNYPn_5alloc3vec3VecReEbB1F_EB8_
FNDA:2,_RINvNtNtNtCs7wZ7Ymcehhq_6silent4core5serde9multipart18from_str_multi_valINtNtCskxbBfrLNYPn_5alloc3vec3VecReEdB1F_EB8_
FNDA:1,_RINvNtNtNtCs7wZ7Ymcehhq_6silent4core5serde9multipart18from_str_multi_valINtNtCskxbBfrLNYPn_5alloc3vec3VecReEfB1F_EB8_
FNDA:2,_RINvNtNtNtCs7wZ7Ymcehhq_6silent4core5serde9multipart18from_str_multi_valINtNtCskxbBfrLNYPn_5alloc3vec3VecReEhB1F_EB8_
FNDA:4,_RINvNtNtNtCs7wZ7Ymcehhq_6silent4core5serde9multipart18from_str_multi_valINtNtCskxbBfrLNYPn_5alloc3vec3VecReElB1F_EB8_
FNDA:1,_RINvNtNtNtCs7wZ7Ymcehhq_6silent4core5serde9multipart18from_str_multi_valINtNtCskxbBfrLNYPn_5alloc3vec3VecReEmB1F_EB8_
FNDA:1,_RINvNtNtNtCs7wZ7Ymcehhq_6silent4core5serde9multipart18from_str_multi_valINtNtCskxbBfrLNYPn_5alloc3vec3VecReEsB1F_EB8_
FNDA:1,_RINvNtNtNtCs7wZ7Ymcehhq_6silent4core5serde9multipart18from_str_multi_valINtNtCskxbBfrLNYPn_5alloc3vec3VecReEtB1F_EB8_
FNDA:1,_RINvNtNtNtCs7wZ7Ymcehhq_6silent4core5serde9multipart18from_str_multi_valINtNtCskxbBfrLNYPn_5alloc3vec3VecReExB1F_EB8_
FNDA:1,_RINvNtNtNtCs7wZ7Ymcehhq_6silent4core5serde9multipart18from_str_multi_valINtNtCskxbBfrLNYPn_5alloc3vec3VecReEyB1F_EB8_
FNDA:1,_RINvXs_NtNtNtCs7wZ7Ymcehhq_6silent4core5serde9multipartINtB5_8VecValueINtNtNtNtCsiMcf32LsBml_4core4iter8adapters3map3MapINtNtNtCskxbBfrLNYPn_5alloc3vec9into_iter8IntoIterNtNtB21_6string6StringENCINvB5_18from_str_multi_valINtB1Z_3VecB2I_EIB3y_lEB2I_E0EENtNtCs2wpcYnWkYL6_10serde_core2de12Deserializer15deserialize_seqINtNvXsh_NtB44_5implsIB3y_pENtB44_11Deserialize11deserialize10VecVisitorlEEBb_
FNDA:2,_RINvXs_NtNtNtCs7wZ7Ymcehhq_6silent4core5serde9multipartINtB5_8VecValueINtNtNtNtCsiMcf32LsBml_4core4iter8adapters3map3MapINtNtNtCskxbBfrLNYPn_5alloc3vec9into_iter8IntoIterReENCINvB5_18from_str_multi_valINtB1Z_3VecB2I_EIB3e_NtNtB21_6string6StringEB2I_E0EENtNtCs2wpcYnWkYL6_10serde_core2de12Deserializer15deserialize_seqINtNvXsh_NtB45_5implsIB3e_pENtB45_11Deserialize11deserialize10VecVisitorB3y_EEBb_
FNDA:3,_RINvXs_NtNtNtCs7wZ7Ymcehhq_6silent4core5serde9multipartINtB5_8VecValueINtNtNtNtCsiMcf32LsBml_4core4iter8adapters3map3MapINtNtNtCskxbBfrLNYPn_5alloc3vec9into_iter8IntoIterReENCINvB5_18from_str_multi_valINtB1Z_3VecB2I_EIB3e_bEB2I_E0EENtNtCs2wpcYnWkYL6_10serde_core2de12Deserializer15deserialize_seqINtNvXsh_NtB3K_5implsIB3e_pENtB3K_11Deserialize11deserialize10VecVisitorbEEBb_
FNDA:1,_RINvXs_NtNtNtCs7wZ7Ymcehhq_6silent4core5serde9multipartINtB5_8VecValueINtNtNtNtCsiMcf32LsBml_4core4iter8adapters3map3MapINtNtNtCskxbBfrLNYPn_5alloc3vec9into_iter8IntoIterReENCINvB5_18from_str_multi_valINtB1Z_3VecB2I_EIB3e_dEB2I_E0EENtNtCs2wpcYnWkYL6_10serde_core2de12Deserializer15deserialize_seqINtNvXsh_NtB3K_5implsIB3e_pENtB3K_11Deserialize11deserialize10VecVisitordEEBb_
FNDA:3,_RINvXs_NtNtNtCs7wZ7Ymcehhq_6silent4core5serde9multipartINtB5_8VecValueINtNtNtNtCsiMcf32LsBml_4core4iter8adapters3map3MapINtNtNtCskxbBfrLNYPn_5alloc3vec9into_iter8IntoIterReENCINvB5_18from_str_multi_valINtB1Z_3VecB2I_EIB3e_lEB2I_E0EENtNtCs2wpcYnWkYL6_10serde_core2de12Deserializer15deserialize_seqINtNvXsh_NtB3K_5implsIB3e_pENtB3K_11Deserialize11deserialize10VecVisitorlEEBb_
FNDA:1,_RINvXs_NtNtNtCs7wZ7Ymcehhq_6silent4core5serde9multipartINtB5_8VecValueINtNtNtNtCsiMcf32LsBml_4core4iter8adapters3map3MapINtNtNtCskxbBfrLNYPn_5alloc3vec9into_iter8IntoIterReENCINvB5_18from_str_multi_valINtB1Z_3VecB2I_EINtNtB1f_6option6OptionIB3e_NtNtB21_6string6StringEEB2I_E0EENtNtCs2wpcYnWkYL6_10serde_core2de12Deserializer15deserialize_seqINtNvXsh_NtB4t_5implsIB3e_pENtB4t_11Deserialize11deserialize10VecVisitorB3V_EEBb_
FNDA:1,_RINvXs_NtNtNtCs7wZ7Ymcehhq_6silent4core5serde9multipartINtB5_8VecValueINtNtNtNtCsiMcf32LsBml_4core4iter8adapters3map3MapINtNtNtCskxbBfrLNYPn_5alloc3vec9into_iter8IntoIterReENCINvB5_18from_str_multi_valINtB1Z_3VecB2I_EINtNtB1f_6option6OptionIB3e_NtNtB21_6string6StringEEB2I_E0EENtNtCs2wpcYnWkYL6_10serde_core2de12Deserializer18deserialize_optionINtNtB4t_5impls13OptionVisitorB3Q_EEBb_
FNDA:1,_RINvXs_NtNtNtCs7wZ7Ymcehhq_6silent4core5serde9multipartINtB5_8VecValueINtNtNtNtCsiMcf32LsBml_4core4iter8adapters3map3MapINtNtNtCskxbBfrLNYPn_5alloc3vec9into_iter8IntoIterReENCINvB5_18from_str_multi_valINtB1Z_3VecB2I_EINtNtB1f_6option6OptionNtNtB21_6string6StringEB2I_E0EENtNtCs2wpcYnWkYL6_10serde_core2de12Deserializer15deserialize_anyNtNtB4n_5impls13StringVisitorEBb_
FNDA:1,_RINvXs_NtNtNtCs7wZ7Ymcehhq_6silent4core5serde9multipartINtB5_8VecValueINtNtNtNtCsiMcf32LsBml_4core4iter8adapters3map3MapINtNtNtCskxbBfrLNYPn_5alloc3vec9into_iter8IntoIterReENCINvB5_18from_str_multi_valINtB1Z_3VecB2I_EINtNtB1f_6option6OptionNtNtB21_6string6StringEB2I_E0EENtNtCs2wpcYnWkYL6_10serde_core2de12Deserializer18deserialize_optionINtNtB4n_5impls13OptionVisitorB3Q_EEBb_
FNDA:3,_RINvXs_NtNtNtCs7wZ7Ymcehhq_6silent4core5serde9multipartINtB5_8VecValueINtNtNtNtCsiMcf32LsBml_4core4iter8adapters3map3MapINtNtNtCskxbBfrLNYPn_5alloc3vec9into_iter8IntoIterReENCINvB5_18from_str_multi_valINtB1Z_3VecB2I_ENtNtB21_6string6StringB2I_E0EENtNtCs2wpcYnWkYL6_10serde_core2de12Deserializer15deserialize_anyNtNtB3Z_5impls13StringVisitorEBb_
FNDA:3,_RINvXs_NtNtNtCs7wZ7Ymcehhq_6silent4core5serde9multipartINtB5_8VecValueINtNtNtNtCsiMcf32LsBml_4core4iter8adapters3map3MapINtNtNtCskxbBfrLNYPn_5alloc3vec9into_iter8IntoIterReENCINvB5_18from_str_multi_valINtB1Z_3VecB2I_ENtNtB5_5tests5ColorB2I_E0EENtNtCs2wpcYnWkYL6_10serde_core2de12Deserializer16deserialize_enumNtNvXNvB3v_s_1__B3t_NtB3W_11Deserialize11deserialize9___VisitorEBb_
FNDA:1,_RINvXs_NtNtNtCs7wZ7Ymcehhq_6silent4core5serde9multipartINtB5_8VecValueINtNtNtNtCsiMcf32LsBml_4core4iter8adapters3map3MapINtNtNtCskxbBfrLNYPn_5alloc3vec9into_iter8IntoIterReENCINvB5_18from_str_multi_valINtB1Z_3VecB2I_ENtNtB5_5tests6StatusB2I_E0EENtNtCs2wpcYnWkYL6_10serde_core2de12Deserializer16deserialize_enumNtNvXNvB3v_1__B3t_NtB3X_11Deserialize11deserialize9___VisitorEBb_
FNDA:1,_RINvXs_NtNtNtCs7wZ7Ymcehhq_6silent4core5serde9multipartINtB5_8VecValueINtNtNtNtCsiMcf32LsBml_4core4iter8adapters3map3MapINtNtNtCskxbBfrLNYPn_5alloc3vec9into_iter8IntoIterReENCINvB5_18from_str_multi_valINtB1Z_3VecB2I_ETNtNtB21_6string6StringB3u_EB2I_E0EENtNtCs2wpcYnWkYL6_10serde_core2de12Deserializer15deserialize_seqINtNvXs30_NtB45_5implsTppENtB45_11Deserialize11deserialize12TupleVisitorB3u_B3u_EEBb_
FNDA:1,_RINvXs_NtNtNtCs7wZ7Ymcehhq_6silent4core5serde9multipartINtB5_8VecValueINtNtNtNtCsiMcf32LsBml_4core4iter8adapters3map3MapINtNtNtCskxbBfrLNYPn_5alloc3vec9into_iter8IntoIterReENCINvB5_18from_str_multi_valINtB1Z_3VecB2I_ETNtNtB21_6string6StringB3u_EB2I_E0EENtNtCs2wpcYnWkYL6_10serde_core2de12Deserializer17deserialize_tupleINtNvXs30_NtB45_5implsTppENtB45_11Deserialize11deserialize12TupleVisitorB3u_B3u_EEBb_
FNDA:1,_RINvXs_NtNtNtCs7wZ7Ymcehhq_6silent4core5serde9multipartINtB5_8VecValueINtNtNtNtCsiMcf32LsBml_4core4iter8adapters3map3MapINtNtNtCskxbBfrLNYPn_5alloc3vec9into_iter8IntoIterReENCINvB5_18from_str_multi_valINtB1Z_3VecB2I_ETlNtNtB21_6string6StringdEB2I_E0EENtNtCs2wpcYnWkYL6_10serde_core2de12Deserializer15deserialize_seqINtNvXs31_NtB43_5implsTpppENtB43_11Deserialize11deserialize12TupleVisitorlB3v_dEEBb_
FNDA:1,_RINvXs_NtNtNtCs7wZ7Ymcehhq_6silent4core5serde9multipartINtB5_8VecValueINtNtNtNtCsiMcf32LsBml_4core4iter8adapters3map3MapINtNtNtCskxbBfrLNYPn_5alloc3vec9into_iter8IntoIterReENCINvB5_18from_str_multi_valINtB1Z_3VecB2I_ETlNtNtB21_6string6StringdEB2I_E0EENtNtCs2wpcYnWkYL6_10serde_core2de12Deserializer17deserialize_tupleINtNvXs31_NtB43_5implsTpppENtB43_11Deserialize11deserialize12TupleVisitorlB3v_dEEBb_
FNDA:1,_RINvXs_NtNtNtCs7wZ7Ymcehhq_6silent4core5serde9multipartINtB5_8VecValueINtNtNtNtCsiMcf32LsBml_4core4iter8adapters3map3MapINtNtNtCskxbBfrLNYPn_5alloc3vec9into_iter8IntoIterReENCINvB5_18from_str_multi_valINtB1Z_3VecB2I_ETlllEB2I_E0EENtNtCs2wpcYnWkYL6_10serde_core2de12Deserializer15deserialize_seqINtNvXs31_NtB3I_5implsTpppENtB3I_11Deserialize11deserialize12TupleVisitorlllEEBb_
FNDA:1,_RINvXs_NtNtNtCs7wZ7Ymcehhq_6silent4core5serde9multipartINtB5_8VecValueINtNtNtNtCsiMcf32LsBml_4core4iter8adapters3map3MapINtNtNtCskxbBfrLNYPn_5alloc3vec9into_iter8IntoIterReENCINvB5_18from_str_multi_valINtB1Z_3VecB2I_ETlllEB2I_E0EENtNtCs2wpcYnWkYL6_10serde_core2de12Deserializer17deserialize_tupleINtNvXs31_NtB3I_5implsTpppENtB3I_11Deserialize11deserialize12TupleVisitorlllEEBb_
FNDA:2,_RINvXs_NtNtNtCs7wZ7Ymcehhq_6silent4core5serde9multipartINtB5_8VecValueINtNtNtNtCsiMcf32LsBml_4core4iter8adapters3map3MapINtNtNtCskxbBfrLNYPn_5alloc3vec9into_iter8IntoIterReENCINvB5_18from_str_multi_valINtB1Z_3VecB2I_EaB2I_E0EENtNtCs2wpcYnWkYL6_10serde_core2de12Deserializer14deserialize_i8NtNvXsL_NtB3E_5implsaNtB3E_11Deserialize11deserialize16PrimitiveVisitorEBb_
FNDA:1,_RINvXs_NtNtNtCs7wZ7Ymcehhq_6silent4core5serde9multipartINtB5_8VecValueINtNtNtNtCsiMcf32LsBml_4core4iter8adapters3map3MapINtNtNtCskxbBfrLNYPn_5alloc3vec9into_iter8IntoIterReENCINvB5_18from_str_multi_valINtB1Z_3VecB2I_EbB2I_E0EENtNtCs2wpcYnWkYL6_10serde_core2de12Deserializer16deserialize_boolNtNtB3E_5impls11BoolVisitorEBb_
FNDA:2,_RINvXs_NtNtNtCs7wZ7Ymcehhq_6silent4core5serde9multipartINtB5_8VecValueINtNtNtNtCsiMcf32LsBml_4core4iter8adapters3map3MapINtNtNtCskxbBfrLNYPn_5alloc3vec9into_iter8IntoIterReENCINvB5_18from_str_multi_valINtB1Z_3VecB2I_EdB2I_E0EENtNtCs2wpcYnWkYL6_10serde_core2de12Deserializer15deserialize_f64NtNvXs1e_NtB3E_5implsdNtB3E_11Deserialize11deserialize16PrimitiveVisitorEBb_
FNDA:1,_RINvXs_NtNtNtCs7wZ7Ymcehhq_6silent4core5serde9multipartINtB5_8VecValueINtNtNtNtCsiMcf32LsBml_4core4iter8adapters3map3MapINtNtNtCskxbBfrLNYPn_5alloc3vec9into_iter8IntoIterReENCINvB5_18from_str_multi_valINtB1Z_3VecB2I_EfB2I_E0EENtNtCs2wpcYnWkYL6_10serde_core2de12Deserializer15deserialize_f32NtNvXs1d_NtB3E_5implsfNtB3E_11Deserialize11deserialize16PrimitiveVisitorEBb_
FNDA:2,_RINvXs_NtNtNtCs7wZ7Ymcehhq_6silent4core5serde9multipartINtB5_8VecValueINtNtNtNtCsiMcf32LsBml_4core4iter8adapters3map3MapINtNtNtCskxbBfrLNYPn_5alloc3vec9into_iter8IntoIterReENCINvB5_18from_str_multi_valINtB1Z_3VecB2I_EhB2I_E0EENtNtCs2wpcYnWkYL6_10serde_core2de12Deserializer14deserialize_u8NtNvXs10_NtB3E_5implshNtB3E_11Deserialize11deserialize16PrimitiveVisitorEBb_
FNDA:4,_RINvXs_NtNtNtCs7wZ7Ymcehhq_6silent4core5serde9multipartINtB5_8VecValueINtNtNtNtCsiMcf32LsBml_4core4iter8adapters3map3MapINtNtNtCskxbBfrLNYPn_5alloc3vec9into_iter8IntoIterReENCINvB5_18from_str_multi_valINtB1Z_3VecB2I_ElB2I_E0EENtNtCs2wpcYnWkYL6_10serde_core2de12Deserializer15deserialize_i32NtNvXsR_NtB3E_5implslNtB3E_11Deserialize11deserialize16PrimitiveVisitorEBb_
FNDA:1,_RINvXs_NtNtNtCs7wZ7Ymcehhq_6silent4core5serde9multipartINtB5_8VecValueINtNtNtNtCsiMcf32LsBml_4core4iter8adapters3map3MapINtNtNtCskxbBfrLNYPn_5alloc3vec9into_iter8IntoIterReENCINvB5_18from_str_multi_valINtB1Z_3VecB2I_EmB2I_E0EENtNtCs2wpcYnWkYL6_10serde_core2de12Deserializer15deserialize_u32NtNvXs16_NtB3E_5implsmNtB3E_11Deserialize11deserialize16PrimitiveVisitorEBb_
FNDA:1,_RINvXs_NtNtNtCs7wZ7Ymcehhq_6silent4core5serde9multipartINtB5_8VecValueINtNtNtNtCsiMcf32LsBml_4core4iter8adapters3map3MapINtNtNtCskxbBfrLNYPn_5alloc3vec9into_iter8IntoIterReENCINvB5_18from_str_multi_valINtB1Z_3VecB2I_EsB2I_E0EENtNtCs2wpcYnWkYL6_10serde_core2de12Deserializer15deserialize_i16NtNvXsO_NtB3E_5implssNtB3E_11Deserialize11deserialize16PrimitiveVisitorEBb_
FNDA:1,_RINvXs_NtNtNtCs7wZ7Ymcehhq_6silent4core5serde9multipartINtB5_8VecValueINtNtNtNtCsiMcf32LsBml_4core4iter8adapters3map3MapINtNtNtCskxbBfrLNYPn_5alloc3vec9into_iter8IntoIterReENCINvB5_18from_str_multi_valINtB1Z_3VecB2I_EtB2I_E0EENtNtCs2wpcYnWkYL6_10serde_core2de12Deserializer15deserialize_u16NtNvXs13_NtB3E_5implstNtB3E_11Deserialize11deserialize16PrimitiveVisitorEBb_
FNDA:1,_RINvXs_NtNtNtCs7wZ7Ymcehhq_6silent4core5serde9multipartINtB5_8VecValueINtNtNtNtCsiMcf32LsBml_4core4iter8adapters3map3MapINtNtNtCskxbBfrLNYPn_5alloc3vec9into_iter8IntoIterReENCINvB5_18from_str_multi_valINtB1Z_3VecB2I_ExB2I_E0EENtNtCs2wpcYnWkYL6_10serde_core2de12Deserializer15deserialize_i64NtNvXsU_NtB3E_5implsxNtB3E_11Deserialize11deserialize16PrimitiveVisitorEBb_
FNDA:1,_RINvXs_NtNtNtCs7wZ7Ymcehhq_6silent4core5serde9multipartINtB5_8VecValueINtNtNtNtCsiMcf32LsBml_4core4iter8adapters3map3MapINtNtNtCskxbBfrLNYPn_5alloc3vec9into_iter8IntoIterReENCINvB5_18from_str_multi_valINtB1Z_3VecB2I_EyB2I_E0EENtNtCs2wpcYnWkYL6_10serde_core2de12Deserializer15deserialize_u64NtNvXs19_NtB3E_5implsyNtB3E_11Deserialize11deserialize16PrimitiveVisitorEBb_
FNDA:100,_RNCINvNtNtNtCs7wZ7Ymcehhq_6silent4core5serde9multipart18from_str_multi_valINtNtCskxbBfrLNYPn_5alloc3vec3VecNtNtB1f_6string6StringEIB1b_lEB1H_E0Ba_
FNDA:3,_RNCINvNtNtNtCs7wZ7Ymcehhq_6silent4core5serde9multipart18from_str_multi_valINtNtCskxbBfrLNYPn_5alloc3vec3VecReEIB1b_NtNtB1f_6string6StringEB1H_E0Ba_
FNDA:6,_RNCINvNtNtNtCs7wZ7Ymcehhq_6silent4core5serde9multipart18from_str_multi_valINtNtCskxbBfrLNYPn_5alloc3vec3VecReEIB1b_bEB1H_E0Ba_
FNDA:3,_RNCINvNtNtNtCs7wZ7Ymcehhq_6silent4core5serde9multipart18from_str_multi_valINtNtCskxbBfrLNYPn_5alloc3vec3VecReEIB1b_dEB1H_E0Ba_
FNDA:9,_RNCINvNtNtNtCs7wZ7Ymcehhq_6silent4core5serde9multipart18from_str_multi_valINtNtCskxbBfrLNYPn_5alloc3vec3VecReEIB1b_lEB1H_E0Ba_
FNDA:3,_RNCINvNtNtNtCs7wZ7Ymcehhq_6silent4core5serde9multipart18from_str_multi_valINtNtCskxbBfrLNYPn_5alloc3vec3VecReEINtNtCsiMcf32LsBml_4core6option6OptionIB1b_NtNtB1f_6string6StringEEB1H_E0Ba_
FNDA:1,_RNCINvNtNtNtCs7wZ7Ymcehhq_6silent4core5serde9multipart18from_str_multi_valINtNtCskxbBfrLNYPn_5alloc3vec3VecReEINtNtCsiMcf32LsBml_4core6option6OptionNtNtB1f_6string6StringEB1H_E0Ba_
FNDA:3,_RNCINvNtNtNtCs7wZ7Ymcehhq_6silent4core5serde9multipart18from_str_multi_valINtNtCskxbBfrLNYPn_5alloc3vec3VecReENtNtB1f_6string6StringB1H_E0Ba_
FNDA:3,_RNCINvNtNtNtCs7wZ7Ymcehhq_6silent4core5serde9multipart18from_str_multi_valINtNtCskxbBfrLNYPn_5alloc3vec3VecReENtNtB4_5tests5ColorB1H_E0Ba_
FNDA:1,_RNCINvNtNtNtCs7wZ7Ymcehhq_6silent4core5serde9multipart18from_str_multi_valINtNtCskxbBfrLNYPn_5alloc3vec3VecReENtNtB4_5tests6StatusB1H_E0Ba_
FNDA:2,_RNCINvNtNtNtCs7wZ7Ymcehhq_6silent4core5serde9multipart18from_str_multi_valINtNtCskxbBfrLNYPn_5alloc3vec3VecReETNtNtB1f_6string6StringB1L_EB1H_E0Ba_
FNDA:3,_RNCINvNtNtNtCs7wZ7Ymcehhq_6silent4core5serde9multipart18from_str_multi_valINtNtCskxbBfrLNYPn_5alloc3vec3VecReETlNtNtB1f_6string6StringdEB1H_E0Ba_
FNDA:3,_RNCINvNtNtNtCs7wZ7Ymcehhq_6silent4core5serde9multipart18from_str_multi_valINtNtCskxbBfrLNYPn_5alloc3vec3VecReETlllEB1H_E0Ba_
FNDA:2,_RNCINvNtNtNtCs7wZ7Ymcehhq_6silent4core5serde9multipart18from_str_multi_valINtNtCskxbBfrLNYPn_5alloc3vec3VecReEaB1H_E0Ba_
FNDA:1,_RNCINvNtNtNtCs7wZ7Ymcehhq_6silent4core5serde9multipart18from_str_multi_valINtNtCskxbBfrLNYPn_5alloc3vec3VecReEbB1H_E0Ba_
FNDA:2,_RNCINvNtNtNtCs7wZ7Ymcehhq_6silent4core5serde9multipart18from_str_multi_valINtNtCskxbBfrLNYPn_5alloc3vec3VecReEdB1H_E0Ba_
FNDA:1,_RNCINvNtNtNtCs7wZ7Ymcehhq_6silent4core5serde9multipart18from_str_multi_valINtNtCskxbBfrLNYPn_5alloc3vec3VecReEfB1H_E0Ba_
FNDA:2,_RNCINvNtNtNtCs7wZ7Ymcehhq_6silent4core5serde9multipart18from_str_multi_valINtNtCskxbBfrLNYPn_5alloc3vec3VecReEhB1H_E0Ba_
FNDA:4,_RNCINvNtNtNtCs7wZ7Ymcehhq_6silent4core5serde9multipart18from_str_multi_valINtNtCskxbBfrLNYPn_5alloc3vec3VecReElB1H_E0Ba_
FNDA:1,_RNCINvNtNtNtCs7wZ7Ymcehhq_6silent4core5serde9multipart18from_str_multi_valINtNtCskxbBfrLNYPn_5alloc3vec3VecReEmB1H_E0Ba_
FNDA:1,_RNCINvNtNtNtCs7wZ7Ymcehhq_6silent4core5serde9multipart18from_str_multi_valINtNtCskxbBfrLNYPn_5alloc3vec3VecReEsB1H_E0Ba_
FNDA:1,_RNCINvNtNtNtCs7wZ7Ymcehhq_6silent4core5serde9multipart18from_str_multi_valINtNtCskxbBfrLNYPn_5alloc3vec3VecReEtB1H_E0Ba_
FNDA:1,_RNCINvNtNtNtCs7wZ7Ymcehhq_6silent4core5serde9multipart18from_str_multi_valINtNtCskxbBfrLNYPn_5alloc3vec3VecReExB1H_E0Ba_
FNDA:1,_RNCINvNtNtNtCs7wZ7Ymcehhq_6silent4core5serde9multipart18from_str_multi_valINtNtCskxbBfrLNYPn_5alloc3vec3VecReEyB1H_E0Ba_
FNDA:100,_RNCNvNtNtNtNtCs7wZ7Ymcehhq_6silent4core5serde9multipart5testss_34test_from_str_multi_very_large_vec0Bb_
FNF:49
FNH:46
DA:8,39
DA:9,39
DA:10,39
DA:11,39
DA:12,39
DA:14,157
DA:15,39
DA:16,39
DA:21,17
DA:22,17
DA:24,17
DA:25,17
DA:26,13
DA:27,4
DA:30,0
DA:32,17
DA:46,0
DA:47,0
DA:48,0
DA:58,4
DA:59,4
DA:60,4
DA:62,4
DA:63,4
DA:64,0
DA:66,4
DA:69,2
DA:70,2
DA:71,2
DA:73,2
DA:74,2
DA:77,0
DA:78,0
DA:79,0
DA:80,0
DA:81,0
DA:82,0
DA:83,0
DA:85,0
DA:86,0
DA:89,14
DA:90,14
DA:91,14
DA:93,14
DA:94,14
DA:97,3
DA:98,3
DA:99,3
DA:101,3
DA:102,3
DA:104,0
DA:105,0
DA:106,0
DA:107,0
DA:108,0
DA:109,0
DA:110,0
DA:111,0
DA:113,0
DA:114,0
DA:116,4
DA:117,4
DA:118,4
DA:119,4
DA:120,4
DA:121,4
DA:122,4
DA:123,4
DA:125,4
DA:126,4
DA:127,0
DA:129,4
DA:168,1
DA:169,1
DA:170,1
DA:171,1
DA:172,1
DA:175,1
DA:176,1
DA:177,1
DA:178,1
DA:179,1
DA:182,1
DA:183,1
DA:184,1
DA:185,1
DA:186,1
DA:189,1
DA:190,1
DA:191,1
DA:192,1
DA:193,1
DA:196,1
DA:197,1
DA:198,1
DA:199,1
DA:200,1
DA:203,1
DA:204,1
DA:205,1
DA:206,1
DA:207,1
DA:212,1
DA:213,1
DA:214,1
DA:215,1
DA:216,1
DA:219,1
DA:220,1
DA:221,1
DA:222,1
DA:223,1
DA:226,1
DA:227,1
DA:228,1
DA:229,1
DA:230,1
DA:233,1
DA:234,1
DA:235,1
DA:236,1
DA:237,1
DA:240,1
DA:241,1
DA:242,1
DA:243,1
DA:244,1
DA:247,1
DA:248,1
DA:249,1
DA:250,1
DA:251,1
DA:254,1
DA:255,1
DA:256,1
DA:257,1
DA:258,1
DA:261,1
DA:262,1
DA:263,1
DA:264,1
DA:265,1
DA:268,1
DA:269,1
DA:270,1
DA:271,1
DA:272,1
DA:275,1
DA:276,1
DA:277,1
DA:278,1
DA:279,1
DA:284,1
DA:285,1
DA:286,1
DA:287,1
DA:288,1
DA:291,1
DA:292,1
DA:293,1
DA:294,1
DA:296,1
DA:298,1
DA:303,1
DA:304,1
DA:305,1
DA:306,1
DA:307,1
DA:310,1
DA:311,1
DA:312,1
DA:313,1
DA:314,1
DA:317,1
DA:318,1
DA:319,1
DA:320,1
DA:321,1
DA:333,1
DA:334,1
DA:335,1
DA:336,1
DA:337,1
DA:347,1
DA:348,1
DA:349,1
DA:351,1
DA:352,1
DA:354,1
DA:355,1
DA:356,1
DA:361,1
DA:362,1
DA:363,1
DA:364,1
DA:365,1
DA:368,1
DA:369,1
DA:370,1
DA:371,1
DA:372,1
DA:375,1
DA:376,1
DA:377,1
DA:378,1
DA:379,1
DA:382,1
DA:383,1
DA:384,1
DA:385,1
DA:386,1
DA:389,1
DA:390,1
DA:391,1
DA:392,1
DA:393,1
DA:396,1
DA:397,1
DA:398,1
DA:399,1
DA:400,1
DA:405,1
DA:406,1
DA:407,1
DA:408,1
DA:409,1
DA:412,1
DA:413,1
DA:414,1
DA:415,1
DA:416,1
DA:420,1
DA:423,1
DA:424,1
DA:425,1
DA:426,1
DA:427,1
DA:430,1
DA:431,1
DA:432,1
DA:433,1
DA:434,1
DA:437,1
DA:438,1
DA:439,1
DA:440,1
DA:441,1
DA:444,1
DA:445,1
DA:446,1
DA:447,1
DA:448,1
DA:451,1
DA:452,1
DA:453,1
DA:454,1
DA:455,1
DA:458,1
DA:459,100
DA:460,1
DA:461,1
DA:462,1
DA:463,1
DA:464,1
BRF:0
BRH:0
LF:266
LH:241
end_of_record
SF:/Users/hubertshelley/Documents/silent/silent/silent/src/core/socket_addr.rs
FN:16,_RNvMNtNtCs9iG4RRqsTsR_6silent4core11socket_addrNtB2_10SocketAddr3tls
FN:43,_RNvXs0_NtNtCs9iG4RRqsTsR_6silent4core11socket_addrNtB5_10SocketAddrNtNtCsiMcf32LsBml_4core3fmt7Display3fmt
FN:62,_RNvXs1_NtNtCs9iG4RRqsTsR_6silent4core11socket_addrNtB5_10SocketAddrINtNtCsiMcf32LsBml_4core7convert4FromNtNtNtB18_3net11socket_addr10SocketAddrE4from
FN:69,_RNvXs2_NtNtCs9iG4RRqsTsR_6silent4core11socket_addrNtB5_10SocketAddrINtNtCsiMcf32LsBml_4core7convert4FromNtNtNtNtNtCsle0CjmPo1W9_3std2os4unix3net4addr10SocketAddrE4from
FN:78,_RNvXs3_NtNtCs9iG4RRqsTsR_6silent4core11socket_addrNtB5_10SocketAddrNtNtNtCsiMcf32LsBml_4core3str6traits7FromStr8from_str
FN:25,_RNvXs_NtNtCs9iG4RRqsTsR_6silent4core11socket_addrNtB4_10SocketAddrNtNtCsiMcf32LsBml_4core3fmt5Debug3fmt
FN:328,_RNvNtNtNtCs7wZ7Ymcehhq_6silent4core11socket_addr5testss_14test_ipv6_full
FN:348,_RNvNtNtNtCs7wZ7Ymcehhq_6silent4core11socket_addr5testss_17test_all_zeros_ip
FN:355,_RNvNtNtNtCs7wZ7Ymcehhq_6silent4core11socket_addr5testss_17test_broadcast_ip
FN:362,_RNvNtNtNtCs7wZ7Ymcehhq_6silent4core11socket_addr5testss_17test_multicast_ip
FN:255,_RNvNtNtNtCs7wZ7Ymcehhq_6silent4core11socket_addr5testss_17test_tls_from_tcp
FN:320,_RNvNtNtNtCs7wZ7Ymcehhq_6silent4core11socket_addr5testss_18test_ipv6_loopback
FN:274,_RNvNtNtNtCs7wZ7Ymcehhq_6silent4core11socket_addr5testss_18test_tls_from_unix
FN:226,_RNvNtNtNtCs7wZ7Ymcehhq_6silent4core11socket_addr5testss_19test_from_str_empty
FN:287,_RNvNtNtNtCs7wZ7Ymcehhq_6silent4core11socket_addr5testss_21test_clone_tcp_socket
FN:309,_RNvNtNtNtCs7wZ7Ymcehhq_6silent4core11socket_addr5testss_21test_clone_tls_socket
FN:135,_RNvNtNtNtCs7wZ7Ymcehhq_6silent4core11socket_addr5testss_21test_debug_tcp_socket
FN:171,_RNvNtNtNtCs7wZ7Ymcehhq_6silent4core11socket_addr5testss_21test_display_tcp_ipv4
FN:178,_RNvNtNtNtCs7wZ7Ymcehhq_6silent4core11socket_addr5testss_21test_display_tcp_ipv6
FN:338,_RNvNtNtNtCs7wZ7Ymcehhq_6silent4core11socket_addr5testss_21test_privileged_ports
FN:264,_RNvNtNtNtCs7wZ7Ymcehhq_6silent4core11socket_addr5testss_21test_tls_from_tls_tcp
FN:297,_RNvNtNtNtCs7wZ7Ymcehhq_6silent4core11socket_addr5testss_22test_clone_unix_socket
FN:155,_RNvNtNtNtCs7wZ7Ymcehhq_6silent4core11socket_addr5testss_22test_debug_unix_socket
FN:201,_RNvNtNtNtCs7wZ7Ymcehhq_6silent4core11socket_addr5testss_22test_from_str_tcp_addr
FN:187,_RNvNtNtNtCs7wZ7Ymcehhq_6silent4core11socket_addr5testss_24test_display_unix_socket
FN:145,_RNvNtNtNtCs7wZ7Ymcehhq_6silent4core11socket_addr5testss_25test_debug_tls_tcp_socket
FN:244,_RNvNtNtNtCs7wZ7Ymcehhq_6silent4core11socket_addr5testss_25test_from_str_unix_socket
FN:209,_RNvNtNtNtCs7wZ7Ymcehhq_6silent4core11socket_addr5testss_26test_from_str_invalid_addr
FN:125,_RNvNtNtNtCs7wZ7Ymcehhq_6silent4core11socket_addr5testss_26test_from_unix_socket_addr
FN:110,_RNvNtNtNtCs7wZ7Ymcehhq_6silent4core11socket_addr5testss_30test_from_std_socket_addr_ipv4
FN:117,_RNvNtNtNtCs7wZ7Ymcehhq_6silent4core11socket_addr5testss_30test_from_std_socket_addr_ipv6
FN:16,_RNvMNtNtCs7wZ7Ymcehhq_6silent4core11socket_addrNtB2_10SocketAddr3tls
FN:43,_RNvXs0_NtNtCs7wZ7Ymcehhq_6silent4core11socket_addrNtB5_10SocketAddrNtNtCsiMcf32LsBml_4core3fmt7Display3fmt
FN:62,_RNvXs1_NtNtCs7wZ7Ymcehhq_6silent4core11socket_addrNtB5_10SocketAddrINtNtCsiMcf32LsBml_4core7convert4FromNtNtNtB18_3net11socket_addr10SocketAddrE4from
FN:69,_RNvXs2_NtNtCs7wZ7Ymcehhq_6silent4core11socket_addrNtB5_10SocketAddrINtNtCsiMcf32LsBml_4core7convert4FromNtNtNtNtNtCsle0CjmPo1W9_3std2os4unix3net4addr10SocketAddrE4from
FN:78,_RNvXs3_NtNtCs7wZ7Ymcehhq_6silent4core11socket_addrNtB5_10SocketAddrNtNtNtCsiMcf32LsBml_4core3str6traits7FromStr8from_str
FN:25,_RNvXs_NtNtCs7wZ7Ymcehhq_6silent4core11socket_addrNtB4_10SocketAddrNtNtCsiMcf32LsBml_4core3fmt5Debug3fmt
FNDA:0,_RNvMNtNtCs9iG4RRqsTsR_6silent4core11socket_addrNtB2_10SocketAddr3tls
FNDA:1,_RNvXs0_NtNtCs9iG4RRqsTsR_6silent4core11socket_addrNtB5_10SocketAddrNtNtCsiMcf32LsBml_4core3fmt7Display3fmt
FNDA:1,_RNvXs1_NtNtCs9iG4RRqsTsR_6silent4core11socket_addrNtB5_10SocketAddrINtNtCsiMcf32LsBml_4core7convert4FromNtNtNtB18_3net11socket_addr10SocketAddrE4from
FNDA:0,_RNvXs2_NtNtCs9iG4RRqsTsR_6silent4core11socket_addrNtB5_10SocketAddrINtNtCsiMcf32LsBml_4core7convert4FromNtNtNtNtNtCsle0CjmPo1W9_3std2os4unix3net4addr10SocketAddrE4from
FNDA:0,_RNvXs3_NtNtCs9iG4RRqsTsR_6silent4core11socket_addrNtB5_10SocketAddrNtNtNtCsiMcf32LsBml_4core3str6traits7FromStr8from_str
FNDA:0,_RNvXs_NtNtCs9iG4RRqsTsR_6silent4core11socket_addrNtB4_10SocketAddrNtNtCsiMcf32LsBml_4core3fmt5Debug3fmt
FNDA:1,_RNvNtNtNtCs7wZ7Ymcehhq_6silent4core11socket_addr5testss_14test_ipv6_full
FNDA:1,_RNvNtNtNtCs7wZ7Ymcehhq_6silent4core11socket_addr5testss_17test_all_zeros_ip
FNDA:1,_RNvNtNtNtCs7wZ7Ymcehhq_6silent4core11socket_addr5testss_17test_broadcast_ip
FNDA:1,_RNvNtNtNtCs7wZ7Ymcehhq_6silent4core11socket_addr5testss_17test_multicast_ip
FNDA:1,_RNvNtNtNtCs7wZ7Ymcehhq_6silent4core11socket_addr5testss_17test_tls_from_tcp
FNDA:1,_RNvNtNtNtCs7wZ7Ymcehhq_6silent4core11socket_addr5testss_18test_ipv6_loopback
FNDA:1,_RNvNtNtNtCs7wZ7Ymcehhq_6silent4core11socket_addr5testss_18test_tls_from_unix
FNDA:1,_RNvNtNtNtCs7wZ7Ymcehhq_6silent4core11socket_addr5testss_19test_from_str_empty
FNDA:1,_RNvNtNtNtCs7wZ7Ymcehhq_6silent4core11socket_addr5testss_21test_clone_tcp_socket
FNDA:1,_RNvNtNtNtCs7wZ7Ymcehhq_6silent4core11socket_addr5testss_21test_clone_tls_socket
FNDA:1,_RNvNtNtNtCs7wZ7Ymcehhq_6silent4core11socket_addr5testss_21test_debug_tcp_socket
FNDA:1,_RNvNtNtNtCs7wZ7Ymcehhq_6silent4core11socket_addr5testss_21test_display_tcp_ipv4
FNDA:1,_RNvNtNtNtCs7wZ7Ymcehhq_6silent4core11socket_addr5testss_21test_display_tcp_ipv6
FNDA:1,_RNvNtNtNtCs7wZ7Ymcehhq_6silent4core11socket_addr5testss_21test_privileged_ports
FNDA:1,_RNvNtNtNtCs7wZ7Ymcehhq_6silent4core11socket_addr5testss_21test_tls_from_tls_tcp
FNDA:1,_RNvNtNtNtCs7wZ7Ymcehhq_6silent4core11socket_addr5testss_22test_clone_unix_socket
FNDA:1,_RNvNtNtNtCs7wZ7Ymcehhq_6silent4core11socket_addr5testss_22test_debug_unix_socket
FNDA:1,_RNvNtNtNtCs7wZ7Ymcehhq_6silent4core11socket_addr5testss_22test_from_str_tcp_addr
FNDA:1,_RNvNtNtNtCs7wZ7Ymcehhq_6silent4core11socket_addr5testss_24test_display_unix_socket
FNDA:1,_RNvNtNtNtCs7wZ7Ymcehhq_6silent4core11socket_addr5testss_25test_debug_tls_tcp_socket
FNDA:1,_RNvNtNtNtCs7wZ7Ymcehhq_6silent4core11socket_addr5testss_25test_from_str_unix_socket
FNDA:1,_RNvNtNtNtCs7wZ7Ymcehhq_6silent4core11socket_addr5testss_26test_from_str_invalid_addr
FNDA:1,_RNvNtNtNtCs7wZ7Ymcehhq_6silent4core11socket_addr5testss_26test_from_unix_socket_addr
FNDA:1,_RNvNtNtNtCs7wZ7Ymcehhq_6silent4core11socket_addr5testss_30test_from_std_socket_addr_ipv4
FNDA:1,_RNvNtNtNtCs7wZ7Ymcehhq_6silent4core11socket_addr5testss_30test_from_std_socket_addr_ipv6
FNDA:3,_RNvMNtNtCs7wZ7Ymcehhq_6silent4core11socket_addrNtB2_10SocketAddr3tls
FNDA:89,_RNvXs0_NtNtCs7wZ7Ymcehhq_6silent4core11socket_addrNtB5_10SocketAddrNtNtCsiMcf32LsBml_4core3fmt7Display3fmt
FNDA:106,_RNvXs1_NtNtCs7wZ7Ymcehhq_6silent4core11socket_addrNtB5_10SocketAddrINtNtCsiMcf32LsBml_4core7convert4FromNtNtNtB18_3net11socket_addr10SocketAddrE4from
FNDA:17,_RNvXs2_NtNtCs7wZ7Ymcehhq_6silent4core11socket_addrNtB5_10SocketAddrINtNtCsiMcf32LsBml_4core7convert4FromNtNtNtNtNtCsle0CjmPo1W9_3std2os4unix3net4addr10SocketAddrE4from
FNDA:4,_RNvXs3_NtNtCs7wZ7Ymcehhq_6silent4core11socket_addrNtB5_10SocketAddrNtNtNtCsiMcf32LsBml_4core3str6traits7FromStr8from_str
FNDA:8,_RNvXs_NtNtCs7wZ7Ymcehhq_6silent4core11socket_addrNtB4_10SocketAddrNtNtCsiMcf32LsBml_4core3fmt5Debug3fmt
FNF:31
FNH:31
DA:16,3
DA:17,3
DA:18,1
DA:19,2
DA:21,3
DA:25,8
DA:26,8
DA:27,4
DA:29,2
DA:31,2
DA:32,2
DA:33,2
DA:35,0
DA:39,8
DA:43,90
DA:44,90
DA:46,77
DA:48,3
DA:50,10
DA:51,10
DA:52,10
DA:54,0
DA:58,90
DA:62,107
DA:63,107
DA:64,107
DA:69,17
DA:70,17
DA:71,17
DA:78,4
DA:79,4
DA:80,1
DA:81,3
DA:82,3
DA:84,0
DA:85,0
DA:86,0
DA:87,0
DA:89,4
DA:110,1
DA:111,1
DA:112,1
DA:113,1
DA:114,1
DA:117,1
DA:118,1
DA:119,1
DA:120,1
DA:121,1
DA:125,1
DA:126,1
DA:127,1
DA:128,1
DA:129,1
DA:130,1
DA:135,1
DA:136,1
DA:137,1
DA:138,1
DA:139,1
DA:140,1
DA:141,1
DA:145,1
DA:146,1
DA:147,1
DA:148,1
DA:149,1
DA:150,1
DA:151,1
DA:155,1
DA:156,1
DA:157,1
DA:158,1
DA:159,1
DA:160,1
DA:161,1
DA:162,0
DA:163,1
DA:171,1
DA:172,1
DA:173,1
DA:174,1
DA:175,1
DA:178,1
DA:179,1
DA:180,1
DA:181,1
DA:182,1
DA:183,1
DA:187,1
DA:188,1
DA:189,1
DA:190,1
DA:191,1
DA:192,0
DA:193,1
DA:201,1
DA:202,1
DA:203,1
DA:204,1
DA:205,1
DA:206,1
DA:209,1
DA:210,1
DA:213,1
DA:214,1
DA:215,1
DA:216,1
DA:217,0
DA:218,0
DA:223,1
DA:226,1
DA:227,1
DA:230,1
DA:231,1
DA:232,1
DA:233,1
DA:234,0
DA:235,0
DA:240,1
DA:244,1
DA:245,1
DA:246,1
DA:247,1
DA:248,1
DA:249,1
DA:255,1
DA:256,1
DA:257,1
DA:258,1
DA:259,1
DA:260,1
DA:264,1
DA:265,1
DA:266,1
DA:267,1
DA:268,1
DA:269,1
DA:274,1
DA:275,1
DA:276,1
DA:277,1
DA:278,1
DA:280,1
DA:281,0
DA:282,1
DA:287,1
DA:288,1
DA:289,1
DA:290,1
DA:292,1
DA:293,1
DA:297,1
DA:298,1
DA:299,1
DA:300,1
DA:301,1
DA:303,1
DA:304,0
DA:305,1
DA:309,1
DA:310,1
DA:311,1
DA:312,1
DA:314,1
DA:315,1
DA:320,1
DA:321,1
DA:322,1
DA:323,1
DA:324,1
DA:325,1
DA:328,1
DA:329,1
DA:330,1
DA:331,1
DA:332,1
DA:333,1
DA:338,1
DA:340,4
DA:341,4
DA:342,4
DA:343,4
DA:344,4
DA:345,1
DA:348,1
DA:349,1
DA:350,1
DA:351,1
DA:352,1
DA:355,1
DA:356,1
DA:357,1
DA:358,1
DA:359,1
DA:362,1
DA:363,1
DA:364,1
DA:365,1
DA:366,1
BRF:0
BRH:0
LF:200
LH:186
end_of_record
SF:/Users/hubertshelley/Documents/silent/silent/silent/src/error/mod.rs
FN:98,_RINvMs2_NtCs9iG4RRqsTsR_6silent5errorNtB6_11SilentError18business_error_objpEB8_
FN:105,_RINvMs2_NtCs9iG4RRqsTsR_6silent5errorNtB6_11SilentError14business_errorNtNtCskxbBfrLNYPn_5alloc6string6StringEB8_
FN:105,_RINvMs2_NtCs9iG4RRqsTsR_6silent5errorNtB6_11SilentError14business_errorReEB8_
FN:137,_RNvXs3_NtCs9iG4RRqsTsR_6silent5errorNtNtNtB7_4core8response8ResponseINtNtCsiMcf32LsBml_4core7convert4FromNtB5_11SilentErrorE4from
FN:131,_RNvMs2_NtCs9iG4RRqsTsR_6silent5errorNtB5_11SilentError5trace
FN:111,_RNvMs2_NtCs9iG4RRqsTsR_6silent5errorNtB5_11SilentError6status
FN:123,_RNvMs2_NtCs9iG4RRqsTsR_6silent5errorNtB5_11SilentError7message
FN:73,_RNvXNtCs9iG4RRqsTsR_6silent5errorNtB2_11SilentErrorINtNtCsiMcf32LsBml_4core7convert4FromTNtNtCs9xQqEOIPLdx_4http6status10StatusCodeNtNtCskxbBfrLNYPn_5alloc6string6StringEE4from
FN:86,_RNvXs0_NtCs9iG4RRqsTsR_6silent5errorNtB5_11SilentErrorINtNtCsiMcf32LsBml_4core7convert4FromNtNtCskxbBfrLNYPn_5alloc6string6StringE4from
FN:92,_RNvXs1_NtCs9iG4RRqsTsR_6silent5errorNtB5_11SilentErrorINtNtCsiMcf32LsBml_4core7convert4FromINtNtCskxbBfrLNYPn_5alloc5boxed3BoxDNtNtBV_5error5ErrorNtNtBV_6marker4SyncNtB2m_4SendEL_EE4from
FN:79,_RNvXs_NtCs9iG4RRqsTsR_6silent5errorNtB4_11SilentErrorINtNtCsiMcf32LsBml_4core7convert4FromTtNtNtCskxbBfrLNYPn_5alloc6string6StringEE4from
FN:432,_RNvNtNtCs7wZ7Ymcehhq_6silent5error5testss_10test_trace
FN:341,_RNvNtNtCs7wZ7Ymcehhq_6silent5error5testss_13test_ws_error
FN:348,_RNvNtNtCs7wZ7Ymcehhq_6silent5error5testss_14test_not_found
FN:292,_RNvNtNtCs7wZ7Ymcehhq_6silent5error5testss_15test_body_empty
FN:299,_RNvNtNtCs7wZ7Ymcehhq_6silent5error5testss_15test_json_empty
FN:538,_RNvNtNtCs7wZ7Ymcehhq_6silent5error5testss_16test_error_chain
FN:529,_RNvNtNtCs7wZ7Ymcehhq_6silent5error5testss_16test_error_debug
FN:264,_RNvNtNtCs7wZ7Ymcehhq_6silent5error5testss_16test_from_string
FN:320,_RNvNtNtCs7wZ7Ymcehhq_6silent5error5testss_17test_params_empty
FN:168,_RNvNtNtCs7wZ7Ymcehhq_6silent5error5testss_17test_silent_error
FN:522,_RNvNtNtCs7wZ7Ymcehhq_6silent5error5testss_18test_error_display
FN:187,_RNvNtNtCs7wZ7Ymcehhq_6silent5error5testss_18test_from_io_error
FN:334,_RNvNtNtCs7wZ7Ymcehhq_6silent5error5testss_21test_config_not_found
FN:273,_RNvNtNtCs7wZ7Ymcehhq_6silent5error5testss_21test_from_boxed_error
FN:211,_RNvNtNtCs7wZ7Ymcehhq_6silent5error5testss_21test_from_hyper_error
FN:327,_RNvNtNtCs7wZ7Ymcehhq_6silent5error5testss_21test_params_not_found
FN:867,_RNvNtNtCs7wZ7Ymcehhq_6silent5error5testss_22test_backtrace_capture
FN:282,_RNvNtNtCs7wZ7Ymcehhq_6silent5error5testss_22test_from_anyhow_error
FN:222,_RNvNtNtCs7wZ7Ymcehhq_6silent5error5testss_22test_from_multer_error
FN:830,_RNvNtNtCs7wZ7Ymcehhq_6silent5error5testss_22test_from_string_empty
FN:372,_RNvNtNtCs7wZ7Ymcehhq_6silent5error5testss_23test_business_error_obj
FN:306,_RNvNtNtCs7wZ7Ymcehhq_6silent5error5testss_23test_content_type_error
FN:851,_RNvNtNtCs7wZ7Ymcehhq_6silent5error5testss_23test_error_combinations
FN:203,_RNvNtNtCs7wZ7Ymcehhq_6silent5error5testss_24test_from_serde_de_error
FN:816,_RNvNtNtCs7wZ7Ymcehhq_6silent5error5testss_24test_from_u16_edge_cases
FN:401,_RNvNtNtCs7wZ7Ymcehhq_6silent5error5testss_24test_status_for_io_error
FN:195,_RNvNtNtCs7wZ7Ymcehhq_6silent5error5testss_26test_from_serde_json_error
FN:248,_RNvNtNtCs7wZ7Ymcehhq_6silent5error5testss_26test_from_u16_string_tuple
FN:688,_RNvNtNtCs7wZ7Ymcehhq_6silent5error5testss_26test_response_body_content
FN:477,_RNvNtNtCs7wZ7Ymcehhq_6silent5error5testss_27test_response_from_ws_error
FN:710,_RNvNtNtCs7wZ7Ymcehhq_6silent5error5testss_27test_response_non_json_body
FN:365,_RNvNtNtCs7wZ7Ymcehhq_6silent5error5testss_28test_business_error_with_str
FN:470,_RNvNtNtCs7wZ7Ymcehhq_6silent5error5testss_28test_response_from_not_found
FN:449,_RNvNtNtCs7wZ7Ymcehhq_6silent5error5testss_29test_response_from_body_empty
FN:456,_RNvNtNtCs7wZ7Ymcehhq_6silent5error5testss_29test_response_from_json_empty
FN:721,_RNvNtNtCs7wZ7Ymcehhq_6silent5error5testss_30test_error_source_for_io_error
FN:395,_RNvNtNtCs7wZ7Ymcehhq_6silent5error5testss_30test_status_for_business_error
FN:357,_RNvNtNtCs7wZ7Ymcehhq_6silent5error5testss_31test_business_error_with_string
FN:313,_RNvNtNtCs7wZ7Ymcehhq_6silent5error5testss_31test_content_type_missing_error
FN:410,_RNvNtNtCs7wZ7Ymcehhq_6silent5error5testss_31test_message_for_business_error
FN:423,_RNvNtNtCs7wZ7Ymcehhq_6silent5error5testss_31test_message_for_serde_de_error
FN:546,_RNvNtNtCs7wZ7Ymcehhq_6silent5error5testss_31test_multiple_error_conversions
FN:500,_RNvNtNtCs7wZ7Ymcehhq_6silent5error5testss_31test_response_with_json_message
FN:566,_RNvNtNtCs7wZ7Ymcehhq_6silent5error5testss_31test_status_for_all_error_types
FN:616,_RNvNtNtCs7wZ7Ymcehhq_6silent5error5testss_32test_message_for_all_error_types
FN:416,_RNvNtNtCs7wZ7Ymcehhq_6silent5error5testss_33test_message_for_serde_json_error
FN:442,_RNvNtNtCs7wZ7Ymcehhq_6silent5error5testss_33test_response_from_business_error
FN:492,_RNvNtNtCs7wZ7Ymcehhq_6silent5error5testss_33test_response_from_serde_de_error
FN:698,_RNvNtNtCs7wZ7Ymcehhq_6silent5error5testss_33test_response_json_body_detection
FN:745,_RNvNtNtCs7wZ7Ymcehhq_6silent5error5testss_34test_error_source_for_anyhow_error
FN:754,_RNvNtNtCs7wZ7Ymcehhq_6silent5error5testss_34test_error_source_for_multer_error
FN:239,_RNvNtNtCs7wZ7Ymcehhq_6silent5error5testss_34test_from_status_code_string_tuple
FN:257,_RNvNtNtCs7wZ7Ymcehhq_6silent5error5testss_34test_from_u16_string_tuple_invalid
FN:840,_RNvNtNtCs7wZ7Ymcehhq_6silent5error5testss_35test_from_string_with_special_chars
FN:484,_RNvNtNtCs7wZ7Ymcehhq_6silent5error5testss_35test_response_from_serde_json_error
FN:511,_RNvNtNtCs7wZ7Ymcehhq_6silent5error5testss_35test_response_with_non_json_message
FN:737,_RNvNtNtCs7wZ7Ymcehhq_6silent5error5testss_36test_error_source_for_serde_de_error
FN:463,_RNvNtNtCs7wZ7Ymcehhq_6silent5error5testss_37test_response_from_content_type_error
FN:729,_RNvNtNtCs7wZ7Ymcehhq_6silent5error5testss_38test_error_source_for_serde_json_error
FN:658,_RNvNtNtCs7wZ7Ymcehhq_6silent5error5testss_39test_response_conversion_for_all_errors
FN:801,_RNvNtNtCs7wZ7Ymcehhq_6silent5error5testss_41test_business_error_obj_with_empty_struct
FN:767,_RNvNtNtCs7wZ7Ymcehhq_6silent5error5testss_43test_business_error_obj_with_complex_struct
FN:105,_RINvMs2_NtCs7wZ7Ymcehhq_6silent5errorNtB6_11SilentError14business_errorNtNtCskxbBfrLNYPn_5alloc6string6StringEB8_
FN:105,_RINvMs2_NtCs7wZ7Ymcehhq_6silent5errorNtB6_11SilentError14business_errorReEB8_
FN:98,_RINvMs2_NtCs7wZ7Ymcehhq_6silent5errorNtB6_11SilentError18business_error_objNtNtB6_5tests7ResBodyEB8_
FN:98,_RINvMs2_NtCs7wZ7Ymcehhq_6silent5errorNtB6_11SilentError18business_error_objNtNtCslJa0pizjxGe_10serde_json5value5ValueEB8_
FN:98,_RINvMs2_NtCs7wZ7Ymcehhq_6silent5errorNtB6_11SilentError18business_error_objNtNvNtB6_5testss_23test_business_error_obj11ErrorDetailEB8_
FN:98,_RINvMs2_NtCs7wZ7Ymcehhq_6silent5errorNtB6_11SilentError18business_error_objNtNvNtB6_5testss_41test_business_error_obj_with_empty_struct10EmptyErrorEB8_
FN:98,_RINvMs2_NtCs7wZ7Ymcehhq_6silent5errorNtB6_11SilentError18business_error_objNtNvNtB6_5testss_43test_business_error_obj_with_complex_struct12ComplexErrorEB8_
FN:168,_RNCNvNtNtCs7wZ7Ymcehhq_6silent5error5testss_17test_silent_error0B7_
FN:688,_RNCNvNtNtCs7wZ7Ymcehhq_6silent5error5testss_26test_response_body_content0B7_
FN:477,_RNCNvNtNtCs7wZ7Ymcehhq_6silent5error5testss_27test_response_from_ws_error0B7_
FN:710,_RNCNvNtNtCs7wZ7Ymcehhq_6silent5error5testss_27test_response_non_json_body0B7_
FN:470,_RNCNvNtNtCs7wZ7Ymcehhq_6silent5error5testss_28test_response_from_not_found0B7_
FN:449,_RNCNvNtNtCs7wZ7Ymcehhq_6silent5error5testss_29test_response_from_body_empty0B7_
FN:456,_RNCNvNtNtCs7wZ7Ymcehhq_6silent5error5testss_29test_response_from_json_empty0B7_
FN:500,_RNCNvNtNtCs7wZ7Ymcehhq_6silent5error5testss_31test_response_with_json_message0B7_
FN:442,_RNCNvNtNtCs7wZ7Ymcehhq_6silent5error5testss_33test_response_from_business_error0B7_
FN:492,_RNCNvNtNtCs7wZ7Ymcehhq_6silent5error5testss_33test_response_from_serde_de_error0B7_
FN:698,_RNCNvNtNtCs7wZ7Ymcehhq_6silent5error5testss_33test_response_json_body_detection0B7_
FN:484,_RNCNvNtNtCs7wZ7Ymcehhq_6silent5error5testss_35test_response_from_serde_json_error0B7_
FN:511,_RNCNvNtNtCs7wZ7Ymcehhq_6silent5error5testss_35test_response_with_non_json_message0B7_
FN:463,_RNCNvNtNtCs7wZ7Ymcehhq_6silent5error5testss_37test_response_from_content_type_error0B7_
FN:658,_RNCNvNtNtCs7wZ7Ymcehhq_6silent5error5testss_39test_response_conversion_for_all_errors0B7_
FN:131,_RNvMs2_NtCs7wZ7Ymcehhq_6silent5errorNtB5_11SilentError5trace
FN:111,_RNvMs2_NtCs7wZ7Ymcehhq_6silent5errorNtB5_11SilentError6status
FN:123,_RNvMs2_NtCs7wZ7Ymcehhq_6silent5errorNtB5_11SilentError7message
FN:73,_RNvXNtCs7wZ7Ymcehhq_6silent5errorNtB2_11SilentErrorINtNtCsiMcf32LsBml_4core7convert4FromTNtNtCs9xQqEOIPLdx_4http6status10StatusCodeNtNtCskxbBfrLNYPn_5alloc6string6StringEE4from
FN:86,_RNvXs0_NtCs7wZ7Ymcehhq_6silent5errorNtB5_11SilentErrorINtNtCsiMcf32LsBml_4core7convert4FromNtNtCskxbBfrLNYPn_5alloc6string6StringE4from
FN:92,_RNvXs1_NtCs7wZ7Ymcehhq_6silent5errorNtB5_11SilentErrorINtNtCsiMcf32LsBml_4core7convert4FromINtNtCskxbBfrLNYPn_5alloc5boxed3BoxDNtNtBV_5error5ErrorNtNtBV_6marker4SyncNtB2m_4SendEL_EE4from
FN:79,_RNvXs_NtCs7wZ7Ymcehhq_6silent5errorNtB4_11SilentErrorINtNtCsiMcf32LsBml_4core7convert4FromTtNtNtCskxbBfrLNYPn_5alloc6string6StringEE4from
FN:137,_RNvXs3_NtCs7wZ7Ymcehhq_6silent5errorNtNtNtB7_4core8response8ResponseINtNtCsiMcf32LsBml_4core7convert4FromNtB5_11SilentErrorE4from
FNDA:0,_RINvMs2_NtCs9iG4RRqsTsR_6silent5errorNtB6_11SilentError18business_error_objpEB8_
FNDA:0,_RINvMs2_NtCs9iG4RRqsTsR_6silent5errorNtB6_11SilentError14business_errorNtNtCskxbBfrLNYPn_5alloc6string6StringEB8_
FNDA:0,_RINvMs2_NtCs9iG4RRqsTsR_6silent5errorNtB6_11SilentError14business_errorReEB8_
FNDA:0,_RNvXs3_NtCs9iG4RRqsTsR_6silent5errorNtNtNtB7_4core8response8ResponseINtNtCsiMcf32LsBml_4core7convert4FromNtB5_11SilentErrorE4from
FNDA:0,_RNvMs2_NtCs9iG4RRqsTsR_6silent5errorNtB5_11SilentError5trace
FNDA:0,_RNvMs2_NtCs9iG4RRqsTsR_6silent5errorNtB5_11SilentError6status
FNDA:0,_RNvMs2_NtCs9iG4RRqsTsR_6silent5errorNtB5_11SilentError7message
FNDA:0,_RNvXNtCs9iG4RRqsTsR_6silent5errorNtB2_11SilentErrorINtNtCsiMcf32LsBml_4core7convert4FromTNtNtCs9xQqEOIPLdx_4http6status10StatusCodeNtNtCskxbBfrLNYPn_5alloc6string6StringEE4from
FNDA:0,_RNvXs0_NtCs9iG4RRqsTsR_6silent5errorNtB5_11SilentErrorINtNtCsiMcf32LsBml_4core7convert4FromNtNtCskxbBfrLNYPn_5alloc6string6StringE4from
FNDA:0,_RNvXs1_NtCs9iG4RRqsTsR_6silent5errorNtB5_11SilentErrorINtNtCsiMcf32LsBml_4core7convert4FromINtNtCskxbBfrLNYPn_5alloc5boxed3BoxDNtNtBV_5error5ErrorNtNtBV_6marker4SyncNtB2m_4SendEL_EE4from
FNDA:0,_RNvXs_NtCs9iG4RRqsTsR_6silent5errorNtB4_11SilentErrorINtNtCsiMcf32LsBml_4core7convert4FromTtNtNtCskxbBfrLNYPn_5alloc6string6StringEE4from
FNDA:1,_RNvNtNtCs7wZ7Ymcehhq_6silent5error5testss_10test_trace
FNDA:1,_RNvNtNtCs7wZ7Ymcehhq_6silent5error5testss_13test_ws_error
FNDA:1,_RNvNtNtCs7wZ7Ymcehhq_6silent5error5testss_14test_not_found
FNDA:1,_RNvNtNtCs7wZ7Ymcehhq_6silent5error5testss_15test_body_empty
FNDA:1,_RNvNtNtCs7wZ7Ymcehhq_6silent5error5testss_15test_json_empty
FNDA:1,_RNvNtNtCs7wZ7Ymcehhq_6silent5error5testss_16test_error_chain
FNDA:1,_RNvNtNtCs7wZ7Ymcehhq_6silent5error5testss_16test_error_debug
FNDA:1,_RNvNtNtCs7wZ7Ymcehhq_6silent5error5testss_16test_from_string
FNDA:1,_RNvNtNtCs7wZ7Ymcehhq_6silent5error5testss_17test_params_empty
FNDA:1,_RNvNtNtCs7wZ7Ymcehhq_6silent5error5testss_17test_silent_error
FNDA:1,_RNvNtNtCs7wZ7Ymcehhq_6silent5error5testss_18test_error_display
FNDA:1,_RNvNtNtCs7wZ7Ymcehhq_6silent5error5testss_18test_from_io_error
FNDA:1,_RNvNtNtCs7wZ7Ymcehhq_6silent5error5testss_21test_config_not_found
FNDA:1,_RNvNtNtCs7wZ7Ymcehhq_6silent5error5testss_21test_from_boxed_error
FNDA:1,_RNvNtNtCs7wZ7Ymcehhq_6silent5error5testss_21test_from_hyper_error
FNDA:1,_RNvNtNtCs7wZ7Ymcehhq_6silent5error5testss_21test_params_not_found
FNDA:1,_RNvNtNtCs7wZ7Ymcehhq_6silent5error5testss_22test_backtrace_capture
FNDA:1,_RNvNtNtCs7wZ7Ymcehhq_6silent5error5testss_22test_from_anyhow_error
FNDA:1,_RNvNtNtCs7wZ7Ymcehhq_6silent5error5testss_22test_from_multer_error
FNDA:1,_RNvNtNtCs7wZ7Ymcehhq_6silent5error5testss_22test_from_string_empty
FNDA:1,_RNvNtNtCs7wZ7Ymcehhq_6silent5error5testss_23test_business_error_obj
FNDA:1,_RNvNtNtCs7wZ7Ymcehhq_6silent5error5testss_23test_content_type_error
FNDA:1,_RNvNtNtCs7wZ7Ymcehhq_6silent5error5testss_23test_error_combinations
FNDA:1,_RNvNtNtCs7wZ7Ymcehhq_6silent5error5testss_24test_from_serde_de_error
FNDA:1,_RNvNtNtCs7wZ7Ymcehhq_6silent5error5testss_24test_from_u16_edge_cases
FNDA:1,_RNvNtNtCs7wZ7Ymcehhq_6silent5error5testss_24test_status_for_io_error
FNDA:1,_RNvNtNtCs7wZ7Ymcehhq_6silent5error5testss_26test_from_serde_json_error
FNDA:1,_RNvNtNtCs7wZ7Ymcehhq_6silent5error5testss_26test_from_u16_string_tuple
FNDA:1,_RNvNtNtCs7wZ7Ymcehhq_6silent5error5testss_26test_response_body_content
FNDA:1,_RNvNtNtCs7wZ7Ymcehhq_6silent5error5testss_27test_response_from_ws_error
FNDA:1,_RNvNtNtCs7wZ7Ymcehhq_6silent5error5testss_27test_response_non_json_body
FNDA:1,_RNvNtNtCs7wZ7Ymcehhq_6silent5error5testss_28test_business_error_with_str
FNDA:1,_RNvNtNtCs7wZ7Ymcehhq_6silent5error5testss_28test_response_from_not_found
FNDA:1,_RNvNtNtCs7wZ7Ymcehhq_6silent5error5testss_29test_response_from_body_empty
FNDA:1,_RNvNtNtCs7wZ7Ymcehhq_6silent5error5testss_29test_response_from_json_empty
FNDA:1,_RNvNtNtCs7wZ7Ymcehhq_6silent5error5testss_30test_error_source_for_io_error
FNDA:1,_RNvNtNtCs7wZ7Ymcehhq_6silent5error5testss_30test_status_for_business_error
FNDA:1,_RNvNtNtCs7wZ7Ymcehhq_6silent5error5testss_31test_business_error_with_string
FNDA:1,_RNvNtNtCs7wZ7Ymcehhq_6silent5error5testss_31test_content_type_missing_error
FNDA:1,_RNvNtNtCs7wZ7Ymcehhq_6silent5error5testss_31test_message_for_business_error
FNDA:1,_RNvNtNtCs7wZ7Ymcehhq_6silent5error5testss_31test_message_for_serde_de_error
FNDA:1,_RNvNtNtCs7wZ7Ymcehhq_6silent5error5testss_31test_multiple_error_conversions
FNDA:1,_RNvNtNtCs7wZ7Ymcehhq_6silent5error5testss_31test_response_with_json_message
FNDA:1,_RNvNtNtCs7wZ7Ymcehhq_6silent5error5testss_31test_status_for_all_error_types
FNDA:1,_RNvNtNtCs7wZ7Ymcehhq_6silent5error5testss_32test_message_for_all_error_types
FNDA:1,_RNvNtNtCs7wZ7Ymcehhq_6silent5error5testss_33test_message_for_serde_json_error
FNDA:1,_RNvNtNtCs7wZ7Ymcehhq_6silent5error5testss_33test_response_from_business_error
FNDA:1,_RNvNtNtCs7wZ7Ymcehhq_6silent5error5testss_33test_response_from_serde_de_error
FNDA:1,_RNvNtNtCs7wZ7Ymcehhq_6silent5error5testss_33test_response_json_body_detection
FNDA:1,_RNvNtNtCs7wZ7Ymcehhq_6silent5error5testss_34test_error_source_for_anyhow_error
FNDA:1,_RNvNtNtCs7wZ7Ymcehhq_6silent5error5testss_34test_error_source_for_multer_error
FNDA:1,_RNvNtNtCs7wZ7Ymcehhq_6silent5error5testss_34test_from_status_code_string_tuple
FNDA:1,_RNvNtNtCs7wZ7Ymcehhq_6silent5error5testss_34test_from_u16_string_tuple_invalid
FNDA:1,_RNvNtNtCs7wZ7Ymcehhq_6silent5error5testss_35test_from_string_with_special_chars
FNDA:1,_RNvNtNtCs7wZ7Ymcehhq_6silent5error5testss_35test_response_from_serde_json_error
FNDA:1,_RNvNtNtCs7wZ7Ymcehhq_6silent5error5testss_35test_response_with_non_json_message
FNDA:1,_RNvNtNtCs7wZ7Ymcehhq_6silent5error5testss_36test_error_source_for_serde_de_error
FNDA:1,_RNvNtNtCs7wZ7Ymcehhq_6silent5error5testss_37test_response_from_content_type_error
FNDA:1,_RNvNtNtCs7wZ7Ymcehhq_6silent5error5testss_38test_error_source_for_serde_json_error
FNDA:1,_RNvNtNtCs7wZ7Ymcehhq_6silent5error5testss_39test_response_conversion_for_all_errors
FNDA:1,_RNvNtNtCs7wZ7Ymcehhq_6silent5error5testss_41test_business_error_obj_with_empty_struct
FNDA:1,_RNvNtNtCs7wZ7Ymcehhq_6silent5error5testss_43test_business_error_obj_with_complex_struct
FNDA:24,_RINvMs2_NtCs7wZ7Ymcehhq_6silent5errorNtB6_11SilentError14business_errorNtNtCskxbBfrLNYPn_5alloc6string6StringEB8_
FNDA:14,_RINvMs2_NtCs7wZ7Ymcehhq_6silent5errorNtB6_11SilentError14business_errorReEB8_
FNDA:1,_RINvMs2_NtCs7wZ7Ymcehhq_6silent5errorNtB6_11SilentError18business_error_objNtNtB6_5tests7ResBodyEB8_
FNDA:2,_RINvMs2_NtCs7wZ7Ymcehhq_6silent5errorNtB6_11SilentError18business_error_objNtNtCslJa0pizjxGe_10serde_json5value5ValueEB8_
FNDA:1,_RINvMs2_NtCs7wZ7Ymcehhq_6silent5errorNtB6_11SilentError18business_error_objNtNvNtB6_5testss_23test_business_error_obj11ErrorDetailEB8_
FNDA:1,_RINvMs2_NtCs7wZ7Ymcehhq_6silent5errorNtB6_11SilentError18business_error_objNtNvNtB6_5testss_41test_business_error_obj_with_empty_struct10EmptyErrorEB8_
FNDA:1,_RINvMs2_NtCs7wZ7Ymcehhq_6silent5errorNtB6_11SilentError18business_error_objNtNvNtB6_5testss_43test_business_error_obj_with_complex_struct12ComplexErrorEB8_
FNDA:1,_RNCNvNtNtCs7wZ7Ymcehhq_6silent5error5testss_17test_silent_error0B7_
FNDA:1,_RNCNvNtNtCs7wZ7Ymcehhq_6silent5error5testss_26test_response_body_content0B7_
FNDA:1,_RNCNvNtNtCs7wZ7Ymcehhq_6silent5error5testss_27test_response_from_ws_error0B7_
FNDA:1,_RNCNvNtNtCs7wZ7Ymcehhq_6silent5error5testss_27test_response_non_json_body0B7_
FNDA:1,_RNCNvNtNtCs7wZ7Ymcehhq_6silent5error5testss_28test_response_from_not_found0B7_
FNDA:1,_RNCNvNtNtCs7wZ7Ymcehhq_6silent5error5testss_29test_response_from_body_empty0B7_
FNDA:1,_RNCNvNtNtCs7wZ7Ymcehhq_6silent5error5testss_29test_response_from_json_empty0B7_
FNDA:1,_RNCNvNtNtCs7wZ7Ymcehhq_6silent5error5testss_31test_response_with_json_message0B7_
FNDA:1,_RNCNvNtNtCs7wZ7Ymcehhq_6silent5error5testss_33test_response_from_business_error0B7_
FNDA:1,_RNCNvNtNtCs7wZ7Ymcehhq_6silent5error5testss_33test_response_from_serde_de_error0B7_
FNDA:1,_RNCNvNtNtCs7wZ7Ymcehhq_6silent5error5testss_33test_response_json_body_detection0B7_
FNDA:1,_RNCNvNtNtCs7wZ7Ymcehhq_6silent5error5testss_35test_response_from_serde_json_error0B7_
FNDA:1,_RNCNvNtNtCs7wZ7Ymcehhq_6silent5error5testss_35test_response_with_non_json_message0B7_
FNDA:1,_RNCNvNtNtCs7wZ7Ymcehhq_6silent5error5testss_37test_response_from_content_type_error0B7_
FNDA:1,_RNCNvNtNtCs7wZ7Ymcehhq_6silent5error5testss_39test_response_conversion_for_all_errors0B7_
FNDA:2,_RNvMs2_NtCs7wZ7Ymcehhq_6silent5errorNtB5_11SilentError5trace
FNDA:98,_RNvMs2_NtCs7wZ7Ymcehhq_6silent5errorNtB5_11SilentError6status
FNDA:114,_RNvMs2_NtCs7wZ7Ymcehhq_6silent5errorNtB5_11SilentError7message
FNDA:1,_RNvXNtCs7wZ7Ymcehhq_6silent5errorNtB2_11SilentErrorINtNtCsiMcf32LsBml_4core7convert4FromTNtNtCs9xQqEOIPLdx_4http6status10StatusCodeNtNtCskxbBfrLNYPn_5alloc6string6StringEE4from
FNDA:3,_RNvXs0_NtCs7wZ7Ymcehhq_6silent5errorNtB5_11SilentErrorINtNtCsiMcf32LsBml_4core7convert4FromNtNtCskxbBfrLNYPn_5alloc6string6StringE4from
FNDA:1,_RNvXs1_NtCs7wZ7Ymcehhq_6silent5errorNtB5_11SilentErrorINtNtCsiMcf32LsBml_4core7convert4FromINtNtCskxbBfrLNYPn_5alloc5boxed3BoxDNtNtBV_5error5ErrorNtNtBV_6marker4SyncNtB2m_4SendEL_EE4from
FNDA:9,_RNvXs_NtCs7wZ7Ymcehhq_6silent5errorNtB4_11SilentErrorINtNtCsiMcf32LsBml_4core7convert4FromTtNtNtCskxbBfrLNYPn_5alloc6string6StringEE4from
FNDA:34,_RNvXs3_NtCs7wZ7Ymcehhq_6silent5errorNtNtNtB7_4core8response8ResponseINtNtCsiMcf32LsBml_4core7convert4FromNtB5_11SilentErrorE4from
FNF:87
FNH:87
DA:73,1
DA:74,1
DA:75,1
DA:79,9
DA:80,9
DA:81,9
DA:82,9
DA:86,3
DA:87,3
DA:88,3
DA:92,1
DA:93,1
DA:94,1
DA:98,6
DA:99,6
DA:100,6
DA:102,6
DA:103,6
DA:104,6
DA:105,38
DA:106,38
DA:107,38
DA:108,38
DA:109,38
DA:110,38
DA:111,98
DA:112,98
DA:113,41
DA:114,3
DA:115,3
DA:116,6
DA:117,6
DA:118,6
DA:119,6
DA:120,27
DA:122,98
DA:123,114
DA:124,114
DA:125,37
DA:126,4
DA:127,4
DA:128,69
DA:130,114
DA:131,2
DA:132,2
DA:133,2
DA:137,34
DA:138,34
DA:139,34
DA:140,34
DA:141,3
DA:142,31
DA:143,34
DA:144,34
DA:145,34
DA:168,1
DA:169,1
DA:170,1
DA:171,1
DA:172,1
DA:173,1
DA:174,1
DA:175,1
DA:176,1
DA:177,1
DA:178,1
DA:179,1
DA:180,1
DA:181,1
DA:182,1
DA:187,1
DA:188,1
DA:189,1
DA:190,1
DA:191,1
DA:192,1
DA:195,1
DA:196,1
DA:197,1
DA:198,1
DA:199,1
DA:200,1
DA:203,1
DA:204,1
DA:205,1
DA:206,1
DA:207,1
DA:208,1
DA:211,1
DA:215,1
DA:218,1
DA:222,1
DA:229,1
DA:230,1
DA:231,1
DA:233,1
DA:234,1
DA:235,1
DA:236,1
DA:239,1
DA:240,1
DA:241,1
DA:242,1
DA:243,1
DA:244,1
DA:245,1
DA:248,1
DA:249,1
DA:250,1
DA:251,1
DA:252,1
DA:253,1
DA:254,1
DA:257,1
DA:258,1
DA:259,1
DA:260,1
DA:261,1
DA:264,1
DA:265,1
DA:266,1
DA:267,1
DA:268,1
DA:269,1
DA:270,1
DA:273,1
DA:274,1
DA:275,1
DA:276,1
DA:277,1
DA:278,1
DA:279,1
DA:282,1
DA:283,1
DA:284,1
DA:285,1
DA:286,1
DA:287,1
DA:292,1
DA:293,1
DA:294,1
DA:295,1
DA:296,1
DA:299,1
DA:300,1
DA:301,1
DA:302,1
DA:303,1
DA:306,1
DA:307,1
DA:308,1
DA:309,1
DA:310,1
DA:313,1
DA:314,1
DA:315,1
DA:316,1
DA:317,1
DA:320,1
DA:321,1
DA:322,1
DA:323,1
DA:324,1
DA:327,1
DA:328,1
DA:329,1
DA:330,1
DA:331,1
DA:334,1
DA:335,1
DA:336,1
DA:337,1
DA:338,1
DA:341,1
DA:342,1
DA:343,1
DA:344,1
DA:345,1
DA:348,1
DA:349,1
DA:350,1
DA:351,1
DA:352,1
DA:357,1
DA:358,1
DA:359,1
DA:360,1
DA:361,1
DA:362,1
DA:365,1
DA:366,1
DA:367,1
DA:368,1
DA:369,1
DA:372,1
DA:379,1
DA:380,1
DA:381,1
DA:382,1
DA:384,1
DA:385,1
DA:386,1
DA:388,1
DA:389,1
DA:390,1
DA:395,1
DA:396,1
DA:397,1
DA:398,1
DA:401,1
DA:402,1
DA:403,1
DA:404,1
DA:405,1
DA:410,1
DA:411,1
DA:412,1
DA:413,1
DA:416,1
DA:417,1
DA:418,1
DA:419,1
DA:420,1
DA:423,1
DA:424,1
DA:425,1
DA:426,1
DA:427,1
DA:432,1
DA:433,1
DA:434,1
DA:436,1
DA:437,1
DA:442,1
DA:443,1
DA:444,1
DA:445,1
DA:446,1
DA:449,1
DA:450,1
DA:451,1
DA:452,1
DA:453,1
DA:456,1
DA:457,1
DA:458,1
DA:459,1
DA:460,1
DA:463,1
DA:464,1
DA:465,1
DA:466,1
DA:467,1
DA:470,1
DA:471,1
DA:472,1
DA:473,1
DA:474,1
DA:477,1
DA:478,1
DA:479,1
DA:480,1
DA:481,1
DA:484,1
DA:485,1
DA:486,1
DA:487,1
DA:488,1
DA:489,1
DA:492,1
DA:493,1
DA:494,1
DA:495,1
DA:496,1
DA:497,1
DA:500,1
DA:501,1
DA:503,1
DA:505,1
DA:506,1
DA:508,1
DA:511,1
DA:512,1
DA:513,1
DA:514,1
DA:515,1
DA:517,1
DA:522,1
DA:523,1
DA:524,1
DA:525,1
DA:526,1
DA:529,1
DA:530,1
DA:531,1
DA:532,1
DA:533,1
DA:538,1
DA:539,1
DA:540,1
DA:542,1
DA:543,1
DA:546,1
DA:548,1
DA:549,1
DA:550,1
DA:551,1
DA:552,1
DA:553,1
DA:556,5
DA:557,5
DA:558,5
DA:559,5
DA:560,5
DA:561,1
DA:566,1
DA:568,1
DA:569,1
DA:570,1
DA:572,1
DA:573,1
DA:574,1
DA:576,1
DA:577,1
DA:578,1
DA:580,1
DA:581,1
DA:582,1
DA:583,1
DA:586,1
DA:587,1
DA:590,1
DA:591,1
DA:594,1
DA:595,1
DA:598,1
DA:599,1
DA:602,1
DA:603,1
DA:606,1
DA:608,1
DA:609,1
DA:610,1
DA:611,1
DA:616,1
DA:618,1
DA:619,1
DA:620,1
DA:622,1
DA:623,1
DA:624,1
DA:626,1
DA:627,1
DA:628,1
DA:630,1
DA:631,1
DA:632,1
DA:633,1
DA:636,1
DA:637,1
DA:640,1
DA:641,1
DA:642,1
DA:643,1
DA:644,1
DA:645,1
DA:646,1
DA:648,1
DA:650,1
DA:651,1
DA:652,1
DA:653,1
DA:658,1
DA:661,1
DA:662,1
DA:663,1
DA:664,1
DA:665,1
DA:666,1
DA:667,1
DA:668,1
DA:669,1
DA:670,1
DA:671,1
DA:672,1
DA:673,1
DA:674,1
DA:675,1
DA:676,1
DA:677,1
DA:678,1
DA:681,8
DA:682,8
DA:683,8
DA:684,1
DA:685,1
DA:688,1
DA:690,1
DA:691,1
DA:694,1
DA:695,1
DA:698,1
DA:700,1
DA:702,1
DA:704,1
DA:705,1
DA:707,1
DA:710,1
DA:712,1
DA:713,1
DA:714,1
DA:716,1
DA:721,1
DA:723,1
DA:724,1
DA:725,1
DA:726,1
DA:729,1
DA:731,1
DA:732,1
DA:733,1
DA:734,1
DA:737,1
DA:739,1
DA:740,1
DA:741,1
DA:742,1
DA:745,1
DA:747,1
DA:748,1
DA:749,1
DA:750,1
DA:754,1
DA:757,1
DA:758,1
DA:759,1
DA:760,1
DA:761,1
DA:762,1
DA:767,1
DA:782,1
DA:783,1
DA:784,1
DA:785,1
DA:786,1
DA:787,1
DA:788,1
DA:789,1
DA:791,1
DA:792,1
DA:793,1
DA:794,1
DA:795,1
DA:796,1
DA:797,1
DA:798,1
DA:801,1
DA:806,1
DA:807,1
DA:808,1
DA:810,1
DA:811,1
DA:816,1
DA:818,1
DA:819,6
DA:820,6
DA:821,6
DA:825,1
DA:826,1
DA:827,1
DA:830,1
DA:832,1
DA:833,1
DA:834,1
DA:835,1
DA:836,1
DA:837,1
DA:840,1
DA:842,1
DA:843,1
DA:844,1
DA:845,1
DA:846,1
DA:851,1
DA:853,1
DA:854,1
DA:855,1
DA:858,1
DA:859,1
DA:860,1
DA:861,1
DA:862,1
DA:867,1
DA:869,1
DA:870,1
DA:872,1
DA:873,1
BRF:0
BRH:0
LF:530
LH:529
end_of_record
SF:/Users/hubertshelley/Documents/silent/silent/silent/src/extractor/from_request.rs
FN:150,_RNCNCNvXININtNtCs9iG4RRqsTsR_6silent9extractor12from_request0pEINtNtBb_5types4PathpENtB9_11FromRequest12from_request00Bd_
FN:398,_RNvNtNtCs9iG4RRqsTsR_6silent9extractor12from_request20path_param_to_stringB5_
FN:134,_RNvXININtNtCs9iG4RRqsTsR_6silent9extractor12from_request0pEINtNtB7_5types4PathpENtB5_11FromRequest12from_requestB9_
FN:176,_RNvXININtNtCs9iG4RRqsTsR_6silent9extractor12from_requests0_0pEINtNtB7_5types4JsonpENtB5_11FromRequest12from_requestB9_
FN:189,_RNvXININtNtCs9iG4RRqsTsR_6silent9extractor12from_requests1_0pEINtNtB7_5types4FormpENtB5_11FromRequest12from_requestB9_
FN:202,_RNvXININtNtCs9iG4RRqsTsR_6silent9extractor12from_requests2_0pEINtNtB7_5types7ConfigspENtB5_11FromRequest12from_requestB9_
FN:215,_RNvXININtNtCs9iG4RRqsTsR_6silent9extractor12from_requests3_0pEINtNtB7_5types9ExtensionpENtB5_11FromRequest12from_requestB9_
FN:232,_RNvXININtNtCs9iG4RRqsTsR_6silent9extractor12from_requests4_0pEINtNtB7_5types11TypedHeaderpENtB5_11FromRequest12from_requestB9_
FN:280,_RNvXININtNtCs9iG4RRqsTsR_6silent9extractor12from_requests9_0pETpENtB5_11FromRequest12from_requestB9_
FN:163,_RNvXININtNtCs9iG4RRqsTsR_6silent9extractor12from_requests_0pEINtNtB7_5types5QuerypENtB5_11FromRequest12from_requestB9_
FN:297,_RNvXININtNtCs9iG4RRqsTsR_6silent9extractor12from_requestsa_0ppETppENtB5_11FromRequest12from_requestB9_
FN:319,_RNvXININtNtCs9iG4RRqsTsR_6silent9extractor12from_requestsb_0pppETpppENtB5_11FromRequest12from_requestB9_
FN:346,_RNvXININtNtCs9iG4RRqsTsR_6silent9extractor12from_requestsc_0ppppETppppENtB5_11FromRequest12from_requestB9_
FN:374,_RNvXININtNtCs9iG4RRqsTsR_6silent9extractor12from_requestsd_0pEINtNtCsiMcf32LsBml_4core6option6OptionpENtB5_11FromRequest12from_requestB9_
FN:389,_RNvXININtNtCs9iG4RRqsTsR_6silent9extractor12from_requestse_0pEINtNtCsiMcf32LsBml_4core6result6ResultpNtNtNtB9_4core8response8ResponseENtB5_11FromRequest12from_requestB9_
FN:244,_RNvXs5_NtNtCs9iG4RRqsTsR_6silent9extractor12from_requestNtNtB7_5types6MethodNtB5_11FromRequest12from_request
FN:252,_RNvXs6_NtNtCs9iG4RRqsTsR_6silent9extractor12from_requestNtNtB7_5types3UriNtB5_11FromRequest12from_request
FN:260,_RNvXs7_NtNtCs9iG4RRqsTsR_6silent9extractor12from_requestNtNtB7_5types7VersionNtB5_11FromRequest12from_request
FN:268,_RNvXs8_NtNtCs9iG4RRqsTsR_6silent9extractor12from_requestNtNtB7_5types10RemoteAddrNtB5_11FromRequest12from_request
FN:280,_RNvXININtNtCs7wZ7Ymcehhq_6silent9extractor12from_requests9_0pETpENtB5_11FromRequest12from_requestB9_
FN:150,_RNCNCNvXNtNtCs7wZ7Ymcehhq_6silent9extractor12from_requestINtNtB8_5types4PathNtNCNvNtB8_5testss_27test_path_single_and_struct01UENtB6_11FromRequest12from_request00Ba_
FN:150,_RNCNCNvXNtNtCs7wZ7Ymcehhq_6silent9extractor12from_requestINtNtB8_5types4PathNtNtCskxbBfrLNYPn_5alloc6string6StringENtB6_11FromRequest12from_request00Ba_
FN:150,_RNCNCNvXNtNtCs7wZ7Ymcehhq_6silent9extractor12from_requestINtNtB8_5types4PathlENtB6_11FromRequest12from_request00Ba_
FN:150,_RNCNCNvXNtNtCs7wZ7Ymcehhq_6silent9extractor12from_requestINtNtB8_5types4PathmENtB6_11FromRequest12from_request00Ba_
FN:150,_RNCNCNvXNtNtCs7wZ7Ymcehhq_6silent9extractor12from_requestINtNtB8_5types4PathxENtB6_11FromRequest12from_request00Ba_
FN:150,_RNCNCNvXNtNtCs7wZ7Ymcehhq_6silent9extractor12from_requestINtNtB8_5types4PathyENtB6_11FromRequest12from_request00Ba_
FN:398,_RNvNtNtCs7wZ7Ymcehhq_6silent9extractor12from_request20path_param_to_stringB5_
FN:374,_RNvXsd_NtNtCs7wZ7Ymcehhq_6silent9extractor12from_requestINtNtCsiMcf32LsBml_4core6option6OptionINtNtB7_5types4JsonNtNtCslJa0pizjxGe_10serde_json5value5ValueEENtB5_11FromRequest12from_requestB9_
FN:374,_RNvXsd_NtNtCs7wZ7Ymcehhq_6silent9extractor12from_requestINtNtCsiMcf32LsBml_4core6option6OptionINtNtB7_5types4PathlEENtB5_11FromRequest12from_requestB9_
FN:389,_RNvXse_NtNtCs7wZ7Ymcehhq_6silent9extractor12from_requestINtNtCsiMcf32LsBml_4core6result6ResultINtNtB7_5types4JsonNtNCNvNtB7_5testss_36test_tuple_triple_quad_and_result_ok01UENtNtNtB9_4core8response8ResponseENtB5_11FromRequest12from_requestB9_
FN:389,_RNvXse_NtNtCs7wZ7Ymcehhq_6silent9extractor12from_requestINtNtCsiMcf32LsBml_4core6result6ResultINtNtB7_5types4PathlENtNtNtB9_4core8response8ResponseENtB5_11FromRequest12from_requestB9_
FN:134,_RNvXNtNtCs7wZ7Ymcehhq_6silent9extractor12from_requestINtNtB4_5types4PathNtNCNvNtB4_5testss_27test_path_single_and_struct01UENtB2_11FromRequest12from_requestB6_
FN:134,_RNvXNtNtCs7wZ7Ymcehhq_6silent9extractor12from_requestINtNtB4_5types4PathNtNtCskxbBfrLNYPn_5alloc6string6StringENtB2_11FromRequest12from_requestB6_
FN:134,_RNvXNtNtCs7wZ7Ymcehhq_6silent9extractor12from_requestINtNtB4_5types4PathlENtB2_11FromRequest12from_requestB6_
FN:134,_RNvXNtNtCs7wZ7Ymcehhq_6silent9extractor12from_requestINtNtB4_5types4PathmENtB2_11FromRequest12from_requestB6_
FN:134,_RNvXNtNtCs7wZ7Ymcehhq_6silent9extractor12from_requestINtNtB4_5types4PathxENtB2_11FromRequest12from_requestB6_
FN:134,_RNvXNtNtCs7wZ7Ymcehhq_6silent9extractor12from_requestINtNtB4_5types4PathyENtB2_11FromRequest12from_requestB6_
FN:176,_RNvXs0_NtNtCs7wZ7Ymcehhq_6silent9extractor12from_requestINtNtB7_5types4JsonNtNCNvNtB7_5testss_27test_complex_struct_parsing011ComplexDataENtB5_11FromRequest12from_requestB9_
FN:176,_RNvXs0_NtNtCs7wZ7Ymcehhq_6silent9extractor12from_requestINtNtB7_5types4JsonNtNCNvNtB7_5testss_28test_query_and_json_and_form01UENtB5_11FromRequest12from_requestB9_
FN:176,_RNvXs0_NtNtCs7wZ7Ymcehhq_6silent9extractor12from_requestINtNtB7_5types4JsonNtNCNvNtB7_5testss_36test_tuple_triple_quad_and_result_ok01UENtB5_11FromRequest12from_requestB9_
FN:176,_RNvXs0_NtNtCs7wZ7Ymcehhq_6silent9extractor12from_requestINtNtB7_5types4JsonNtNtCslJa0pizjxGe_10serde_json5value5ValueENtB5_11FromRequest12from_requestB9_
FN:189,_RNvXs1_NtNtCs7wZ7Ymcehhq_6silent9extractor12from_requestINtNtB7_5types4FormNtNCNvNtB7_5testss_30test_json_and_form_error_cases08FormDataENtB5_11FromRequest12from_requestB9_
FN:189,_RNvXs1_NtNtCs7wZ7Ymcehhq_6silent9extractor12from_requestINtNtB7_5types4FormNtNCNvNtB7_5testss_56test_form_and_typed_header_and_method_uri_version_remote01UENtB5_11FromRequest12from_requestB9_
FN:202,_RNvXs2_NtNtCs7wZ7Ymcehhq_6silent9extractor12from_requestINtNtB7_5types7ConfigsNtNCNvNtB7_5testss_25test_deeply_nested_tuples011ConfigsDataENtB5_11FromRequest12from_requestB9_
FN:202,_RNvXs2_NtNtCs7wZ7Ymcehhq_6silent9extractor12from_requestINtNtB7_5types7ConfigsNtNCNvNtB7_5testss_42test_configs_and_extension_and_request_ext07CfgDataENtB5_11FromRequest12from_requestB9_
FN:215,_RNvXs3_NtNtCs7wZ7Ymcehhq_6silent9extractor12from_requestINtNtB7_5types9ExtensionNtNCNvNtB7_5testss_35test_extension_with_different_types010PermissionENtB5_11FromRequest12from_requestB9_
FN:215,_RNvXs3_NtNtCs7wZ7Ymcehhq_6silent9extractor12from_requestINtNtB7_5types9ExtensionNtNCNvNtB7_5testss_35test_extension_with_different_types011NonExistentENtB5_11FromRequest12from_requestB9_
FN:215,_RNvXs3_NtNtCs7wZ7Ymcehhq_6silent9extractor12from_requestINtNtB7_5types9ExtensionNtNCNvNtB7_5testss_35test_extension_with_different_types06UserIdENtB5_11FromRequest12from_requestB9_
FN:215,_RNvXs3_NtNtCs7wZ7Ymcehhq_6silent9extractor12from_requestINtNtB7_5types9ExtensionNtNCNvNtB7_5testss_42test_configs_and_extension_and_request_ext03ExtENtB5_11FromRequest12from_requestB9_
FN:232,_RNvXs4_NtNtCs7wZ7Ymcehhq_6silent9extractor12from_requestINtNtB7_5types11TypedHeaderNtNtNtCs4sSFlm5qmXA_7headers6common10user_agent9UserAgentENtB5_11FromRequest12from_requestB9_
FN:232,_RNvXs4_NtNtCs7wZ7Ymcehhq_6silent9extractor12from_requestINtNtB7_5types11TypedHeaderNtNtNtCs4sSFlm5qmXA_7headers6common12content_type11ContentTypeENtB5_11FromRequest12from_requestB9_
FN:163,_RNvXs_NtNtCs7wZ7Ymcehhq_6silent9extractor12from_requestINtNtB6_5types5QueryNtNCNvNtB6_5testss_25test_deeply_nested_tuples01QENtB4_11FromRequest12from_requestB8_
FN:163,_RNvXs_NtNtCs7wZ7Ymcehhq_6silent9extractor12from_requestINtNtB6_5types5QueryNtNCNvNtB6_5testss_27test_query_param_edge_cases013SpecialParamsENtB4_11FromRequest12from_requestB8_
FN:163,_RNvXs_NtNtCs7wZ7Ymcehhq_6silent9extractor12from_requestINtNtB6_5types5QueryNtNCNvNtB6_5testss_27test_query_param_edge_cases09EnumParamENtB4_11FromRequest12from_requestB8_
FN:163,_RNvXs_NtNtCs7wZ7Ymcehhq_6silent9extractor12from_requestINtNtB6_5types5QueryNtNCNvNtB6_5testss_32test_option_extractor_variations014OptionalParamsENtB4_11FromRequest12from_requestB8_
FN:163,_RNvXs_NtNtCs7wZ7Ymcehhq_6silent9extractor12from_requestINtNtB6_5types5QueryNtNCNvNtB6_5testss_36test_tuple_triple_quad_and_result_ok01QENtB4_11FromRequest12from_requestB8_
FN:163,_RNvXs_NtNtCs7wZ7Ymcehhq_6silent9extractor12from_requestINtNtB6_5types5QueryNtNtB6_5tests4PageENtB4_11FromRequest12from_requestB8_
FN:297,_RNvXsa_NtNtCs7wZ7Ymcehhq_6silent9extractor12from_requestTINtNtB7_5types11TypedHeaderNtNtNtCs4sSFlm5qmXA_7headers6common10user_agent9UserAgentEIBU_NtNtB1o_12content_type11ContentTypeEENtB5_11FromRequest12from_requestB9_
FN:297,_RNvXsa_NtNtCs7wZ7Ymcehhq_6silent9extractor12from_requestTINtNtB7_5types4PathlEINtBW_5QueryNtNtB7_5tests4PageEENtB5_11FromRequest12from_requestB9_
FN:319,_RNvXsb_NtNtCs7wZ7Ymcehhq_6silent9extractor12from_requestTINtNtB7_5types4PathlEINtBW_5QueryNtNCNvNtB7_5testss_36test_tuple_triple_quad_and_result_ok01QEINtBW_11TypedHeaderNtNtNtCs4sSFlm5qmXA_7headers6common10user_agent9UserAgentEENtB5_11FromRequest12from_requestB9_
FN:319,_RNvXsb_NtNtCs7wZ7Ymcehhq_6silent9extractor12from_requestTINtNtB7_5types4PathlEINtBW_5QueryNtNtB7_5tests4PageENtBW_6MethodENtB5_11FromRequest12from_requestB9_
FN:346,_RNvXsc_NtNtCs7wZ7Ymcehhq_6silent9extractor12from_requestTINtNtB7_5types4PathlEINtBW_5QueryNtNCNvNtB7_5testss_25test_deeply_nested_tuples01QEINtBW_11TypedHeaderNtNtNtCs4sSFlm5qmXA_7headers6common10user_agent9UserAgentEINtBW_7ConfigsNtB1s_11ConfigsDataEENtB5_11FromRequest12from_requestB9_
FN:346,_RNvXsc_NtNtCs7wZ7Ymcehhq_6silent9extractor12from_requestTINtNtB7_5types4PathlEINtBW_5QueryNtNCNvNtB7_5testss_36test_tuple_triple_quad_and_result_ok01QEINtBW_11TypedHeaderNtNtNtCs4sSFlm5qmXA_7headers6common10user_agent9UserAgentENtBW_6MethodENtB5_11FromRequest12from_requestB9_
FN:244,_RNvXs5_NtNtCs7wZ7Ymcehhq_6silent9extractor12from_requestNtNtB7_5types6MethodNtB5_11FromRequest12from_request
FN:252,_RNvXs6_NtNtCs7wZ7Ymcehhq_6silent9extractor12from_requestNtNtB7_5types3UriNtB5_11FromRequest12from_request
FN:260,_RNvXs7_NtNtCs7wZ7Ymcehhq_6silent9extractor12from_requestNtNtB7_5types7VersionNtB5_11FromRequest12from_request
FN:268,_RNvXs8_NtNtCs7wZ7Ymcehhq_6silent9extractor12from_requestNtNtB7_5types10RemoteAddrNtB5_11FromRequest12from_request
FNDA:0,_RNCNCNvXININtNtCs9iG4RRqsTsR_6silent9extractor12from_request0pEINtNtBb_5types4PathpENtB9_11FromRequest12from_request00Bd_
FNDA:0,_RNvNtNtCs9iG4RRqsTsR_6silent9extractor12from_request20path_param_to_stringB5_
FNDA:0,_RNvXININtNtCs9iG4RRqsTsR_6silent9extractor12from_request0pEINtNtB7_5types4PathpENtB5_11FromRequest12from_requestB9_
FNDA:0,_RNvXININtNtCs9iG4RRqsTsR_6silent9extractor12from_requests0_0pEINtNtB7_5types4JsonpENtB5_11FromRequest12from_requestB9_
FNDA:0,_RNvXININtNtCs9iG4RRqsTsR_6silent9extractor12from_requests1_0pEINtNtB7_5types4FormpENtB5_11FromRequest12from_requestB9_
FNDA:0,_RNvXININtNtCs9iG4RRqsTsR_6silent9extractor12from_requests2_0pEINtNtB7_5types7ConfigspENtB5_11FromRequest12from_requestB9_
FNDA:0,_RNvXININtNtCs9iG4RRqsTsR_6silent9extractor12from_requests3_0pEINtNtB7_5types9ExtensionpENtB5_11FromRequest12from_requestB9_
FNDA:0,_RNvXININtNtCs9iG4RRqsTsR_6silent9extractor12from_requests4_0pEINtNtB7_5types11TypedHeaderpENtB5_11FromRequest12from_requestB9_
FNDA:0,_RNvXININtNtCs9iG4RRqsTsR_6silent9extractor12from_requests9_0pETpENtB5_11FromRequest12from_requestB9_
FNDA:0,_RNvXININtNtCs9iG4RRqsTsR_6silent9extractor12from_requests_0pEINtNtB7_5types5QuerypENtB5_11FromRequest12from_requestB9_
FNDA:0,_RNvXININtNtCs9iG4RRqsTsR_6silent9extractor12from_requestsa_0ppETppENtB5_11FromRequest12from_requestB9_
FNDA:0,_RNvXININtNtCs9iG4RRqsTsR_6silent9extractor12from_requestsb_0pppETpppENtB5_11FromRequest12from_requestB9_
FNDA:0,_RNvXININtNtCs9iG4RRqsTsR_6silent9extractor12from_requestsc_0ppppETppppENtB5_11FromRequest12from_requestB9_
FNDA:0,_RNvXININtNtCs9iG4RRqsTsR_6silent9extractor12from_requestsd_0pEINtNtCsiMcf32LsBml_4core6option6OptionpENtB5_11FromRequest12from_requestB9_
FNDA:0,_RNvXININtNtCs9iG4RRqsTsR_6silent9extractor12from_requestse_0pEINtNtCsiMcf32LsBml_4core6result6ResultpNtNtNtB9_4core8response8ResponseENtB5_11FromRequest12from_requestB9_
FNDA:0,_RNvXs5_NtNtCs9iG4RRqsTsR_6silent9extractor12from_requestNtNtB7_5types6MethodNtB5_11FromRequest12from_request
FNDA:0,_RNvXs6_NtNtCs9iG4RRqsTsR_6silent9extractor12from_requestNtNtB7_5types3UriNtB5_11FromRequest12from_request
FNDA:0,_RNvXs7_NtNtCs9iG4RRqsTsR_6silent9extractor12from_requestNtNtB7_5types7VersionNtB5_11FromRequest12from_request
FNDA:0,_RNvXs8_NtNtCs9iG4RRqsTsR_6silent9extractor12from_requestNtNtB7_5types10RemoteAddrNtB5_11FromRequest12from_request
FNDA:0,_RNvXININtNtCs7wZ7Ymcehhq_6silent9extractor12from_requests9_0pETpENtB5_11FromRequest12from_requestB9_
FNDA:2,_RNCNCNvXNtNtCs7wZ7Ymcehhq_6silent9extractor12from_requestINtNtB8_5types4PathNtNCNvNtB8_5testss_27test_path_single_and_struct01UENtB6_11FromRequest12from_request00Ba_
FNDA:0,_RNCNCNvXNtNtCs7wZ7Ymcehhq_6silent9extractor12from_requestINtNtB8_5types4PathNtNtCskxbBfrLNYPn_5alloc6string6StringENtB6_11FromRequest12from_request00Ba_
FNDA:0,_RNCNCNvXNtNtCs7wZ7Ymcehhq_6silent9extractor12from_requestINtNtB8_5types4PathlENtB6_11FromRequest12from_request00Ba_
FNDA:0,_RNCNCNvXNtNtCs7wZ7Ymcehhq_6silent9extractor12from_requestINtNtB8_5types4PathmENtB6_11FromRequest12from_request00Ba_
FNDA:0,_RNCNCNvXNtNtCs7wZ7Ymcehhq_6silent9extractor12from_requestINtNtB8_5types4PathxENtB6_11FromRequest12from_request00Ba_
FNDA:0,_RNCNCNvXNtNtCs7wZ7Ymcehhq_6silent9extractor12from_requestINtNtB8_5types4PathyENtB6_11FromRequest12from_request00Ba_
FNDA:16,_RNvNtNtCs7wZ7Ymcehhq_6silent9extractor12from_request20path_param_to_stringB5_
FNDA:1,_RNvXsd_NtNtCs7wZ7Ymcehhq_6silent9extractor12from_requestINtNtCsiMcf32LsBml_4core6option6OptionINtNtB7_5types4JsonNtNtCslJa0pizjxGe_10serde_json5value5ValueEENtB5_11FromRequest12from_requestB9_
FNDA:2,_RNvXsd_NtNtCs7wZ7Ymcehhq_6silent9extractor12from_requestINtNtCsiMcf32LsBml_4core6option6OptionINtNtB7_5types4PathlEENtB5_11FromRequest12from_requestB9_
FNDA:1,_RNvXse_NtNtCs7wZ7Ymcehhq_6silent9extractor12from_requestINtNtCsiMcf32LsBml_4core6result6ResultINtNtB7_5types4JsonNtNCNvNtB7_5testss_36test_tuple_triple_quad_and_result_ok01UENtNtNtB9_4core8response8ResponseENtB5_11FromRequest12from_requestB9_
FNDA:3,_RNvXse_NtNtCs7wZ7Ymcehhq_6silent9extractor12from_requestINtNtCsiMcf32LsBml_4core6result6ResultINtNtB7_5types4PathlENtNtNtB9_4core8response8ResponseENtB5_11FromRequest12from_requestB9_
FNDA:1,_RNvXNtNtCs7wZ7Ymcehhq_6silent9extractor12from_requestINtNtB4_5types4PathNtNCNvNtB4_5testss_27test_path_single_and_struct01UENtB2_11FromRequest12from_requestB6_
FNDA:2,_RNvXNtNtCs7wZ7Ymcehhq_6silent9extractor12from_requestINtNtB4_5types4PathNtNtCskxbBfrLNYPn_5alloc6string6StringENtB2_11FromRequest12from_requestB6_
FNDA:12,_RNvXNtNtCs7wZ7Ymcehhq_6silent9extractor12from_requestINtNtB4_5types4PathlENtB2_11FromRequest12from_requestB6_
FNDA:1,_RNvXNtNtCs7wZ7Ymcehhq_6silent9extractor12from_requestINtNtB4_5types4PathmENtB2_11FromRequest12from_requestB6_
FNDA:2,_RNvXNtNtCs7wZ7Ymcehhq_6silent9extractor12from_requestINtNtB4_5types4PathxENtB2_11FromRequest12from_requestB6_
FNDA:1,_RNvXNtNtCs7wZ7Ymcehhq_6silent9extractor12from_requestINtNtB4_5types4PathyENtB2_11FromRequest12from_requestB6_
FNDA:1,_RNvXs0_NtNtCs7wZ7Ymcehhq_6silent9extractor12from_requestINtNtB7_5types4JsonNtNCNvNtB7_5testss_27test_complex_struct_parsing011ComplexDataENtB5_11FromRequest12from_requestB9_
FNDA:1,_RNvXs0_NtNtCs7wZ7Ymcehhq_6silent9extractor12from_requestINtNtB7_5types4JsonNtNCNvNtB7_5testss_28test_query_and_json_and_form01UENtB5_11FromRequest12from_requestB9_
FNDA:1,_RNvXs0_NtNtCs7wZ7Ymcehhq_6silent9extractor12from_requestINtNtB7_5types4JsonNtNCNvNtB7_5testss_36test_tuple_triple_quad_and_result_ok01UENtB5_11FromRequest12from_requestB9_
FNDA:3,_RNvXs0_NtNtCs7wZ7Ymcehhq_6silent9extractor12from_requestINtNtB7_5types4JsonNtNtCslJa0pizjxGe_10serde_json5value5ValueENtB5_11FromRequest12from_requestB9_
FNDA:1,_RNvXs1_NtNtCs7wZ7Ymcehhq_6silent9extractor12from_requestINtNtB7_5types4FormNtNCNvNtB7_5testss_30test_json_and_form_error_cases08FormDataENtB5_11FromRequest12from_requestB9_
FNDA:1,_RNvXs1_NtNtCs7wZ7Ymcehhq_6silent9extractor12from_requestINtNtB7_5types4FormNtNCNvNtB7_5testss_56test_form_and_typed_header_and_method_uri_version_remote01UENtB5_11FromRequest12from_requestB9_
FNDA:1,_RNvXs2_NtNtCs7wZ7Ymcehhq_6silent9extractor12from_requestINtNtB7_5types7ConfigsNtNCNvNtB7_5testss_25test_deeply_nested_tuples011ConfigsDataENtB5_11FromRequest12from_requestB9_
FNDA:1,_RNvXs2_NtNtCs7wZ7Ymcehhq_6silent9extractor12from_requestINtNtB7_5types7ConfigsNtNCNvNtB7_5testss_42test_configs_and_extension_and_request_ext07CfgDataENtB5_11FromRequest12from_requestB9_
FNDA:1,_RNvXs3_NtNtCs7wZ7Ymcehhq_6silent9extractor12from_requestINtNtB7_5types9ExtensionNtNCNvNtB7_5testss_35test_extension_with_different_types010PermissionENtB5_11FromRequest12from_requestB9_
FNDA:1,_RNvXs3_NtNtCs7wZ7Ymcehhq_6silent9extractor12from_requestINtNtB7_5types9ExtensionNtNCNvNtB7_5testss_35test_extension_with_different_types011NonExistentENtB5_11FromRequest12from_requestB9_
FNDA:1,_RNvXs3_NtNtCs7wZ7Ymcehhq_6silent9extractor12from_requestINtNtB7_5types9ExtensionNtNCNvNtB7_5testss_35test_extension_with_different_types06UserIdENtB5_11FromRequest12from_requestB9_
FNDA:1,_RNvXs3_NtNtCs7wZ7Ymcehhq_6silent9extractor12from_requestINtNtB7_5types9ExtensionNtNCNvNtB7_5testss_42test_configs_and_extension_and_request_ext03ExtENtB5_11FromRequest12from_requestB9_
FNDA:5,_RNvXs4_NtNtCs7wZ7Ymcehhq_6silent9extractor12from_requestINtNtB7_5types11TypedHeaderNtNtNtCs4sSFlm5qmXA_7headers6common10user_agent9UserAgentENtB5_11FromRequest12from_requestB9_
FNDA:1,_RNvXs4_NtNtCs7wZ7Ymcehhq_6silent9extractor12from_requestINtNtB7_5types11TypedHeaderNtNtNtCs4sSFlm5qmXA_7headers6common12content_type11ContentTypeENtB5_11FromRequest12from_requestB9_
FNDA:1,_RNvXs_NtNtCs7wZ7Ymcehhq_6silent9extractor12from_requestINtNtB6_5types5QueryNtNCNvNtB6_5testss_25test_deeply_nested_tuples01QENtB4_11FromRequest12from_requestB8_
FNDA:1,_RNvXs_NtNtCs7wZ7Ymcehhq_6silent9extractor12from_requestINtNtB6_5types5QueryNtNCNvNtB6_5testss_27test_query_param_edge_cases013SpecialParamsENtB4_11FromRequest12from_requestB8_
FNDA:1,_RNvXs_NtNtCs7wZ7Ymcehhq_6silent9extractor12from_requestINtNtB6_5types5QueryNtNCNvNtB6_5testss_27test_query_param_edge_cases09EnumParamENtB4_11FromRequest12from_requestB8_
FNDA:1,_RNvXs_NtNtCs7wZ7Ymcehhq_6silent9extractor12from_requestINtNtB6_5types5QueryNtNCNvNtB6_5testss_32test_option_extractor_variations014OptionalParamsENtB4_11FromRequest12from_requestB8_
FNDA:2,_RNvXs_NtNtCs7wZ7Ymcehhq_6silent9extractor12from_requestINtNtB6_5types5QueryNtNCNvNtB6_5testss_36test_tuple_triple_quad_and_result_ok01QENtB4_11FromRequest12from_requestB8_
FNDA:4,_RNvXs_NtNtCs7wZ7Ymcehhq_6silent9extractor12from_requestINtNtB6_5types5QueryNtNtB6_5tests4PageENtB4_11FromRequest12from_requestB8_
FNDA:1,_RNvXsa_NtNtCs7wZ7Ymcehhq_6silent9extractor12from_requestTINtNtB7_5types11TypedHeaderNtNtNtCs4sSFlm5qmXA_7headers6common10user_agent9UserAgentEIBU_NtNtB1o_12content_type11ContentTypeEENtB5_11FromRequest12from_requestB9_
FNDA:1,_RNvXsa_NtNtCs7wZ7Ymcehhq_6silent9extractor12from_requestTINtNtB7_5types4PathlEINtBW_5QueryNtNtB7_5tests4PageEENtB5_11FromRequest12from_requestB9_
FNDA:1,_RNvXsb_NtNtCs7wZ7Ymcehhq_6silent9extractor12from_requestTINtNtB7_5types4PathlEINtBW_5QueryNtNCNvNtB7_5testss_36test_tuple_triple_quad_and_result_ok01QEINtBW_11TypedHeaderNtNtNtCs4sSFlm5qmXA_7headers6common10user_agent9UserAgentEENtB5_11FromRequest12from_requestB9_
FNDA:1,_RNvXsb_NtNtCs7wZ7Ymcehhq_6silent9extractor12from_requestTINtNtB7_5types4PathlEINtBW_5QueryNtNtB7_5tests4PageENtBW_6MethodENtB5_11FromRequest12from_requestB9_
FNDA:1,_RNvXsc_NtNtCs7wZ7Ymcehhq_6silent9extractor12from_requestTINtNtB7_5types4PathlEINtBW_5QueryNtNCNvNtB7_5testss_25test_deeply_nested_tuples01QEINtBW_11TypedHeaderNtNtNtCs4sSFlm5qmXA_7headers6common10user_agent9UserAgentEINtBW_7ConfigsNtB1s_11ConfigsDataEENtB5_11FromRequest12from_requestB9_
FNDA:1,_RNvXsc_NtNtCs7wZ7Ymcehhq_6silent9extractor12from_requestTINtNtB7_5types4PathlEINtBW_5QueryNtNCNvNtB7_5testss_36test_tuple_triple_quad_and_result_ok01QEINtBW_11TypedHeaderNtNtNtCs4sSFlm5qmXA_7headers6common10user_agent9UserAgentENtBW_6MethodENtB5_11FromRequest12from_requestB9_
FNDA:3,_RNvXs5_NtNtCs7wZ7Ymcehhq_6silent9extractor12from_requestNtNtB7_5types6MethodNtB5_11FromRequest12from_request
FNDA:1,_RNvXs6_NtNtCs7wZ7Ymcehhq_6silent9extractor12from_requestNtNtB7_5types3UriNtB5_11FromRequest12from_request
FNDA:1,_RNvXs7_NtNtCs7wZ7Ymcehhq_6silent9extractor12from_requestNtNtB7_5types7VersionNtB5_11FromRequest12from_request
FNDA:1,_RNvXs8_NtNtCs7wZ7Ymcehhq_6silent9extractor12from_requestNtNtB7_5types10RemoteAddrNtB5_11FromRequest12from_request
FNF:19
FNH:18
DA:134,19
DA:150,2
DA:153,19
DA:163,10
DA:166,10
DA:176,6
DA:179,6
DA:189,2
DA:192,2
DA:202,2
DA:205,2
DA:215,4
DA:222,4
DA:232,6
DA:238,6
DA:244,3
DA:246,3
DA:252,1
DA:254,1
DA:260,1
DA:262,1
DA:268,1
DA:270,1
DA:280,0
DA:286,0
DA:297,2
DA:307,2
DA:319,2
DA:333,2
DA:346,2
DA:364,2
DA:374,3
DA:379,3
DA:389,4
DA:394,4
DA:398,16
DA:399,16
DA:400,3
DA:401,8
DA:402,0
DA:403,3
DA:404,1
DA:405,1
DA:406,0
DA:408,16
BRF:0
BRH:0
LF:45
LH:41
end_of_record
SF:/Users/hubertshelley/Documents/silent/silent/silent/src/extractor/mod.rs
FN:189,_RINvNtCs9iG4RRqsTsR_6silent9extractor22handler_from_extractorppppEB4_
FN:215,_RINvNtCs9iG4RRqsTsR_6silent9extractor35handler_from_extractor_with_requestppppEB4_
FN:200,_RNCINvNtCs9iG4RRqsTsR_6silent9extractor22handler_from_extractorppppE0B6_
FN:226,_RNCINvNtCs9iG4RRqsTsR_6silent9extractor35handler_from_extractor_with_requestppppE0B6_
FN:202,_RNCNCINvNtCs9iG4RRqsTsR_6silent9extractor22handler_from_extractorppppE00B8_
FN:228,_RNCNCINvNtCs9iG4RRqsTsR_6silent9extractor35handler_from_extractor_with_requestppppE00B8_
FN:189,_RINvNtCs7wZ7Ymcehhq_6silent9extractor22handler_from_extractorppppEB4_
FN:215,_RINvNtCs7wZ7Ymcehhq_6silent9extractor35handler_from_extractor_with_requestppppEB4_
FN:200,_RNCINvNtCs7wZ7Ymcehhq_6silent9extractor22handler_from_extractorppppE0B6_
FN:226,_RNCINvNtCs7wZ7Ymcehhq_6silent9extractor35handler_from_extractor_with_requestppppE0B6_
FN:202,_RNCNCINvNtCs7wZ7Ymcehhq_6silent9extractor22handler_from_extractorppppE00B8_
FN:228,_RNCNCINvNtCs7wZ7Ymcehhq_6silent9extractor35handler_from_extractor_with_requestppppE00B8_
FN:720,_RNCNvNtNtCs7wZ7Ymcehhq_6silent9extractor5testss_25test_deeply_nested_tuples0B7_
FN:471,_RNCNvNtNtCs7wZ7Ymcehhq_6silent9extractor5testss_26test_path_param_edge_cases0B7_
FN:601,_RNCNvNtNtCs7wZ7Ymcehhq_6silent9extractor5testss_27test_complex_struct_parsing0B7_
FN:695,_RNCNvNtNtCs7wZ7Ymcehhq_6silent9extractor5testss_27test_multiple_typed_headers0B7_
FN:256,_RNCNvNtNtCs7wZ7Ymcehhq_6silent9extractor5testss_27test_path_single_and_struct0B7_
FN:526,_RNCNvNtNtCs7wZ7Ymcehhq_6silent9extractor5testss_27test_query_param_edge_cases0B7_
FN:287,_RNCNvNtNtCs7wZ7Ymcehhq_6silent9extractor5testss_28test_query_and_json_and_form0B7_
FN:317,_RNCNvNtNtCs7wZ7Ymcehhq_6silent9extractor5testss_28test_tuple_and_option_result0B7_
FN:564,_RNCNvNtNtCs7wZ7Ymcehhq_6silent9extractor5testss_30test_json_and_form_error_cases0B7_
FN:648,_RNCNvNtNtCs7wZ7Ymcehhq_6silent9extractor5testss_32test_option_extractor_variations0B7_
FN:675,_RNCNvNtNtCs7wZ7Ymcehhq_6silent9extractor5testss_32test_result_extractor_variations0B7_
FN:766,_RNCNvNtNtCs7wZ7Ymcehhq_6silent9extractor5testss_34test_mixed_extractors_with_request0B7_
FN:790,_RNCNvNtNtCs7wZ7Ymcehhq_6silent9extractor5testss_35test_extension_with_different_types0B7_
FN:420,_RNCNvNtNtCs7wZ7Ymcehhq_6silent9extractor5testss_36test_tuple_triple_quad_and_result_ok0B7_
FN:395,_RNCNvNtNtCs7wZ7Ymcehhq_6silent9extractor5testss_42test_configs_and_extension_and_request_ext0B7_
FN:342,_RNCNvNtNtCs7wZ7Ymcehhq_6silent9extractor5testss_56test_form_and_typed_header_and_method_uri_version_remote0B7_
FN:720,_RNvNtNtCs7wZ7Ymcehhq_6silent9extractor5testss_25test_deeply_nested_tuples
FN:471,_RNvNtNtCs7wZ7Ymcehhq_6silent9extractor5testss_26test_path_param_edge_cases
FN:601,_RNvNtNtCs7wZ7Ymcehhq_6silent9extractor5testss_27test_complex_struct_parsing
FN:695,_RNvNtNtCs7wZ7Ymcehhq_6silent9extractor5testss_27test_multiple_typed_headers
FN:256,_RNvNtNtCs7wZ7Ymcehhq_6silent9extractor5testss_27test_path_single_and_struct
FN:526,_RNvNtNtCs7wZ7Ymcehhq_6silent9extractor5testss_27test_query_param_edge_cases
FN:287,_RNvNtNtCs7wZ7Ymcehhq_6silent9extractor5testss_28test_query_and_json_and_form
FN:317,_RNvNtNtCs7wZ7Ymcehhq_6silent9extractor5testss_28test_tuple_and_option_result
FN:564,_RNvNtNtCs7wZ7Ymcehhq_6silent9extractor5testss_30test_json_and_form_error_cases
FN:648,_RNvNtNtCs7wZ7Ymcehhq_6silent9extractor5testss_32test_option_extractor_variations
FN:675,_RNvNtNtCs7wZ7Ymcehhq_6silent9extractor5testss_32test_result_extractor_variations
FN:766,_RNvNtNtCs7wZ7Ymcehhq_6silent9extractor5testss_34test_mixed_extractors_with_request
FN:790,_RNvNtNtCs7wZ7Ymcehhq_6silent9extractor5testss_35test_extension_with_different_types
FN:420,_RNvNtNtCs7wZ7Ymcehhq_6silent9extractor5testss_36test_tuple_triple_quad_and_result_ok
FN:395,_RNvNtNtCs7wZ7Ymcehhq_6silent9extractor5testss_42test_configs_and_extension_and_request_ext
FN:342,_RNvNtNtCs7wZ7Ymcehhq_6silent9extractor5testss_56test_form_and_typed_header_and_method_uri_version_remote
FNDA:0,_RINvNtCs9iG4RRqsTsR_6silent9extractor22handler_from_extractorppppEB4_
FNDA:0,_RINvNtCs9iG4RRqsTsR_6silent9extractor35handler_from_extractor_with_requestppppEB4_
FNDA:0,_RNCINvNtCs9iG4RRqsTsR_6silent9extractor22handler_from_extractorppppE0B6_
FNDA:0,_RNCINvNtCs9iG4RRqsTsR_6silent9extractor35handler_from_extractor_with_requestppppE0B6_
FNDA:0,_RNCNCINvNtCs9iG4RRqsTsR_6silent9extractor22handler_from_extractorppppE00B8_
FNDA:0,_RNCNCINvNtCs9iG4RRqsTsR_6silent9extractor35handler_from_extractor_with_requestppppE00B8_
FNDA:0,_RINvNtCs7wZ7Ymcehhq_6silent9extractor22handler_from_extractorppppEB4_
FNDA:0,_RINvNtCs7wZ7Ymcehhq_6silent9extractor35handler_from_extractor_with_requestppppEB4_
FNDA:0,_RNCINvNtCs7wZ7Ymcehhq_6silent9extractor22handler_from_extractorppppE0B6_
FNDA:0,_RNCINvNtCs7wZ7Ymcehhq_6silent9extractor35handler_from_extractor_with_requestppppE0B6_
FNDA:0,_RNCNCINvNtCs7wZ7Ymcehhq_6silent9extractor22handler_from_extractorppppE00B8_
FNDA:0,_RNCNCINvNtCs7wZ7Ymcehhq_6silent9extractor35handler_from_extractor_with_requestppppE00B8_
FNDA:1,_RNCNvNtNtCs7wZ7Ymcehhq_6silent9extractor5testss_25test_deeply_nested_tuples0B7_
FNDA:1,_RNCNvNtNtCs7wZ7Ymcehhq_6silent9extractor5testss_26test_path_param_edge_cases0B7_
FNDA:1,_RNCNvNtNtCs7wZ7Ymcehhq_6silent9extractor5testss_27test_complex_struct_parsing0B7_
FNDA:1,_RNCNvNtNtCs7wZ7Ymcehhq_6silent9extractor5testss_27test_multiple_typed_headers0B7_
FNDA:1,_RNCNvNtNtCs7wZ7Ymcehhq_6silent9extractor5testss_27test_path_single_and_struct0B7_
FNDA:1,_RNCNvNtNtCs7wZ7Ymcehhq_6silent9extractor5testss_27test_query_param_edge_cases0B7_
FNDA:1,_RNCNvNtNtCs7wZ7Ymcehhq_6silent9extractor5testss_28test_query_and_json_and_form0B7_
FNDA:1,_RNCNvNtNtCs7wZ7Ymcehhq_6silent9extractor5testss_28test_tuple_and_option_result0B7_
FNDA:1,_RNCNvNtNtCs7wZ7Ymcehhq_6silent9extractor5testss_30test_json_and_form_error_cases0B7_
FNDA:1,_RNCNvNtNtCs7wZ7Ymcehhq_6silent9extractor5testss_32test_option_extractor_variations0B7_
FNDA:1,_RNCNvNtNtCs7wZ7Ymcehhq_6silent9extractor5testss_32test_result_extractor_variations0B7_
FNDA:1,_RNCNvNtNtCs7wZ7Ymcehhq_6silent9extractor5testss_34test_mixed_extractors_with_request0B7_
FNDA:1,_RNCNvNtNtCs7wZ7Ymcehhq_6silent9extractor5testss_35test_extension_with_different_types0B7_
FNDA:1,_RNCNvNtNtCs7wZ7Ymcehhq_6silent9extractor5testss_36test_tuple_triple_quad_and_result_ok0B7_
FNDA:1,_RNCNvNtNtCs7wZ7Ymcehhq_6silent9extractor5testss_42test_configs_and_extension_and_request_ext0B7_
FNDA:1,_RNCNvNtNtCs7wZ7Ymcehhq_6silent9extractor5testss_56test_form_and_typed_header_and_method_uri_version_remote0B7_
FNDA:1,_RNvNtNtCs7wZ7Ymcehhq_6silent9extractor5testss_25test_deeply_nested_tuples
FNDA:1,_RNvNtNtCs7wZ7Ymcehhq_6silent9extractor5testss_26test_path_param_edge_cases
FNDA:1,_RNvNtNtCs7wZ7Ymcehhq_6silent9extractor5testss_27test_complex_struct_parsing
FNDA:1,_RNvNtNtCs7wZ7Ymcehhq_6silent9extractor5testss_27test_multiple_typed_headers
FNDA:1,_RNvNtNtCs7wZ7Ymcehhq_6silent9extractor5testss_27test_path_single_and_struct
FNDA:1,_RNvNtNtCs7wZ7Ymcehhq_6silent9extractor5testss_27test_query_param_edge_cases
FNDA:1,_RNvNtNtCs7wZ7Ymcehhq_6silent9extractor5testss_28test_query_and_json_and_form
FNDA:1,_RNvNtNtCs7wZ7Ymcehhq_6silent9extractor5testss_28test_tuple_and_option_result
FNDA:1,_RNvNtNtCs7wZ7Ymcehhq_6silent9extractor5testss_30test_json_and_form_error_cases
FNDA:1,_RNvNtNtCs7wZ7Ymcehhq_6silent9extractor5testss_32test_option_extractor_variations
FNDA:1,_RNvNtNtCs7wZ7Ymcehhq_6silent9extractor5testss_32test_result_extractor_variations
FNDA:1,_RNvNtNtCs7wZ7Ymcehhq_6silent9extractor5testss_34test_mixed_extractors_with_request
FNDA:1,_RNvNtNtCs7wZ7Ymcehhq_6silent9extractor5testss_35test_extension_with_different_types
FNDA:1,_RNvNtNtCs7wZ7Ymcehhq_6silent9extractor5testss_36test_tuple_triple_quad_and_result_ok
FNDA:1,_RNvNtNtCs7wZ7Ymcehhq_6silent9extractor5testss_42test_configs_and_extension_and_request_ext
FNDA:1,_RNvNtNtCs7wZ7Ymcehhq_6silent9extractor5testss_56test_form_and_typed_header_and_method_uri_version_remote
FNF:38
FNH:32
DA:189,0
DA:190,0
DA:191,0
DA:192,0
DA:193,0
DA:194,0
DA:195,0
DA:196,0
DA:197,0
DA:199,0
DA:200,0
DA:201,0
DA:202,0
DA:203,0
DA:204,0
DA:205,0
DA:206,0
DA:208,0
DA:210,0
DA:211,0
DA:212,0
DA:215,0
DA:216,0
DA:217,0
DA:218,0
DA:219,0
DA:220,0
DA:221,0
DA:222,0
DA:223,0
DA:225,0
DA:226,0
DA:227,0
DA:228,0
DA:229,0
DA:230,0
DA:231,0
DA:232,0
DA:234,0
DA:236,0
DA:237,0
DA:238,0
DA:256,1
DA:258,1
DA:259,1
DA:260,1
DA:261,1
DA:263,1
DA:264,1
DA:267,1
DA:268,1
DA:269,1
DA:270,1
DA:272,1
DA:273,1
DA:274,1
DA:281,1
DA:282,1
DA:283,1
DA:284,1
DA:287,1
DA:289,1
DA:290,1
DA:291,1
DA:292,1
DA:293,1
DA:300,1
DA:301,1
DA:303,1
DA:305,1
DA:306,1
DA:307,1
DA:308,1
DA:309,1
DA:310,1
DA:311,1
DA:312,1
DA:313,1
DA:314,1
DA:317,1
DA:319,1
DA:320,1
DA:321,1
DA:322,1
DA:323,1
DA:324,1
DA:325,1
DA:328,1
DA:329,1
DA:330,1
DA:333,1
DA:334,1
DA:335,1
DA:336,1
DA:337,1
DA:338,1
DA:339,1
DA:342,1
DA:349,1
DA:350,1
DA:352,1
DA:354,1
DA:355,1
DA:356,1
DA:357,1
DA:358,1
DA:359,1
DA:362,1
DA:363,1
DA:364,1
DA:365,1
DA:366,1
DA:367,1
DA:370,1
DA:371,1
DA:372,1
DA:373,1
DA:374,1
DA:375,1
DA:376,1
DA:377,1
DA:378,1
DA:379,1
DA:384,1
DA:385,1
DA:386,1
DA:387,1
DA:388,1
DA:390,1
DA:391,1
DA:392,1
DA:395,1
DA:399,1
DA:400,1
DA:401,1
DA:402,1
DA:407,1
DA:408,1
DA:409,1
DA:410,1
DA:413,1
DA:414,1
DA:415,1
DA:416,1
DA:417,1
DA:420,1
DA:426,1
DA:427,1
DA:428,1
DA:429,1
DA:430,1
DA:431,1
DA:432,1
DA:433,1
DA:434,1
DA:435,1
DA:438,1
DA:439,1
DA:440,1
DA:441,1
DA:442,1
DA:443,1
DA:444,1
DA:445,1
DA:446,1
DA:447,1
DA:448,1
DA:455,1
DA:456,1
DA:458,1
DA:460,1
DA:461,1
DA:462,1
DA:463,1
DA:464,1
DA:465,1
DA:466,1
DA:467,1
DA:468,1
DA:471,1
DA:473,1
DA:474,1
DA:475,1
DA:476,1
DA:478,1
DA:479,1
DA:481,1
DA:482,1
DA:483,1
DA:484,1
DA:486,1
DA:487,1
DA:489,1
DA:490,1
DA:491,1
DA:492,1
DA:494,1
DA:495,1
DA:497,1
DA:498,1
DA:499,1
DA:500,1
DA:502,1
DA:503,1
DA:506,1
DA:507,1
DA:508,1
DA:509,1
DA:511,1
DA:512,1
DA:514,1
DA:515,1
DA:516,1
DA:517,1
DA:518,1
DA:519,1
DA:521,1
DA:522,1
DA:523,1
DA:526,1
DA:528,1
DA:529,1
DA:530,1
DA:531,1
DA:532,1
DA:535,1
DA:536,1
DA:542,1
DA:543,1
DA:544,1
DA:547,1
DA:559,1
DA:560,1
DA:561,1
DA:564,1
DA:566,1
DA:567,1
DA:569,1
DA:571,1
DA:572,1
DA:573,1
DA:574,1
DA:575,1
DA:578,1
DA:579,1
DA:580,1
DA:581,1
DA:584,1
DA:585,1
DA:587,1
DA:589,1
DA:590,1
DA:591,1
DA:596,1
DA:597,1
DA:598,1
DA:601,1
DA:603,1
DA:604,1
DA:606,1
DA:608,1
DA:609,1
DA:610,1
DA:611,1
DA:613,1
DA:614,1
DA:615,1
DA:618,1
DA:619,1
DA:620,1
DA:640,1
DA:641,1
DA:642,1
DA:643,1
DA:644,1
DA:645,1
DA:648,1
DA:650,1
DA:651,1
DA:657,1
DA:658,1
DA:659,1
DA:662,1
DA:663,1
DA:664,1
DA:667,1
DA:668,1
DA:669,1
DA:670,1
DA:671,1
DA:672,1
DA:675,1
DA:677,1
DA:678,1
DA:679,1
DA:680,1
DA:681,1
DA:682,1
DA:683,1
DA:686,1
DA:687,1
DA:688,1
DA:689,1
DA:690,1
DA:691,1
DA:692,1
DA:695,1
DA:697,1
DA:698,1
DA:699,1
DA:700,1
DA:702,1
DA:705,1
DA:706,1
DA:707,1
DA:708,1
DA:709,1
DA:710,1
DA:711,1
DA:712,1
DA:713,1
DA:715,1
DA:716,1
DA:717,1
DA:720,1
DA:722,1
DA:723,1
DA:724,1
DA:725,1
DA:726,1
DA:727,1
DA:728,1
DA:729,1
DA:749,1
DA:750,1
DA:751,1
DA:752,1
DA:753,1
DA:754,1
DA:755,1
DA:757,1
DA:758,1
DA:759,1
DA:760,1
DA:761,1
DA:762,1
DA:763,1
DA:766,1
DA:768,1
DA:769,1
DA:770,1
DA:771,1
DA:773,1
DA:774,1
DA:775,1
DA:778,1
DA:779,1
DA:780,1
DA:781,1
DA:783,1
DA:784,1
DA:785,1
DA:786,1
DA:787,1
DA:790,1
DA:797,1
DA:798,1
DA:799,1
DA:801,1
DA:802,1
DA:803,1
DA:804,1
DA:806,1
DA:807,1
DA:812,1
DA:813,1
DA:814,1
BRF:0
BRH:0
LF:411
LH:367
end_of_record
SF:/Users/hubertshelley/Documents/silent/silent/silent/src/extractor/types.rs
FN:47,_RINvXNtNtCs9iG4RRqsTsR_6silent9extractor5typesNtNtNtB7_4core7request7RequestNtB3_10RequestExt7extractpEB7_
FN:47,_RINvXNtNtCs7wZ7Ymcehhq_6silent9extractor5typesNtNtNtB7_4core7request7RequestNtB3_10RequestExt7extractINtB3_4PathlEEB7_
FNDA:0,_RINvXNtNtCs9iG4RRqsTsR_6silent9extractor5typesNtNtNtB7_4core7request7RequestNtB3_10RequestExt7extractpEB7_
FNDA:1,_RINvXNtNtCs7wZ7Ymcehhq_6silent9extractor5typesNtNtNtB7_4core7request7RequestNtB3_10RequestExt7extractINtB3_4PathlEEB7_
FNF:1
FNH:1
DA:47,1
DA:49,1
BRF:0
BRH:0
LF:2
LH:2
end_of_record
SF:/Users/hubertshelley/Documents/silent/silent/silent/src/grpc/handler.rs
FN:77,_RNCNCNvXININtNtCs9iG4RRqsTsR_6silent4grpc7handlers2_0pEINtB9_11GrpcHandlerpENtNtNtBd_7handler13handler_trait7Handler4call00Bd_
FN:105,_RNCNCNvXININtNtCs9iG4RRqsTsR_6silent4grpc7handlers2_0pEINtB9_11GrpcHandlerpENtNtNtBd_7handler13handler_trait7Handler4call0s_0Bd_
FN:40,_RNvMs_NtNtCs9iG4RRqsTsR_6silent4grpc7handlerINtB4_11GrpcHandlerpE3newB8_
FN:45,_RNvMs_NtNtCs9iG4RRqsTsR_6silent4grpc7handlerINtB4_11GrpcHandlerpE4pathB8_
FN:58,_RNvXININtNtCs9iG4RRqsTsR_6silent4grpc7handlers0_0pEINtB5_11GrpcHandlerpEINtNtCsiMcf32LsBml_4core7convert4FrompE4fromB9_
FN:74,_RNvXININtNtCs9iG4RRqsTsR_6silent4grpc7handlers2_0pEINtB5_11GrpcHandlerpENtNtNtB9_7handler13handler_trait7Handler4callB9_
FN:21,_RNvXNtNtCs9iG4RRqsTsR_6silent4grpc7handlerNtNtNtB6_4core7request7RequestNtB2_18GrpcRequestAdapter17into_grpc_request
FN:359,_RNCNvXs3_NtNtNtCs7wZ7Ymcehhq_6silent4grpc7handler5testsNtB7_15MockUserServiceINtCsiBw7QhC7r6y_13tower_service7ServiceINtNtCs9xQqEOIPLdx_4http7request7RequestNtNtCs3EjIX9pnHVr_5tonic4body4BodyEE4call0Bd_
FN:396,_RNCNvXs6_NtNtNtCs7wZ7Ymcehhq_6silent4grpc7handler5testsNtB7_16MockEmptyServiceINtCsiBw7QhC7r6y_13tower_service7ServiceINtNtCs9xQqEOIPLdx_4http7request7RequestNtNtCs3EjIX9pnHVr_5tonic4body4BodyEE4call0Bd_
FN:433,_RNCNvXs9_NtNtNtCs7wZ7Ymcehhq_6silent4grpc7handler5testsNtB7_19MockLongNameServiceINtCsiBw7QhC7r6y_13tower_service7ServiceINtNtCs9xQqEOIPLdx_4http7request7RequestNtNtCs3EjIX9pnHVr_5tonic4body4BodyEE4call0Bd_
FN:314,_RNvXs0_NtNtNtCs7wZ7Ymcehhq_6silent4grpc7handler5testsNtB5_18MockGreeterServiceINtCsiBw7QhC7r6y_13tower_service7ServiceINtNtCs9xQqEOIPLdx_4http7request7RequestNtNtCs3EjIX9pnHVr_5tonic4body4BodyEE10poll_ready
FN:351,_RNvXs3_NtNtNtCs7wZ7Ymcehhq_6silent4grpc7handler5testsNtB5_15MockUserServiceINtCsiBw7QhC7r6y_13tower_service7ServiceINtNtCs9xQqEOIPLdx_4http7request7RequestNtNtCs3EjIX9pnHVr_5tonic4body4BodyEE10poll_ready
FN:358,_RNvXs3_NtNtNtCs7wZ7Ymcehhq_6silent4grpc7handler5testsNtB5_15MockUserServiceINtCsiBw7QhC7r6y_13tower_service7ServiceINtNtCs9xQqEOIPLdx_4http7request7RequestNtNtCs3EjIX9pnHVr_5tonic4body4BodyEE4call
FN:388,_RNvXs6_NtNtNtCs7wZ7Ymcehhq_6silent4grpc7handler5testsNtB5_16MockEmptyServiceINtCsiBw7QhC7r6y_13tower_service7ServiceINtNtCs9xQqEOIPLdx_4http7request7RequestNtNtCs3EjIX9pnHVr_5tonic4body4BodyEE10poll_ready
FN:395,_RNvXs6_NtNtNtCs7wZ7Ymcehhq_6silent4grpc7handler5testsNtB5_16MockEmptyServiceINtCsiBw7QhC7r6y_13tower_service7ServiceINtNtCs9xQqEOIPLdx_4http7request7RequestNtNtCs3EjIX9pnHVr_5tonic4body4BodyEE4call
FN:425,_RNvXs9_NtNtNtCs7wZ7Ymcehhq_6silent4grpc7handler5testsNtB5_19MockLongNameServiceINtCsiBw7QhC7r6y_13tower_service7ServiceINtNtCs9xQqEOIPLdx_4http7request7RequestNtNtCs3EjIX9pnHVr_5tonic4body4BodyEE10poll_ready
FN:432,_RNvXs9_NtNtNtCs7wZ7Ymcehhq_6silent4grpc7handler5testsNtB5_19MockLongNameServiceINtCsiBw7QhC7r6y_13tower_service7ServiceINtNtCs9xQqEOIPLdx_4http7request7RequestNtNtCs3EjIX9pnHVr_5tonic4body4BodyEE4call
FN:635,_RNvXse_NtNtNtCs7wZ7Ymcehhq_6silent4grpc7handler5testsNtB5_16MockErrorServiceINtCsiBw7QhC7r6y_13tower_service7ServiceINtNtCs9xQqEOIPLdx_4http7request7RequestNtNtCs3EjIX9pnHVr_5tonic4body4BodyEE10poll_ready
FN:77,_RNCNCNvXs2_NtNtCs7wZ7Ymcehhq_6silent4grpc7handlerINtB9_11GrpcHandlerNtNtB9_5tests16MockErrorServiceENtNtNtBd_7handler13handler_trait7Handler4call00Bd_
FN:105,_RNCNCNvXs2_NtNtCs7wZ7Ymcehhq_6silent4grpc7handlerINtB9_11GrpcHandlerNtNtB9_5tests16MockErrorServiceENtNtNtBd_7handler13handler_trait7Handler4call0s_0Bd_
FN:77,_RNCNCNvXs2_NtNtCs7wZ7Ymcehhq_6silent4grpc7handlerINtB9_11GrpcHandlerNtNtB9_5tests18MockGreeterServiceENtNtNtBd_7handler13handler_trait7Handler4call00Bd_
FN:105,_RNCNCNvXs2_NtNtCs7wZ7Ymcehhq_6silent4grpc7handlerINtB9_11GrpcHandlerNtNtB9_5tests18MockGreeterServiceENtNtNtBd_7handler13handler_trait7Handler4call0s_0Bd_
FN:77,_RNCNCNvXs2_NtNtCs7wZ7Ymcehhq_6silent4grpc7handlerINtB9_11GrpcHandlerNtNtNtBb_8register5tests15MockUserServiceENtNtNtBd_7handler13handler_trait7Handler4call00Bd_
FN:105,_RNCNCNvXs2_NtNtCs7wZ7Ymcehhq_6silent4grpc7handlerINtB9_11GrpcHandlerNtNtNtBb_8register5tests15MockUserServiceENtNtNtBd_7handler13handler_trait7Handler4call0s_0Bd_
FN:77,_RNCNCNvXs2_NtNtCs7wZ7Ymcehhq_6silent4grpc7handlerINtB9_11GrpcHandlerNtNtNtBb_8register5tests18MockGreeterServiceENtNtNtBd_7handler13handler_trait7Handler4call00Bd_
FN:105,_RNCNCNvXs2_NtNtCs7wZ7Ymcehhq_6silent4grpc7handlerINtB9_11GrpcHandlerNtNtNtBb_8register5tests18MockGreeterServiceENtNtNtBd_7handler13handler_trait7Handler4call0s_0Bd_
FN:40,_RNvMs_NtNtCs7wZ7Ymcehhq_6silent4grpc7handlerINtB4_11GrpcHandlerNtNtB4_5tests15MockUserServiceE3newB8_
FN:45,_RNvMs_NtNtCs7wZ7Ymcehhq_6silent4grpc7handlerINtB4_11GrpcHandlerNtNtB4_5tests15MockUserServiceE4pathB8_
FN:40,_RNvMs_NtNtCs7wZ7Ymcehhq_6silent4grpc7handlerINtB4_11GrpcHandlerNtNtB4_5tests16MockEmptyServiceE3newB8_
FN:45,_RNvMs_NtNtCs7wZ7Ymcehhq_6silent4grpc7handlerINtB4_11GrpcHandlerNtNtB4_5tests16MockEmptyServiceE4pathB8_
FN:40,_RNvMs_NtNtCs7wZ7Ymcehhq_6silent4grpc7handlerINtB4_11GrpcHandlerNtNtB4_5tests16MockErrorServiceE3newB8_
FN:40,_RNvMs_NtNtCs7wZ7Ymcehhq_6silent4grpc7handlerINtB4_11GrpcHandlerNtNtB4_5tests18MockGreeterServiceE3newB8_
FN:45,_RNvMs_NtNtCs7wZ7Ymcehhq_6silent4grpc7handlerINtB4_11GrpcHandlerNtNtB4_5tests18MockGreeterServiceE4pathB8_
FN:40,_RNvMs_NtNtCs7wZ7Ymcehhq_6silent4grpc7handlerINtB4_11GrpcHandlerNtNtB4_5tests19MockLongNameServiceE3newB8_
FN:45,_RNvMs_NtNtCs7wZ7Ymcehhq_6silent4grpc7handlerINtB4_11GrpcHandlerNtNtB4_5tests19MockLongNameServiceE4pathB8_
FN:40,_RNvMs_NtNtCs7wZ7Ymcehhq_6silent4grpc7handlerINtB4_11GrpcHandlerNtNtNtB6_8register5tests15MockUserServiceE3newB8_
FN:45,_RNvMs_NtNtCs7wZ7Ymcehhq_6silent4grpc7handlerINtB4_11GrpcHandlerNtNtNtB6_8register5tests15MockUserServiceE4pathB8_
FN:40,_RNvMs_NtNtCs7wZ7Ymcehhq_6silent4grpc7handlerINtB4_11GrpcHandlerNtNtNtB6_8register5tests18MockGreeterServiceE3newB8_
FN:45,_RNvMs_NtNtCs7wZ7Ymcehhq_6silent4grpc7handlerINtB4_11GrpcHandlerNtNtNtB6_8register5tests18MockGreeterServiceE4pathB8_
FN:58,_RNvXs0_NtNtCs7wZ7Ymcehhq_6silent4grpc7handlerINtB5_11GrpcHandlerNtNtB5_5tests18MockGreeterServiceEINtNtCsiMcf32LsBml_4core7convert4FromB10_E4fromB9_
FN:74,_RNvXs2_NtNtCs7wZ7Ymcehhq_6silent4grpc7handlerINtB5_11GrpcHandlerNtNtB5_5tests16MockErrorServiceENtNtNtB9_7handler13handler_trait7Handler4callB9_
FN:74,_RNvXs2_NtNtCs7wZ7Ymcehhq_6silent4grpc7handlerINtB5_11GrpcHandlerNtNtB5_5tests18MockGreeterServiceENtNtNtB9_7handler13handler_trait7Handler4callB9_
FN:74,_RNvXs2_NtNtCs7wZ7Ymcehhq_6silent4grpc7handlerINtB5_11GrpcHandlerNtNtNtB7_8register5tests15MockUserServiceENtNtNtB9_7handler13handler_trait7Handler4callB9_
FN:74,_RNvXs2_NtNtCs7wZ7Ymcehhq_6silent4grpc7handlerINtB5_11GrpcHandlerNtNtNtB7_8register5tests18MockGreeterServiceENtNtNtB9_7handler13handler_trait7Handler4callB9_
FN:300,_RNvMNtNtNtCs7wZ7Ymcehhq_6silent4grpc7handler5testsNtB2_18MockGreeterService3new
FN:337,_RNvMs1_NtNtNtCs7wZ7Ymcehhq_6silent4grpc7handler5testsNtB5_15MockUserService3new
FN:374,_RNvMs4_NtNtNtCs7wZ7Ymcehhq_6silent4grpc7handler5testsNtB5_16MockEmptyService3new
FN:411,_RNvMs7_NtNtNtCs7wZ7Ymcehhq_6silent4grpc7handler5testsNtB5_19MockLongNameService3new
FN:621,_RNvMsc_NtNtNtCs7wZ7Ymcehhq_6silent4grpc7handler5testsNtB5_16MockErrorService3new
FN:128,_RNvNtNtNtCs7wZ7Ymcehhq_6silent4grpc7handler5testss_21test_grpc_handler_new
FN:173,_RNvNtNtNtCs7wZ7Ymcehhq_6silent4grpc7handler5testss_22test_grpc_handler_path
FN:209,_RNvNtNtNtCs7wZ7Ymcehhq_6silent4grpc7handler5testss_22test_grpc_handler_size
FN:137,_RNvNtNtNtCs7wZ7Ymcehhq_6silent4grpc7handler5testss_23test_grpc_handler_clone
FN:222,_RNvNtNtNtCs7wZ7Ymcehhq_6silent4grpc7handler5testss_25test_grpc_request_adapter
FN:195,_RNvNtNtNtCs7wZ7Ymcehhq_6silent4grpc7handler5testss_27test_grpc_handler_send_sync
FN:258,_RNvNtNtNtCs7wZ7Ymcehhq_6silent4grpc7handler5testss_29test_grpc_handler_arc_sharing
FN:202,_RNvNtNtNtCs7wZ7Ymcehhq_6silent4grpc7handler5testss_29test_grpc_handler_clone_trait
FN:184,_RNvNtNtNtCs7wZ7Ymcehhq_6silent4grpc7handler5testss_29test_grpc_handler_path_static
FN:588,_RNvNtNtNtCs7wZ7Ymcehhq_6silent4grpc7handler5testss_29test_handler_concurrent_calls
FN:150,_RNvNtNtNtCs7wZ7Ymcehhq_6silent4grpc7handler5testss_30test_grpc_handler_from_service
FN:478,_RNvNtNtNtCs7wZ7Ymcehhq_6silent4grpc7handler5testss_30test_handler_call_with_upgrade
FN:456,_RNvNtNtNtCs7wZ7Ymcehhq_6silent4grpc7handler5testss_33test_handler_call_without_upgrade
FN:159,_RNvNtNtNtCs7wZ7Ymcehhq_6silent4grpc7handler5testss_34test_grpc_handler_from_consistency
FN:540,_RNvNtNtNtCs7wZ7Ymcehhq_6silent4grpc7handler5testss_34test_handler_call_response_headers
FN:282,_RNvNtNtNtCs7wZ7Ymcehhq_6silent4grpc7handler5testss_35test_grpc_handler_long_service_name
FN:519,_RNvNtNtNtCs7wZ7Ymcehhq_6silent4grpc7handler5testss_35test_handler_call_different_methods
FN:563,_RNvNtNtNtCs7wZ7Ymcehhq_6silent4grpc7handler5testss_35test_handler_service_error_handling
FN:274,_RNvNtNtNtCs7wZ7Ymcehhq_6silent4grpc7handler5testss_36test_grpc_handler_empty_service_name
FN:496,_RNvNtNtNtCs7wZ7Ymcehhq_6silent4grpc7handler5testss_37test_handler_call_with_custom_headers
FN:233,_RNvNtNtNtCs7wZ7Ymcehhq_6silent4grpc7handler5testss_38test_grpc_request_adapter_with_headers
FN:321,_RNvXs0_NtNtNtCs7wZ7Ymcehhq_6silent4grpc7handler5testsNtB5_18MockGreeterServiceINtCsiBw7QhC7r6y_13tower_service7ServiceINtNtCs9xQqEOIPLdx_4http7request7RequestNtNtCs3EjIX9pnHVr_5tonic4body4BodyEE4call
FN:446,_RNvXsa_NtNtNtCs7wZ7Ymcehhq_6silent4grpc7handler5testsNtB5_9MockErrorNtNtCsiMcf32LsBml_4core3fmt7Display3fmt
FN:642,_RNvXse_NtNtNtCs7wZ7Ymcehhq_6silent4grpc7handler5testsNtB5_16MockErrorServiceINtCsiBw7QhC7r6y_13tower_service7ServiceINtNtCs9xQqEOIPLdx_4http7request7RequestNtNtCs3EjIX9pnHVr_5tonic4body4BodyEE4call
FN:654,_RNvXsf_NtNtNtCs7wZ7Ymcehhq_6silent4grpc7handler5testsNtB5_16MockServiceErrorNtNtCsiMcf32LsBml_4core3fmt7Display3fmt
FN:197,_RINvNvNtNtNtCs7wZ7Ymcehhq_6silent4grpc7handler5testss_27test_grpc_handler_send_sync16assert_send_syncINtB6_11GrpcHandlerNtB4_18MockGreeterServiceEEBa_
FN:597,_RNCNCNvNtNtNtCs7wZ7Ymcehhq_6silent4grpc7handler5testss_29test_handler_concurrent_calls00Bb_
FN:591,_RNCNvNtNtNtCs7wZ7Ymcehhq_6silent4grpc7handler5testss_29test_handler_concurrent_calls0B9_
FN:481,_RNCNvNtNtNtCs7wZ7Ymcehhq_6silent4grpc7handler5testss_30test_handler_call_with_upgrade0B9_
FN:459,_RNCNvNtNtNtCs7wZ7Ymcehhq_6silent4grpc7handler5testss_33test_handler_call_without_upgrade0B9_
FN:543,_RNCNvNtNtNtCs7wZ7Ymcehhq_6silent4grpc7handler5testss_34test_handler_call_response_headers0B9_
FN:522,_RNCNvNtNtNtCs7wZ7Ymcehhq_6silent4grpc7handler5testss_35test_handler_call_different_methods0B9_
FN:566,_RNCNvNtNtNtCs7wZ7Ymcehhq_6silent4grpc7handler5testss_35test_handler_service_error_handling0B9_
FN:499,_RNCNvNtNtNtCs7wZ7Ymcehhq_6silent4grpc7handler5testss_37test_handler_call_with_custom_headers0B9_
FN:322,_RNCNvXs0_NtNtNtCs7wZ7Ymcehhq_6silent4grpc7handler5testsNtB7_18MockGreeterServiceINtCsiBw7QhC7r6y_13tower_service7ServiceINtNtCs9xQqEOIPLdx_4http7request7RequestNtNtCs3EjIX9pnHVr_5tonic4body4BodyEE4call0Bd_
FN:643,_RNCNvXse_NtNtNtCs7wZ7Ymcehhq_6silent4grpc7handler5testsNtB7_16MockErrorServiceINtCsiBw7QhC7r6y_13tower_service7ServiceINtNtCs9xQqEOIPLdx_4http7request7RequestNtNtCs3EjIX9pnHVr_5tonic4body4BodyEE4call0Bd_
FN:21,_RNvXNtNtCs7wZ7Ymcehhq_6silent4grpc7handlerNtNtNtB6_4core7request7RequestNtB2_18GrpcRequestAdapter17into_grpc_request
FNDA:0,_RNCNCNvXININtNtCs9iG4RRqsTsR_6silent4grpc7handlers2_0pEINtB9_11GrpcHandlerpENtNtNtBd_7handler13handler_trait7Handler4call00Bd_
FNDA:0,_RNCNCNvXININtNtCs9iG4RRqsTsR_6silent4grpc7handlers2_0pEINtB9_11GrpcHandlerpENtNtNtBd_7handler13handler_trait7Handler4call0s_0Bd_
FNDA:0,_RNvMs_NtNtCs9iG4RRqsTsR_6silent4grpc7handlerINtB4_11GrpcHandlerpE3newB8_
FNDA:0,_RNvMs_NtNtCs9iG4RRqsTsR_6silent4grpc7handlerINtB4_11GrpcHandlerpE4pathB8_
FNDA:0,_RNvXININtNtCs9iG4RRqsTsR_6silent4grpc7handlers0_0pEINtB5_11GrpcHandlerpEINtNtCsiMcf32LsBml_4core7convert4FrompE4fromB9_
FNDA:0,_RNvXININtNtCs9iG4RRqsTsR_6silent4grpc7handlers2_0pEINtB5_11GrpcHandlerpENtNtNtB9_7handler13handler_trait7Handler4callB9_
FNDA:0,_RNvXNtNtCs9iG4RRqsTsR_6silent4grpc7handlerNtNtNtB6_4core7request7RequestNtB2_18GrpcRequestAdapter17into_grpc_request
FNDA:0,_RNCNvXs3_NtNtNtCs7wZ7Ymcehhq_6silent4grpc7handler5testsNtB7_15MockUserServiceINtCsiBw7QhC7r6y_13tower_service7ServiceINtNtCs9xQqEOIPLdx_4http7request7RequestNtNtCs3EjIX9pnHVr_5tonic4body4BodyEE4call0Bd_
FNDA:0,_RNCNvXs6_NtNtNtCs7wZ7Ymcehhq_6silent4grpc7handler5testsNtB7_16MockEmptyServiceINtCsiBw7QhC7r6y_13tower_service7ServiceINtNtCs9xQqEOIPLdx_4http7request7RequestNtNtCs3EjIX9pnHVr_5tonic4body4BodyEE4call0Bd_
FNDA:0,_RNCNvXs9_NtNtNtCs7wZ7Ymcehhq_6silent4grpc7handler5testsNtB7_19MockLongNameServiceINtCsiBw7QhC7r6y_13tower_service7ServiceINtNtCs9xQqEOIPLdx_4http7request7RequestNtNtCs3EjIX9pnHVr_5tonic4body4BodyEE4call0Bd_
FNDA:0,_RNvXs0_NtNtNtCs7wZ7Ymcehhq_6silent4grpc7handler5testsNtB5_18MockGreeterServiceINtCsiBw7QhC7r6y_13tower_service7ServiceINtNtCs9xQqEOIPLdx_4http7request7RequestNtNtCs3EjIX9pnHVr_5tonic4body4BodyEE10poll_ready
FNDA:0,_RNvXs3_NtNtNtCs7wZ7Ymcehhq_6silent4grpc7handler5testsNtB5_15MockUserServiceINtCsiBw7QhC7r6y_13tower_service7ServiceINtNtCs9xQqEOIPLdx_4http7request7RequestNtNtCs3EjIX9pnHVr_5tonic4body4BodyEE10poll_ready
FNDA:0,_RNvXs3_NtNtNtCs7wZ7Ymcehhq_6silent4grpc7handler5testsNtB5_15MockUserServiceINtCsiBw7QhC7r6y_13tower_service7ServiceINtNtCs9xQqEOIPLdx_4http7request7RequestNtNtCs3EjIX9pnHVr_5tonic4body4BodyEE4call
FNDA:0,_RNvXs6_NtNtNtCs7wZ7Ymcehhq_6silent4grpc7handler5testsNtB5_16MockEmptyServiceINtCsiBw7QhC7r6y_13tower_service7ServiceINtNtCs9xQqEOIPLdx_4http7request7RequestNtNtCs3EjIX9pnHVr_5tonic4body4BodyEE10poll_ready
FNDA:0,_RNvXs6_NtNtNtCs7wZ7Ymcehhq_6silent4grpc7handler5testsNtB5_16MockEmptyServiceINtCsiBw7QhC7r6y_13tower_service7ServiceINtNtCs9xQqEOIPLdx_4http7request7RequestNtNtCs3EjIX9pnHVr_5tonic4body4BodyEE4call
FNDA:0,_RNvXs9_NtNtNtCs7wZ7Ymcehhq_6silent4grpc7handler5testsNtB5_19MockLongNameServiceINtCsiBw7QhC7r6y_13tower_service7ServiceINtNtCs9xQqEOIPLdx_4http7request7RequestNtNtCs3EjIX9pnHVr_5tonic4body4BodyEE10poll_ready
FNDA:0,_RNvXs9_NtNtNtCs7wZ7Ymcehhq_6silent4grpc7handler5testsNtB5_19MockLongNameServiceINtCsiBw7QhC7r6y_13tower_service7ServiceINtNtCs9xQqEOIPLdx_4http7request7RequestNtNtCs3EjIX9pnHVr_5tonic4body4BodyEE4call
FNDA:0,_RNvXse_NtNtNtCs7wZ7Ymcehhq_6silent4grpc7handler5testsNtB5_16MockErrorServiceINtCsiBw7QhC7r6y_13tower_service7ServiceINtNtCs9xQqEOIPLdx_4http7request7RequestNtNtCs3EjIX9pnHVr_5tonic4body4BodyEE10poll_ready
FNDA:0,_RNCNCNvXs2_NtNtCs7wZ7Ymcehhq_6silent4grpc7handlerINtB9_11GrpcHandlerNtNtB9_5tests16MockErrorServiceENtNtNtBd_7handler13handler_trait7Handler4call00Bd_
FNDA:1,_RNCNCNvXs2_NtNtCs7wZ7Ymcehhq_6silent4grpc7handlerINtB9_11GrpcHandlerNtNtB9_5tests16MockErrorServiceENtNtNtBd_7handler13handler_trait7Handler4call0s_0Bd_
FNDA:0,_RNCNCNvXs2_NtNtCs7wZ7Ymcehhq_6silent4grpc7handlerINtB9_11GrpcHandlerNtNtB9_5tests18MockGreeterServiceENtNtNtBd_7handler13handler_trait7Handler4call00Bd_
FNDA:0,_RNCNCNvXs2_NtNtCs7wZ7Ymcehhq_6silent4grpc7handlerINtB9_11GrpcHandlerNtNtB9_5tests18MockGreeterServiceENtNtNtBd_7handler13handler_trait7Handler4call0s_0Bd_
FNDA:0,_RNCNCNvXs2_NtNtCs7wZ7Ymcehhq_6silent4grpc7handlerINtB9_11GrpcHandlerNtNtNtBb_8register5tests15MockUserServiceENtNtNtBd_7handler13handler_trait7Handler4call00Bd_
FNDA:0,_RNCNCNvXs2_NtNtCs7wZ7Ymcehhq_6silent4grpc7handlerINtB9_11GrpcHandlerNtNtNtBb_8register5tests15MockUserServiceENtNtNtBd_7handler13handler_trait7Handler4call0s_0Bd_
FNDA:0,_RNCNCNvXs2_NtNtCs7wZ7Ymcehhq_6silent4grpc7handlerINtB9_11GrpcHandlerNtNtNtBb_8register5tests18MockGreeterServiceENtNtNtBd_7handler13handler_trait7Handler4call00Bd_
FNDA:0,_RNCNCNvXs2_NtNtCs7wZ7Ymcehhq_6silent4grpc7handlerINtB9_11GrpcHandlerNtNtNtBb_8register5tests18MockGreeterServiceENtNtNtBd_7handler13handler_trait7Handler4call0s_0Bd_
FNDA:1,_RNvMs_NtNtCs7wZ7Ymcehhq_6silent4grpc7handlerINtB4_11GrpcHandlerNtNtB4_5tests15MockUserServiceE3newB8_
FNDA:2,_RNvMs_NtNtCs7wZ7Ymcehhq_6silent4grpc7handlerINtB4_11GrpcHandlerNtNtB4_5tests15MockUserServiceE4pathB8_
FNDA:1,_RNvMs_NtNtCs7wZ7Ymcehhq_6silent4grpc7handlerINtB4_11GrpcHandlerNtNtB4_5tests16MockEmptyServiceE3newB8_
FNDA:1,_RNvMs_NtNtCs7wZ7Ymcehhq_6silent4grpc7handlerINtB4_11GrpcHandlerNtNtB4_5tests16MockEmptyServiceE4pathB8_
FNDA:1,_RNvMs_NtNtCs7wZ7Ymcehhq_6silent4grpc7handlerINtB4_11GrpcHandlerNtNtB4_5tests16MockErrorServiceE3newB8_
FNDA:15,_RNvMs_NtNtCs7wZ7Ymcehhq_6silent4grpc7handlerINtB4_11GrpcHandlerNtNtB4_5tests18MockGreeterServiceE3newB8_
FNDA:7,_RNvMs_NtNtCs7wZ7Ymcehhq_6silent4grpc7handlerINtB4_11GrpcHandlerNtNtB4_5tests18MockGreeterServiceE4pathB8_
FNDA:1,_RNvMs_NtNtCs7wZ7Ymcehhq_6silent4grpc7handlerINtB4_11GrpcHandlerNtNtB4_5tests19MockLongNameServiceE3newB8_
FNDA:1,_RNvMs_NtNtCs7wZ7Ymcehhq_6silent4grpc7handlerINtB4_11GrpcHandlerNtNtB4_5tests19MockLongNameServiceE4pathB8_
FNDA:2,_RNvMs_NtNtCs7wZ7Ymcehhq_6silent4grpc7handlerINtB4_11GrpcHandlerNtNtNtB6_8register5tests15MockUserServiceE3newB8_
FNDA:2,_RNvMs_NtNtCs7wZ7Ymcehhq_6silent4grpc7handlerINtB4_11GrpcHandlerNtNtNtB6_8register5tests15MockUserServiceE4pathB8_
FNDA:16,_RNvMs_NtNtCs7wZ7Ymcehhq_6silent4grpc7handlerINtB4_11GrpcHandlerNtNtNtB6_8register5tests18MockGreeterServiceE3newB8_
FNDA:12,_RNvMs_NtNtCs7wZ7Ymcehhq_6silent4grpc7handlerINtB4_11GrpcHandlerNtNtNtB6_8register5tests18MockGreeterServiceE4pathB8_
FNDA:2,_RNvXs0_NtNtCs7wZ7Ymcehhq_6silent4grpc7handlerINtB5_11GrpcHandlerNtNtB5_5tests18MockGreeterServiceEINtNtCsiMcf32LsBml_4core7convert4FromB10_E4fromB9_
FNDA:1,_RNvXs2_NtNtCs7wZ7Ymcehhq_6silent4grpc7handlerINtB5_11GrpcHandlerNtNtB5_5tests16MockErrorServiceENtNtNtB9_7handler13handler_trait7Handler4callB9_
FNDA:16,_RNvXs2_NtNtCs7wZ7Ymcehhq_6silent4grpc7handlerINtB5_11GrpcHandlerNtNtB5_5tests18MockGreeterServiceENtNtNtB9_7handler13handler_trait7Handler4callB9_
FNDA:0,_RNvXs2_NtNtCs7wZ7Ymcehhq_6silent4grpc7handlerINtB5_11GrpcHandlerNtNtNtB7_8register5tests15MockUserServiceENtNtNtB9_7handler13handler_trait7Handler4callB9_
FNDA:0,_RNvXs2_NtNtCs7wZ7Ymcehhq_6silent4grpc7handlerINtB5_11GrpcHandlerNtNtNtB7_8register5tests18MockGreeterServiceENtNtNtB9_7handler13handler_trait7Handler4callB9_
FNDA:15,_RNvMNtNtNtCs7wZ7Ymcehhq_6silent4grpc7handler5testsNtB2_18MockGreeterService3new
FNDA:1,_RNvMs1_NtNtNtCs7wZ7Ymcehhq_6silent4grpc7handler5testsNtB5_15MockUserService3new
FNDA:1,_RNvMs4_NtNtNtCs7wZ7Ymcehhq_6silent4grpc7handler5testsNtB5_16MockEmptyService3new
FNDA:1,_RNvMs7_NtNtNtCs7wZ7Ymcehhq_6silent4grpc7handler5testsNtB5_19MockLongNameService3new
FNDA:1,_RNvMsc_NtNtNtCs7wZ7Ymcehhq_6silent4grpc7handler5testsNtB5_16MockErrorService3new
FNDA:1,_RNvNtNtNtCs7wZ7Ymcehhq_6silent4grpc7handler5testss_21test_grpc_handler_new
FNDA:1,_RNvNtNtNtCs7wZ7Ymcehhq_6silent4grpc7handler5testss_22test_grpc_handler_path
FNDA:1,_RNvNtNtNtCs7wZ7Ymcehhq_6silent4grpc7handler5testss_22test_grpc_handler_size
FNDA:1,_RNvNtNtNtCs7wZ7Ymcehhq_6silent4grpc7handler5testss_23test_grpc_handler_clone
FNDA:1,_RNvNtNtNtCs7wZ7Ymcehhq_6silent4grpc7handler5testss_25test_grpc_request_adapter
FNDA:1,_RNvNtNtNtCs7wZ7Ymcehhq_6silent4grpc7handler5testss_27test_grpc_handler_send_sync
FNDA:1,_RNvNtNtNtCs7wZ7Ymcehhq_6silent4grpc7handler5testss_29test_grpc_handler_arc_sharing
FNDA:1,_RNvNtNtNtCs7wZ7Ymcehhq_6silent4grpc7handler5testss_29test_grpc_handler_clone_trait
FNDA:1,_RNvNtNtNtCs7wZ7Ymcehhq_6silent4grpc7handler5testss_29test_grpc_handler_path_static
FNDA:1,_RNvNtNtNtCs7wZ7Ymcehhq_6silent4grpc7handler5testss_29test_handler_concurrent_calls
FNDA:1,_RNvNtNtNtCs7wZ7Ymcehhq_6silent4grpc7handler5testss_30test_grpc_handler_from_service
FNDA:1,_RNvNtNtNtCs7wZ7Ymcehhq_6silent4grpc7handler5testss_30test_handler_call_with_upgrade
FNDA:1,_RNvNtNtNtCs7wZ7Ymcehhq_6silent4grpc7handler5testss_33test_handler_call_without_upgrade
FNDA:1,_RNvNtNtNtCs7wZ7Ymcehhq_6silent4grpc7handler5testss_34test_grpc_handler_from_consistency
FNDA:1,_RNvNtNtNtCs7wZ7Ymcehhq_6silent4grpc7handler5testss_34test_handler_call_response_headers
FNDA:1,_RNvNtNtNtCs7wZ7Ymcehhq_6silent4grpc7handler5testss_35test_grpc_handler_long_service_name
FNDA:1,_RNvNtNtNtCs7wZ7Ymcehhq_6silent4grpc7handler5testss_35test_handler_call_different_methods
FNDA:1,_RNvNtNtNtCs7wZ7Ymcehhq_6silent4grpc7handler5testss_35test_handler_service_error_handling
FNDA:1,_RNvNtNtNtCs7wZ7Ymcehhq_6silent4grpc7handler5testss_36test_grpc_handler_empty_service_name
FNDA:1,_RNvNtNtNtCs7wZ7Ymcehhq_6silent4grpc7handler5testss_37test_handler_call_with_custom_headers
FNDA:1,_RNvNtNtNtCs7wZ7Ymcehhq_6silent4grpc7handler5testss_38test_grpc_request_adapter_with_headers
FNDA:16,_RNvXs0_NtNtNtCs7wZ7Ymcehhq_6silent4grpc7handler5testsNtB5_18MockGreeterServiceINtCsiBw7QhC7r6y_13tower_service7ServiceINtNtCs9xQqEOIPLdx_4http7request7RequestNtNtCs3EjIX9pnHVr_5tonic4body4BodyEE4call
FNDA:0,_RNvXsa_NtNtNtCs7wZ7Ymcehhq_6silent4grpc7handler5testsNtB5_9MockErrorNtNtCsiMcf32LsBml_4core3fmt7Display3fmt
FNDA:1,_RNvXse_NtNtNtCs7wZ7Ymcehhq_6silent4grpc7handler5testsNtB5_16MockErrorServiceINtCsiBw7QhC7r6y_13tower_service7ServiceINtNtCs9xQqEOIPLdx_4http7request7RequestNtNtCs3EjIX9pnHVr_5tonic4body4BodyEE4call
FNDA:1,_RNvXsf_NtNtNtCs7wZ7Ymcehhq_6silent4grpc7handler5testsNtB5_16MockServiceErrorNtNtCsiMcf32LsBml_4core3fmt7Display3fmt
FNDA:1,_RINvNvNtNtNtCs7wZ7Ymcehhq_6silent4grpc7handler5testss_27test_grpc_handler_send_sync16assert_send_syncINtB6_11GrpcHandlerNtB4_18MockGreeterServiceEEBa_
FNDA:10,_RNCNCNvNtNtNtCs7wZ7Ymcehhq_6silent4grpc7handler5testss_29test_handler_concurrent_calls00Bb_
FNDA:1,_RNCNvNtNtNtCs7wZ7Ymcehhq_6silent4grpc7handler5testss_29test_handler_concurrent_calls0B9_
FNDA:1,_RNCNvNtNtNtCs7wZ7Ymcehhq_6silent4grpc7handler5testss_30test_handler_call_with_upgrade0B9_
FNDA:1,_RNCNvNtNtNtCs7wZ7Ymcehhq_6silent4grpc7handler5testss_33test_handler_call_without_upgrade0B9_
FNDA:1,_RNCNvNtNtNtCs7wZ7Ymcehhq_6silent4grpc7handler5testss_34test_handler_call_response_headers0B9_
FNDA:1,_RNCNvNtNtNtCs7wZ7Ymcehhq_6silent4grpc7handler5testss_35test_handler_call_different_methods0B9_
FNDA:1,_RNCNvNtNtNtCs7wZ7Ymcehhq_6silent4grpc7handler5testss_35test_handler_service_error_handling0B9_
FNDA:1,_RNCNvNtNtNtCs7wZ7Ymcehhq_6silent4grpc7handler5testss_37test_handler_call_with_custom_headers0B9_
FNDA:16,_RNCNvXs0_NtNtNtCs7wZ7Ymcehhq_6silent4grpc7handler5testsNtB7_18MockGreeterServiceINtCsiBw7QhC7r6y_13tower_service7ServiceINtNtCs9xQqEOIPLdx_4http7request7RequestNtNtCs3EjIX9pnHVr_5tonic4body4BodyEE4call0Bd_
FNDA:1,_RNCNvXse_NtNtNtCs7wZ7Ymcehhq_6silent4grpc7handler5testsNtB7_16MockErrorServiceINtCsiBw7QhC7r6y_13tower_service7ServiceINtNtCs9xQqEOIPLdx_4http7request7RequestNtNtCs3EjIX9pnHVr_5tonic4body4BodyEE4call0Bd_
FNDA:19,_RNvXNtNtCs7wZ7Ymcehhq_6silent4grpc7handlerNtNtNtB6_4core7request7RequestNtB2_18GrpcRequestAdapter17into_grpc_request
FNF:59
FNH:46
DA:21,19
DA:22,19
DA:23,19
DA:24,19
DA:40,37
DA:41,37
DA:42,37
DA:43,37
DA:44,37
DA:45,25
DA:46,25
DA:47,25
DA:58,2
DA:59,2
DA:60,2
DA:61,2
DA:62,2
DA:74,17
DA:77,0
DA:78,0
DA:79,0
DA:80,0
DA:81,0
DA:82,0
DA:83,0
DA:85,0
DA:86,0
DA:87,0
DA:88,0
DA:90,0
DA:91,0
DA:93,0
DA:105,1
DA:106,1
DA:108,1
DA:110,1
DA:116,17
DA:128,1
DA:129,1
DA:130,1
DA:133,1
DA:134,1
DA:137,1
DA:138,1
DA:139,1
DA:140,1
DA:143,1
DA:144,1
DA:145,1
DA:150,1
DA:151,1
DA:152,1
DA:155,1
DA:156,1
DA:159,1
DA:160,1
DA:161,1
DA:163,1
DA:164,1
DA:167,1
DA:168,1
DA:173,1
DA:174,1
DA:175,1
DA:178,1
DA:179,1
DA:180,1
DA:181,1
DA:184,1
DA:185,1
DA:188,1
DA:189,1
DA:190,1
DA:195,1
DA:197,1
DA:198,1
DA:199,1
DA:202,1
DA:204,1
DA:205,1
DA:206,1
DA:209,1
DA:210,1
DA:213,1
DA:214,1
DA:217,1
DA:222,1
DA:223,1
DA:224,1
DA:228,1
DA:229,1
DA:230,1
DA:233,1
DA:234,1
DA:235,1
DA:236,1
DA:237,1
DA:238,1
DA:239,1
DA:240,1
DA:242,1
DA:245,1
DA:246,1
DA:249,1
DA:250,1
DA:253,1
DA:258,1
DA:259,1
DA:260,1
DA:261,1
DA:262,1
DA:267,1
DA:268,1
DA:269,1
DA:274,1
DA:275,1
DA:278,1
DA:279,1
DA:282,1
DA:283,1
DA:286,1
DA:287,1
DA:290,1
DA:300,15
DA:301,15
DA:302,15
DA:314,0
DA:315,0
DA:316,0
DA:317,0
DA:318,0
DA:319,0
DA:321,16
DA:322,16
DA:323,16
DA:324,16
DA:325,16
DA:326,16
DA:327,16
DA:328,16
DA:337,1
DA:338,1
DA:339,1
DA:351,0
DA:352,0
DA:353,0
DA:354,0
DA:355,0
DA:356,0
DA:358,0
DA:359,0
DA:360,0
DA:361,0
DA:362,0
DA:363,0
DA:364,0
DA:365,0
DA:374,1
DA:375,1
DA:376,1
DA:388,0
DA:389,0
DA:390,0
DA:391,0
DA:392,0
DA:393,0
DA:395,0
DA:396,0
DA:397,0
DA:398,0
DA:399,0
DA:400,0
DA:401,0
DA:402,0
DA:411,1
DA:412,1
DA:413,1
DA:425,0
DA:426,0
DA:427,0
DA:428,0
DA:429,0
DA:430,0
DA:432,0
DA:433,0
DA:434,0
DA:435,0
DA:436,0
DA:437,0
DA:438,0
DA:439,0
DA:446,0
DA:447,0
DA:448,0
DA:456,1
DA:458,1
DA:459,1
DA:460,1
DA:461,1
DA:464,1
DA:465,1
DA:466,1
DA:468,1
DA:471,1
DA:472,1
DA:473,1
DA:474,1
DA:475,1
DA:478,1
DA:480,1
DA:481,1
DA:482,1
DA:483,1
DA:488,1
DA:491,1
DA:492,1
DA:493,1
DA:496,1
DA:498,1
DA:499,1
DA:500,1
DA:501,1
DA:503,1
DA:504,1
DA:505,1
DA:506,1
DA:507,1
DA:508,1
DA:510,1
DA:512,1
DA:513,1
DA:514,1
DA:515,1
DA:516,1
DA:519,1
DA:521,1
DA:522,1
DA:523,1
DA:526,1
DA:527,1
DA:528,1
DA:529,1
DA:532,1
DA:533,1
DA:534,1
DA:535,1
DA:536,1
DA:537,1
DA:540,1
DA:542,1
DA:543,1
DA:544,1
DA:545,1
DA:547,1
DA:548,1
DA:549,1
DA:551,1
DA:552,1
DA:554,1
DA:556,1
DA:557,1
DA:558,1
DA:563,1
DA:565,1
DA:566,1
DA:567,1
DA:568,1
DA:570,1
DA:572,1
DA:575,1
DA:576,1
DA:578,1
DA:579,1
DA:580,1
DA:581,0
DA:583,0
DA:584,1
DA:585,1
DA:588,1
DA:590,1
DA:591,1
DA:592,1
DA:594,1
DA:595,1
DA:596,10
DA:597,10
DA:598,10
DA:599,10
DA:600,10
DA:601,10
DA:602,10
DA:606,10
DA:607,10
DA:608,10
DA:610,1
DA:611,1
DA:621,1
DA:622,1
DA:623,1
DA:635,0
DA:636,0
DA:637,0
DA:638,0
DA:639,0
DA:640,0
DA:642,1
DA:643,1
DA:645,1
DA:646,1
DA:647,1
DA:654,1
DA:655,1
DA:656,1
BRF:0
BRH:0
LF:326
LH:250
end_of_record
SF:/Users/hubertshelley/Documents/silent/silent/silent/src/grpc/register.rs
FN:24,_RNvXININtNtCs9iG4RRqsTsR_6silent4grpc8register0pEpINtB5_12GrpcRegisterpE11get_handlerB9_
FN:27,_RNvXININtNtCs9iG4RRqsTsR_6silent4grpc8register0pEpINtB5_12GrpcRegisterpE7serviceB9_
FN:38,_RNvXININtNtCs9iG4RRqsTsR_6silent4grpc8register0pEpINtB5_12GrpcRegisterpE8registerB9_
FN:271,_RNvXs0_NtNtNtCs7wZ7Ymcehhq_6silent4grpc8register5testsNtB5_18MockGreeterServiceINtCsiBw7QhC7r6y_13tower_service7ServiceINtNtCs9xQqEOIPLdx_4http7request7RequestNtNtCs3EjIX9pnHVr_5tonic4body4BodyEE10poll_ready
FN:308,_RNvXs3_NtNtNtCs7wZ7Ymcehhq_6silent4grpc8register5testsNtB5_15MockUserServiceINtCsiBw7QhC7r6y_13tower_service7ServiceINtNtCs9xQqEOIPLdx_4http7request7RequestNtNtCs3EjIX9pnHVr_5tonic4body4BodyEE10poll_ready
FN:257,_RNvMNtNtNtCs7wZ7Ymcehhq_6silent4grpc8register5testsNtB2_18MockGreeterService3new
FN:294,_RNvMs1_NtNtNtCs7wZ7Ymcehhq_6silent4grpc8register5testsNtB5_15MockUserService3new
FN:200,_RNvNtNtNtCs7wZ7Ymcehhq_6silent4grpc8register5testss_24test_grpc_register_clone
FN:61,_RNvNtNtNtCs7wZ7Ymcehhq_6silent4grpc8register5testss_26test_grpc_register_service
FN:230,_RNvNtNtNtCs7wZ7Ymcehhq_6silent4grpc8register5testss_30test_grpc_register_empty_route
FN:52,_RNvNtNtNtCs7wZ7Ymcehhq_6silent4grpc8register5testss_30test_grpc_register_get_handler
FN:193,_RNvNtNtNtCs7wZ7Ymcehhq_6silent4grpc8register5testss_30test_grpc_register_trait_bound
FN:240,_RNvNtNtNtCs7wZ7Ymcehhq_6silent4grpc8register5testss_31test_grpc_register_nested_route
FN:211,_RNvNtNtNtCs7wZ7Ymcehhq_6silent4grpc8register5testss_32test_grpc_register_named_service
FN:178,_RNvNtNtNtCs7wZ7Ymcehhq_6silent4grpc8register5testss_33test_grpc_register_combine_routes
FN:219,_RNvNtNtNtCs7wZ7Ymcehhq_6silent4grpc8register5testss_34test_grpc_register_different_names
FN:137,_RNvNtNtNtCs7wZ7Ymcehhq_6silent4grpc8register5testss_35test_grpc_register_service_chaining
FN:97,_RNvNtNtNtCs7wZ7Ymcehhq_6silent4grpc8register5testss_35test_grpc_register_service_handlers
FN:164,_RNvNtNtNtCs7wZ7Ymcehhq_6silent4grpc8register5testss_36test_grpc_register_multiple_services
FN:150,_RNvNtNtNtCs7wZ7Ymcehhq_6silent4grpc8register5testss_36test_grpc_register_register_to_route
FN:71,_RNvNtNtNtCs7wZ7Ymcehhq_6silent4grpc8register5testss_36test_grpc_register_service_structure
FN:108,_RNvNtNtNtCs7wZ7Ymcehhq_6silent4grpc8register5testss_38test_grpc_register_service_arc_handler
FN:86,_RNvNtNtNtCs7wZ7Ymcehhq_6silent4grpc8register5testss_40test_grpc_register_service_path_wildcard
FN:123,_RNvNtNtNtCs7wZ7Ymcehhq_6silent4grpc8register5testss_42test_grpc_register_service_path_conversion
FN:278,_RNvXs0_NtNtNtCs7wZ7Ymcehhq_6silent4grpc8register5testsNtB5_18MockGreeterServiceINtCsiBw7QhC7r6y_13tower_service7ServiceINtNtCs9xQqEOIPLdx_4http7request7RequestNtNtCs3EjIX9pnHVr_5tonic4body4BodyEE4call
FN:315,_RNvXs3_NtNtNtCs7wZ7Ymcehhq_6silent4grpc8register5testsNtB5_15MockUserServiceINtCsiBw7QhC7r6y_13tower_service7ServiceINtNtCs9xQqEOIPLdx_4http7request7RequestNtNtCs3EjIX9pnHVr_5tonic4body4BodyEE4call
FN:329,_RNvXs4_NtNtNtCs7wZ7Ymcehhq_6silent4grpc8register5testsNtB5_9MockErrorNtNtCsiMcf32LsBml_4core3fmt7Display3fmt
FN:195,_RINvNvNtNtNtCs7wZ7Ymcehhq_6silent4grpc8register5testss_30test_grpc_register_trait_bound20assert_grpc_registerNtB4_18MockGreeterServiceEBa_
FN:279,_RNCNvXs0_NtNtNtCs7wZ7Ymcehhq_6silent4grpc8register5testsNtB7_18MockGreeterServiceINtCsiBw7QhC7r6y_13tower_service7ServiceINtNtCs9xQqEOIPLdx_4http7request7RequestNtNtCs3EjIX9pnHVr_5tonic4body4BodyEE4call0Bd_
FN:316,_RNCNvXs3_NtNtNtCs7wZ7Ymcehhq_6silent4grpc8register5testsNtB7_15MockUserServiceINtCsiBw7QhC7r6y_13tower_service7ServiceINtNtCs9xQqEOIPLdx_4http7request7RequestNtNtCs3EjIX9pnHVr_5tonic4body4BodyEE4call0Bd_
FN:24,_RNvXNtNtCs7wZ7Ymcehhq_6silent4grpc8registerNtNtB2_5tests15MockUserServiceINtB2_12GrpcRegisterBF_E11get_handlerB6_
FN:27,_RNvXNtNtCs7wZ7Ymcehhq_6silent4grpc8registerNtNtB2_5tests15MockUserServiceINtB2_12GrpcRegisterBF_E7serviceB6_
FN:24,_RNvXNtNtCs7wZ7Ymcehhq_6silent4grpc8registerNtNtB2_5tests18MockGreeterServiceINtB2_12GrpcRegisterBF_E11get_handlerB6_
FN:27,_RNvXNtNtCs7wZ7Ymcehhq_6silent4grpc8registerNtNtB2_5tests18MockGreeterServiceINtB2_12GrpcRegisterBF_E7serviceB6_
FN:38,_RNvXNtNtCs7wZ7Ymcehhq_6silent4grpc8registerNtNtB2_5tests18MockGreeterServiceINtB2_12GrpcRegisterBF_E8registerB6_
FNDA:0,_RNvXININtNtCs9iG4RRqsTsR_6silent4grpc8register0pEpINtB5_12GrpcRegisterpE11get_handlerB9_
FNDA:0,_RNvXININtNtCs9iG4RRqsTsR_6silent4grpc8register0pEpINtB5_12GrpcRegisterpE7serviceB9_
FNDA:0,_RNvXININtNtCs9iG4RRqsTsR_6silent4grpc8register0pEpINtB5_12GrpcRegisterpE8registerB9_
FNDA:0,_RNvXs0_NtNtNtCs7wZ7Ymcehhq_6silent4grpc8register5testsNtB5_18MockGreeterServiceINtCsiBw7QhC7r6y_13tower_service7ServiceINtNtCs9xQqEOIPLdx_4http7request7RequestNtNtCs3EjIX9pnHVr_5tonic4body4BodyEE10poll_ready
FNDA:0,_RNvXs3_NtNtNtCs7wZ7Ymcehhq_6silent4grpc8register5testsNtB5_15MockUserServiceINtCsiBw7QhC7r6y_13tower_service7ServiceINtNtCs9xQqEOIPLdx_4http7request7RequestNtNtCs3EjIX9pnHVr_5tonic4body4BodyEE10poll_ready
FNDA:17,_RNvMNtNtNtCs7wZ7Ymcehhq_6silent4grpc8register5testsNtB2_18MockGreeterService3new
FNDA:3,_RNvMs1_NtNtNtCs7wZ7Ymcehhq_6silent4grpc8register5testsNtB5_15MockUserService3new
FNDA:1,_RNvNtNtNtCs7wZ7Ymcehhq_6silent4grpc8register5testss_24test_grpc_register_clone
FNDA:1,_RNvNtNtNtCs7wZ7Ymcehhq_6silent4grpc8register5testss_26test_grpc_register_service
FNDA:1,_RNvNtNtNtCs7wZ7Ymcehhq_6silent4grpc8register5testss_30test_grpc_register_empty_route
FNDA:1,_RNvNtNtNtCs7wZ7Ymcehhq_6silent4grpc8register5testss_30test_grpc_register_get_handler
FNDA:1,_RNvNtNtNtCs7wZ7Ymcehhq_6silent4grpc8register5testss_30test_grpc_register_trait_bound
FNDA:1,_RNvNtNtNtCs7wZ7Ymcehhq_6silent4grpc8register5testss_31test_grpc_register_nested_route
FNDA:1,_RNvNtNtNtCs7wZ7Ymcehhq_6silent4grpc8register5testss_32test_grpc_register_named_service
FNDA:1,_RNvNtNtNtCs7wZ7Ymcehhq_6silent4grpc8register5testss_33test_grpc_register_combine_routes
FNDA:1,_RNvNtNtNtCs7wZ7Ymcehhq_6silent4grpc8register5testss_34test_grpc_register_different_names
FNDA:1,_RNvNtNtNtCs7wZ7Ymcehhq_6silent4grpc8register5testss_35test_grpc_register_service_chaining
FNDA:1,_RNvNtNtNtCs7wZ7Ymcehhq_6silent4grpc8register5testss_35test_grpc_register_service_handlers
FNDA:1,_RNvNtNtNtCs7wZ7Ymcehhq_6silent4grpc8register5testss_36test_grpc_register_multiple_services
FNDA:1,_RNvNtNtNtCs7wZ7Ymcehhq_6silent4grpc8register5testss_36test_grpc_register_register_to_route
FNDA:1,_RNvNtNtNtCs7wZ7Ymcehhq_6silent4grpc8register5testss_36test_grpc_register_service_structure
FNDA:1,_RNvNtNtNtCs7wZ7Ymcehhq_6silent4grpc8register5testss_38test_grpc_register_service_arc_handler
FNDA:1,_RNvNtNtNtCs7wZ7Ymcehhq_6silent4grpc8register5testss_40test_grpc_register_service_path_wildcard
FNDA:1,_RNvNtNtNtCs7wZ7Ymcehhq_6silent4grpc8register5testss_42test_grpc_register_service_path_conversion
FNDA:0,_RNvXs0_NtNtNtCs7wZ7Ymcehhq_6silent4grpc8register5testsNtB5_18MockGreeterServiceINtCsiBw7QhC7r6y_13tower_service7ServiceINtNtCs9xQqEOIPLdx_4http7request7RequestNtNtCs3EjIX9pnHVr_5tonic4body4BodyEE4call
FNDA:0,_RNvXs3_NtNtNtCs7wZ7Ymcehhq_6silent4grpc8register5testsNtB5_15MockUserServiceINtCsiBw7QhC7r6y_13tower_service7ServiceINtNtCs9xQqEOIPLdx_4http7request7RequestNtNtCs3EjIX9pnHVr_5tonic4body4BodyEE4call
FNDA:0,_RNvXs4_NtNtNtCs7wZ7Ymcehhq_6silent4grpc8register5testsNtB5_9MockErrorNtNtCsiMcf32LsBml_4core3fmt7Display3fmt
FNDA:1,_RINvNvNtNtNtCs7wZ7Ymcehhq_6silent4grpc8register5testss_30test_grpc_register_trait_bound20assert_grpc_registerNtB4_18MockGreeterServiceEBa_
FNDA:0,_RNCNvXs0_NtNtNtCs7wZ7Ymcehhq_6silent4grpc8register5testsNtB7_18MockGreeterServiceINtCsiBw7QhC7r6y_13tower_service7ServiceINtNtCs9xQqEOIPLdx_4http7request7RequestNtNtCs3EjIX9pnHVr_5tonic4body4BodyEE4call0Bd_
FNDA:0,_RNCNvXs3_NtNtNtCs7wZ7Ymcehhq_6silent4grpc8register5testsNtB7_15MockUserServiceINtCsiBw7QhC7r6y_13tower_service7ServiceINtNtCs9xQqEOIPLdx_4http7request7RequestNtNtCs3EjIX9pnHVr_5tonic4body4BodyEE4call0Bd_
FNDA:2,_RNvXNtNtCs7wZ7Ymcehhq_6silent4grpc8registerNtNtB2_5tests15MockUserServiceINtB2_12GrpcRegisterBF_E11get_handlerB6_
FNDA:2,_RNvXNtNtCs7wZ7Ymcehhq_6silent4grpc8registerNtNtB2_5tests15MockUserServiceINtB2_12GrpcRegisterBF_E7serviceB6_
FNDA:16,_RNvXNtNtCs7wZ7Ymcehhq_6silent4grpc8registerNtNtB2_5tests18MockGreeterServiceINtB2_12GrpcRegisterBF_E11get_handlerB6_
FNDA:9,_RNvXNtNtCs7wZ7Ymcehhq_6silent4grpc8registerNtNtB2_5tests18MockGreeterServiceINtB2_12GrpcRegisterBF_E7serviceB6_
FNDA:3,_RNvXNtNtCs7wZ7Ymcehhq_6silent4grpc8registerNtNtB2_5tests18MockGreeterServiceINtB2_12GrpcRegisterBF_E8registerB6_
FNF:30
FNH:23
DA:24,18
DA:25,18
DA:26,18
DA:27,11
DA:28,11
DA:29,11
DA:30,11
DA:31,11
DA:32,11
DA:33,11
DA:34,11
DA:36,11
DA:38,3
DA:39,3
DA:40,3
DA:52,1
DA:53,1
DA:54,1
DA:57,1
DA:58,1
DA:61,1
DA:62,1
DA:63,1
DA:67,1
DA:68,1
DA:71,1
DA:73,1
DA:74,1
DA:77,1
DA:82,1
DA:83,1
DA:86,1
DA:88,1
DA:89,1
DA:94,1
DA:97,1
DA:99,1
DA:100,1
DA:105,1
DA:108,1
DA:110,1
DA:111,1
DA:114,1
DA:117,1
DA:118,1
DA:119,1
DA:120,1
DA:123,1
DA:125,1
DA:126,1
DA:129,1
DA:130,1
DA:133,1
DA:134,1
DA:137,1
DA:139,1
DA:142,1
DA:143,1
DA:144,1
DA:147,1
DA:150,1
DA:151,1
DA:152,1
DA:154,1
DA:159,1
DA:164,1
DA:165,1
DA:166,1
DA:168,1
DA:169,1
DA:172,1
DA:173,1
DA:174,1
DA:175,1
DA:178,1
DA:179,1
DA:180,1
DA:182,1
DA:183,1
DA:184,1
DA:187,1
DA:188,1
DA:193,1
DA:195,1
DA:196,1
DA:197,1
DA:200,1
DA:201,1
DA:202,1
DA:203,1
DA:206,1
DA:211,1
DA:212,1
DA:215,1
DA:216,1
DA:219,1
DA:220,1
DA:221,1
DA:224,1
DA:225,1
DA:230,1
DA:231,1
DA:232,1
DA:234,1
DA:237,1
DA:240,1
DA:241,1
DA:242,1
DA:244,1
DA:247,1
DA:257,17
DA:258,17
DA:259,17
DA:271,0
DA:272,0
DA:273,0
DA:274,0
DA:275,0
DA:276,0
DA:278,0
DA:279,0
DA:280,0
DA:281,0
DA:282,0
DA:283,0
DA:284,0
DA:285,0
DA:294,3
DA:295,3
DA:296,3
DA:308,0
DA:309,0
DA:310,0
DA:311,0
DA:312,0
DA:313,0
DA:315,0
DA:316,0
DA:317,0
DA:318,0
DA:319,0
DA:320,0
DA:321,0
DA:322,0
DA:329,0
DA:330,0
DA:331,0
BRF:0
BRH:0
LF:149
LH:116
end_of_record
SF:/Users/hubertshelley/Documents/silent/silent/silent/src/grpc/service.rs
FN:62,_RNCNCNvXININtNtCs9iG4RRqsTsR_6silent4grpc7services_0pEINtB9_11GrpcServicepEINtNtNtCsj0zAge8ySK0_5hyper7service7service7ServiceINtNtCs9xQqEOIPLdx_4http7request7RequestNtNtNtB1i_4body8incoming8IncomingEE4call00Bd_
FN:56,_RNCNvXININtNtCs9iG4RRqsTsR_6silent4grpc7services_0pEINtB7_11GrpcServicepEINtNtNtCsj0zAge8ySK0_5hyper7service7service7ServiceINtNtCs9xQqEOIPLdx_4http7request7RequestNtNtNtB1g_4body8incoming8IncomingEE4call0Bb_
FN:34,_RNvMNtNtCs9iG4RRqsTsR_6silent4grpc7serviceINtB2_11GrpcServicepE3newB6_
FN:52,_RNvXININtNtCs9iG4RRqsTsR_6silent4grpc7services_0pEINtB5_11GrpcServicepEINtNtNtCsj0zAge8ySK0_5hyper7service7service7ServiceINtNtCs9xQqEOIPLdx_4http7request7RequestNtNtNtB1e_4body8incoming8IncomingEE4callB9_
FN:162,_RNCNvXs_NtNtNtCs7wZ7Ymcehhq_6silent4grpc7service5testsNtB6_11MockServiceINtCsiBw7QhC7r6y_13tower_service7ServiceINtNtCs9xQqEOIPLdx_4http7request7RequestNtNtCs3EjIX9pnHVr_5tonic4body4BodyEE4call0Bc_
FN:175,_RNvXs0_NtNtNtCs7wZ7Ymcehhq_6silent4grpc7service5testsNtB5_9MockErrorNtNtCsiMcf32LsBml_4core3fmt7Display3fmt
FN:154,_RNvXs_NtNtNtCs7wZ7Ymcehhq_6silent4grpc7service5testsNtB4_11MockServiceINtCsiBw7QhC7r6y_13tower_service7ServiceINtNtCs9xQqEOIPLdx_4http7request7RequestNtNtCs3EjIX9pnHVr_5tonic4body4BodyEE10poll_ready
FN:161,_RNvXs_NtNtNtCs7wZ7Ymcehhq_6silent4grpc7service5testsNtB4_11MockServiceINtCsiBw7QhC7r6y_13tower_service7ServiceINtNtCs9xQqEOIPLdx_4http7request7RequestNtNtCs3EjIX9pnHVr_5tonic4body4BodyEE4call
FN:62,_RNCNCNvXs_NtNtCs7wZ7Ymcehhq_6silent4grpc7serviceINtB8_11GrpcServiceNtNtNtBa_7handler5tests16MockErrorServiceEINtNtNtCsj0zAge8ySK0_5hyper7service7service7ServiceINtNtCs9xQqEOIPLdx_4http7request7RequestNtNtNtB1Q_4body8incoming8IncomingEE4call00Bc_
FN:62,_RNCNCNvXs_NtNtCs7wZ7Ymcehhq_6silent4grpc7serviceINtB8_11GrpcServiceNtNtNtBa_7handler5tests18MockGreeterServiceEINtNtNtCsj0zAge8ySK0_5hyper7service7service7ServiceINtNtCs9xQqEOIPLdx_4http7request7RequestNtNtNtB1S_4body8incoming8IncomingEE4call00Bc_
FN:62,_RNCNCNvXs_NtNtCs7wZ7Ymcehhq_6silent4grpc7serviceINtB8_11GrpcServiceNtNtNtBa_8register5tests15MockUserServiceEINtNtNtCsj0zAge8ySK0_5hyper7service7service7ServiceINtNtCs9xQqEOIPLdx_4http7request7RequestNtNtNtB1Q_4body8incoming8IncomingEE4call00Bc_
FN:62,_RNCNCNvXs_NtNtCs7wZ7Ymcehhq_6silent4grpc7serviceINtB8_11GrpcServiceNtNtNtBa_8register5tests18MockGreeterServiceEINtNtNtCsj0zAge8ySK0_5hyper7service7service7ServiceINtNtCs9xQqEOIPLdx_4http7request7RequestNtNtNtB1T_4body8incoming8IncomingEE4call00Bc_
FN:56,_RNCNvXs_NtNtCs7wZ7Ymcehhq_6silent4grpc7serviceINtB6_11GrpcServiceNtNtNtB8_7handler5tests16MockErrorServiceEINtNtNtCsj0zAge8ySK0_5hyper7service7service7ServiceINtNtCs9xQqEOIPLdx_4http7request7RequestNtNtNtB1O_4body8incoming8IncomingEE4call0Ba_
FN:56,_RNCNvXs_NtNtCs7wZ7Ymcehhq_6silent4grpc7serviceINtB6_11GrpcServiceNtNtNtB8_7handler5tests18MockGreeterServiceEINtNtNtCsj0zAge8ySK0_5hyper7service7service7ServiceINtNtCs9xQqEOIPLdx_4http7request7RequestNtNtNtB1Q_4body8incoming8IncomingEE4call0Ba_
FN:56,_RNCNvXs_NtNtCs7wZ7Ymcehhq_6silent4grpc7serviceINtB6_11GrpcServiceNtNtNtB8_8register5tests15MockUserServiceEINtNtNtCsj0zAge8ySK0_5hyper7service7service7ServiceINtNtCs9xQqEOIPLdx_4http7request7RequestNtNtNtB1O_4body8incoming8IncomingEE4call0Ba_
FN:56,_RNCNvXs_NtNtCs7wZ7Ymcehhq_6silent4grpc7serviceINtB6_11GrpcServiceNtNtNtB8_8register5tests18MockGreeterServiceEINtNtNtCsj0zAge8ySK0_5hyper7service7service7ServiceINtNtCs9xQqEOIPLdx_4http7request7RequestNtNtNtB1R_4body8incoming8IncomingEE4call0Ba_
FN:34,_RNvMNtNtCs7wZ7Ymcehhq_6silent4grpc7serviceINtB2_11GrpcServiceNtNtB2_5tests11MockServiceE3newB6_
FN:34,_RNvMNtNtCs7wZ7Ymcehhq_6silent4grpc7serviceINtB2_11GrpcServiceNtNtNtB4_7handler5tests16MockErrorServiceE3newB6_
FN:34,_RNvMNtNtCs7wZ7Ymcehhq_6silent4grpc7serviceINtB2_11GrpcServiceNtNtNtB4_7handler5tests18MockGreeterServiceE3newB6_
FN:34,_RNvMNtNtCs7wZ7Ymcehhq_6silent4grpc7serviceINtB2_11GrpcServiceNtNtNtB4_8register5tests15MockUserServiceE3newB6_
FN:34,_RNvMNtNtCs7wZ7Ymcehhq_6silent4grpc7serviceINtB2_11GrpcServiceNtNtNtB4_8register5tests18MockGreeterServiceE3newB6_
FN:52,_RNvXs_NtNtCs7wZ7Ymcehhq_6silent4grpc7serviceINtB4_11GrpcServiceNtNtNtB6_7handler5tests16MockErrorServiceEINtNtNtCsj0zAge8ySK0_5hyper7service7service7ServiceINtNtCs9xQqEOIPLdx_4http7request7RequestNtNtNtB1M_4body8incoming8IncomingEE4callB8_
FN:52,_RNvXs_NtNtCs7wZ7Ymcehhq_6silent4grpc7serviceINtB4_11GrpcServiceNtNtNtB6_7handler5tests18MockGreeterServiceEINtNtNtCsj0zAge8ySK0_5hyper7service7service7ServiceINtNtCs9xQqEOIPLdx_4http7request7RequestNtNtNtB1O_4body8incoming8IncomingEE4callB8_
FN:52,_RNvXs_NtNtCs7wZ7Ymcehhq_6silent4grpc7serviceINtB4_11GrpcServiceNtNtNtB6_8register5tests15MockUserServiceEINtNtNtCsj0zAge8ySK0_5hyper7service7service7ServiceINtNtCs9xQqEOIPLdx_4http7request7RequestNtNtNtB1M_4body8incoming8IncomingEE4callB8_
FN:52,_RNvXs_NtNtCs7wZ7Ymcehhq_6silent4grpc7serviceINtB4_11GrpcServiceNtNtNtB6_8register5tests18MockGreeterServiceEINtNtNtCsj0zAge8ySK0_5hyper7service7service7ServiceINtNtCs9xQqEOIPLdx_4http7request7RequestNtNtNtB1P_4body8incoming8IncomingEE4callB8_
FN:108,_RINvNvNtNtNtCs7wZ7Ymcehhq_6silent4grpc7service5testss_27test_grpc_service_send_sync16assert_send_syncINtB6_11GrpcServiceNtB4_11MockServiceEEBa_
FN:258,_RINvNvNtNtNtCs7wZ7Ymcehhq_6silent4grpc7service5testss_41test_grpc_service_body_type_compatibility18assert_body_traitsNtNtCs3EjIX9pnHVr_5tonic4body4BodyEBa_
FN:290,_RNCNCNvNtNtNtCs7wZ7Ymcehhq_6silent4grpc7service5testss_43test_grpc_service_concurrent_handler_access00Bb_
FN:266,_RNCNvNtNtNtCs7wZ7Ymcehhq_6silent4grpc7service5testss_30test_grpc_service_handler_lock0B9_
FN:283,_RNCNvNtNtNtCs7wZ7Ymcehhq_6silent4grpc7service5testss_43test_grpc_service_concurrent_handler_access0B9_
FN:144,_RNvMNtNtNtCs7wZ7Ymcehhq_6silent4grpc7service5testsNtB2_11MockService3new
FN:78,_RNvNtNtNtCs7wZ7Ymcehhq_6silent4grpc7service5testss_21test_grpc_service_new
FN:123,_RNvNtNtNtCs7wZ7Ymcehhq_6silent4grpc7service5testss_22test_grpc_service_size
FN:89,_RNvNtNtNtCs7wZ7Ymcehhq_6silent4grpc7service5testss_23test_grpc_service_clone
FN:106,_RNvNtNtNtCs7wZ7Ymcehhq_6silent4grpc7service5testss_27test_grpc_service_send_sync
FN:306,_RNvNtNtNtCs7wZ7Ymcehhq_6silent4grpc7service5testss_29test_grpc_service_arc_sharing
FN:113,_RNvNtNtNtCs7wZ7Ymcehhq_6silent4grpc7service5testss_29test_grpc_service_clone_trait
FN:263,_RNvNtNtNtCs7wZ7Ymcehhq_6silent4grpc7service5testss_30test_grpc_service_handler_lock
FN:224,_RNvNtNtNtCs7wZ7Ymcehhq_6silent4grpc7service5testss_36test_grpc_service_request_from_parts
FN:243,_RNvNtNtNtCs7wZ7Ymcehhq_6silent4grpc7service5testss_37test_grpc_service_response_body_empty
FN:253,_RNvNtNtNtCs7wZ7Ymcehhq_6silent4grpc7service5testss_41test_grpc_service_body_type_compatibility
FN:203,_RNvNtNtNtCs7wZ7Ymcehhq_6silent4grpc7service5testss_42test_grpc_service_request_parts_extraction
FN:280,_RNvNtNtNtCs7wZ7Ymcehhq_6silent4grpc7service5testss_43test_grpc_service_concurrent_handler_access
FN:185,_RNvNtNtNtCs7wZ7Ymcehhq_6silent4grpc7service5testss_44test_grpc_service_request_to_body_conversion
FNDA:0,_RNCNCNvXININtNtCs9iG4RRqsTsR_6silent4grpc7services_0pEINtB9_11GrpcServicepEINtNtNtCsj0zAge8ySK0_5hyper7service7service7ServiceINtNtCs9xQqEOIPLdx_4http7request7RequestNtNtNtB1i_4body8incoming8IncomingEE4call00Bd_
FNDA:0,_RNCNvXININtNtCs9iG4RRqsTsR_6silent4grpc7services_0pEINtB7_11GrpcServicepEINtNtNtCsj0zAge8ySK0_5hyper7service7service7ServiceINtNtCs9xQqEOIPLdx_4http7request7RequestNtNtNtB1g_4body8incoming8IncomingEE4call0Bb_
FNDA:0,_RNvMNtNtCs9iG4RRqsTsR_6silent4grpc7serviceINtB2_11GrpcServicepE3newB6_
FNDA:0,_RNvXININtNtCs9iG4RRqsTsR_6silent4grpc7services_0pEINtB5_11GrpcServicepEINtNtNtCsj0zAge8ySK0_5hyper7service7service7ServiceINtNtCs9xQqEOIPLdx_4http7request7RequestNtNtNtB1e_4body8incoming8IncomingEE4callB9_
FNDA:0,_RNCNvXs_NtNtNtCs7wZ7Ymcehhq_6silent4grpc7service5testsNtB6_11MockServiceINtCsiBw7QhC7r6y_13tower_service7ServiceINtNtCs9xQqEOIPLdx_4http7request7RequestNtNtCs3EjIX9pnHVr_5tonic4body4BodyEE4call0Bc_
FNDA:0,_RNvXs0_NtNtNtCs7wZ7Ymcehhq_6silent4grpc7service5testsNtB5_9MockErrorNtNtCsiMcf32LsBml_4core3fmt7Display3fmt
FNDA:0,_RNvXs_NtNtNtCs7wZ7Ymcehhq_6silent4grpc7service5testsNtB4_11MockServiceINtCsiBw7QhC7r6y_13tower_service7ServiceINtNtCs9xQqEOIPLdx_4http7request7RequestNtNtCs3EjIX9pnHVr_5tonic4body4BodyEE10poll_ready
FNDA:0,_RNvXs_NtNtNtCs7wZ7Ymcehhq_6silent4grpc7service5testsNtB4_11MockServiceINtCsiBw7QhC7r6y_13tower_service7ServiceINtNtCs9xQqEOIPLdx_4http7request7RequestNtNtCs3EjIX9pnHVr_5tonic4body4BodyEE4call
FNDA:0,_RNCNCNvXs_NtNtCs7wZ7Ymcehhq_6silent4grpc7serviceINtB8_11GrpcServiceNtNtNtBa_7handler5tests16MockErrorServiceEINtNtNtCsj0zAge8ySK0_5hyper7service7service7ServiceINtNtCs9xQqEOIPLdx_4http7request7RequestNtNtNtB1Q_4body8incoming8IncomingEE4call00Bc_
FNDA:0,_RNCNCNvXs_NtNtCs7wZ7Ymcehhq_6silent4grpc7serviceINtB8_11GrpcServiceNtNtNtBa_7handler5tests18MockGreeterServiceEINtNtNtCsj0zAge8ySK0_5hyper7service7service7ServiceINtNtCs9xQqEOIPLdx_4http7request7RequestNtNtNtB1S_4body8incoming8IncomingEE4call00Bc_
FNDA:0,_RNCNCNvXs_NtNtCs7wZ7Ymcehhq_6silent4grpc7serviceINtB8_11GrpcServiceNtNtNtBa_8register5tests15MockUserServiceEINtNtNtCsj0zAge8ySK0_5hyper7service7service7ServiceINtNtCs9xQqEOIPLdx_4http7request7RequestNtNtNtB1Q_4body8incoming8IncomingEE4call00Bc_
FNDA:0,_RNCNCNvXs_NtNtCs7wZ7Ymcehhq_6silent4grpc7serviceINtB8_11GrpcServiceNtNtNtBa_8register5tests18MockGreeterServiceEINtNtNtCsj0zAge8ySK0_5hyper7service7service7ServiceINtNtCs9xQqEOIPLdx_4http7request7RequestNtNtNtB1T_4body8incoming8IncomingEE4call00Bc_
FNDA:0,_RNCNvXs_NtNtCs7wZ7Ymcehhq_6silent4grpc7serviceINtB6_11GrpcServiceNtNtNtB8_7handler5tests16MockErrorServiceEINtNtNtCsj0zAge8ySK0_5hyper7service7service7ServiceINtNtCs9xQqEOIPLdx_4http7request7RequestNtNtNtB1O_4body8incoming8IncomingEE4call0Ba_
FNDA:0,_RNCNvXs_NtNtCs7wZ7Ymcehhq_6silent4grpc7serviceINtB6_11GrpcServiceNtNtNtB8_7handler5tests18MockGreeterServiceEINtNtNtCsj0zAge8ySK0_5hyper7service7service7ServiceINtNtCs9xQqEOIPLdx_4http7request7RequestNtNtNtB1Q_4body8incoming8IncomingEE4call0Ba_
FNDA:0,_RNCNvXs_NtNtCs7wZ7Ymcehhq_6silent4grpc7serviceINtB6_11GrpcServiceNtNtNtB8_8register5tests15MockUserServiceEINtNtNtCsj0zAge8ySK0_5hyper7service7service7ServiceINtNtCs9xQqEOIPLdx_4http7request7RequestNtNtNtB1O_4body8incoming8IncomingEE4call0Ba_
FNDA:0,_RNCNvXs_NtNtCs7wZ7Ymcehhq_6silent4grpc7serviceINtB6_11GrpcServiceNtNtNtB8_8register5tests18MockGreeterServiceEINtNtNtCsj0zAge8ySK0_5hyper7service7service7ServiceINtNtCs9xQqEOIPLdx_4http7request7RequestNtNtNtB1R_4body8incoming8IncomingEE4call0Ba_
FNDA:6,_RNvMNtNtCs7wZ7Ymcehhq_6silent4grpc7serviceINtB2_11GrpcServiceNtNtB2_5tests11MockServiceE3newB6_
FNDA:0,_RNvMNtNtCs7wZ7Ymcehhq_6silent4grpc7serviceINtB2_11GrpcServiceNtNtNtB4_7handler5tests16MockErrorServiceE3newB6_
FNDA:0,_RNvMNtNtCs7wZ7Ymcehhq_6silent4grpc7serviceINtB2_11GrpcServiceNtNtNtB4_7handler5tests18MockGreeterServiceE3newB6_
FNDA:0,_RNvMNtNtCs7wZ7Ymcehhq_6silent4grpc7serviceINtB2_11GrpcServiceNtNtNtB4_8register5tests15MockUserServiceE3newB6_
FNDA:0,_RNvMNtNtCs7wZ7Ymcehhq_6silent4grpc7serviceINtB2_11GrpcServiceNtNtNtB4_8register5tests18MockGreeterServiceE3newB6_
FNDA:0,_RNvXs_NtNtCs7wZ7Ymcehhq_6silent4grpc7serviceINtB4_11GrpcServiceNtNtNtB6_7handler5tests16MockErrorServiceEINtNtNtCsj0zAge8ySK0_5hyper7service7service7ServiceINtNtCs9xQqEOIPLdx_4http7request7RequestNtNtNtB1M_4body8incoming8IncomingEE4callB8_
FNDA:0,_RNvXs_NtNtCs7wZ7Ymcehhq_6silent4grpc7serviceINtB4_11GrpcServiceNtNtNtB6_7handler5tests18MockGreeterServiceEINtNtNtCsj0zAge8ySK0_5hyper7service7service7ServiceINtNtCs9xQqEOIPLdx_4http7request7RequestNtNtNtB1O_4body8incoming8IncomingEE4callB8_
FNDA:0,_RNvXs_NtNtCs7wZ7Ymcehhq_6silent4grpc7serviceINtB4_11GrpcServiceNtNtNtB6_8register5tests15MockUserServiceEINtNtNtCsj0zAge8ySK0_5hyper7service7service7ServiceINtNtCs9xQqEOIPLdx_4http7request7RequestNtNtNtB1M_4body8incoming8IncomingEE4callB8_
FNDA:0,_RNvXs_NtNtCs7wZ7Ymcehhq_6silent4grpc7serviceINtB4_11GrpcServiceNtNtNtB6_8register5tests18MockGreeterServiceEINtNtNtCsj0zAge8ySK0_5hyper7service7service7ServiceINtNtCs9xQqEOIPLdx_4http7request7RequestNtNtNtB1P_4body8incoming8IncomingEE4callB8_
FNDA:1,_RINvNvNtNtNtCs7wZ7Ymcehhq_6silent4grpc7service5testss_27test_grpc_service_send_sync16assert_send_syncINtB6_11GrpcServiceNtB4_11MockServiceEEBa_
FNDA:1,_RINvNvNtNtNtCs7wZ7Ymcehhq_6silent4grpc7service5testss_41test_grpc_service_body_type_compatibility18assert_body_traitsNtNtCs3EjIX9pnHVr_5tonic4body4BodyEBa_
FNDA:10,_RNCNCNvNtNtNtCs7wZ7Ymcehhq_6silent4grpc7service5testss_43test_grpc_service_concurrent_handler_access00Bb_
FNDA:1,_RNCNvNtNtNtCs7wZ7Ymcehhq_6silent4grpc7service5testss_30test_grpc_service_handler_lock0B9_
FNDA:1,_RNCNvNtNtNtCs7wZ7Ymcehhq_6silent4grpc7service5testss_43test_grpc_service_concurrent_handler_access0B9_
FNDA:7,_RNvMNtNtNtCs7wZ7Ymcehhq_6silent4grpc7service5testsNtB2_11MockService3new
FNDA:1,_RNvNtNtNtCs7wZ7Ymcehhq_6silent4grpc7service5testss_21test_grpc_service_new
FNDA:1,_RNvNtNtNtCs7wZ7Ymcehhq_6silent4grpc7service5testss_22test_grpc_service_size
FNDA:1,_RNvNtNtNtCs7wZ7Ymcehhq_6silent4grpc7service5testss_23test_grpc_service_clone
FNDA:1,_RNvNtNtNtCs7wZ7Ymcehhq_6silent4grpc7service5testss_27test_grpc_service_send_sync
FNDA:1,_RNvNtNtNtCs7wZ7Ymcehhq_6silent4grpc7service5testss_29test_grpc_service_arc_sharing
FNDA:1,_RNvNtNtNtCs7wZ7Ymcehhq_6silent4grpc7service5testss_29test_grpc_service_clone_trait
FNDA:1,_RNvNtNtNtCs7wZ7Ymcehhq_6silent4grpc7service5testss_30test_grpc_service_handler_lock
FNDA:1,_RNvNtNtNtCs7wZ7Ymcehhq_6silent4grpc7service5testss_36test_grpc_service_request_from_parts
FNDA:1,_RNvNtNtNtCs7wZ7Ymcehhq_6silent4grpc7service5testss_37test_grpc_service_response_body_empty
FNDA:1,_RNvNtNtNtCs7wZ7Ymcehhq_6silent4grpc7service5testss_41test_grpc_service_body_type_compatibility
FNDA:1,_RNvNtNtNtCs7wZ7Ymcehhq_6silent4grpc7service5testss_42test_grpc_service_request_parts_extraction
FNDA:1,_RNvNtNtNtCs7wZ7Ymcehhq_6silent4grpc7service5testss_43test_grpc_service_concurrent_handler_access
FNDA:1,_RNvNtNtNtCs7wZ7Ymcehhq_6silent4grpc7service5testss_44test_grpc_service_request_to_body_conversion
FNF:27
FNH:20
DA:34,6
DA:35,6
DA:36,6
DA:52,0
DA:53,0
DA:54,0
DA:55,0
DA:56,0
DA:57,0
DA:58,0
DA:59,0
DA:60,0
DA:61,0
DA:62,0
DA:63,0
DA:64,0
DA:65,0
DA:66,0
DA:67,0
DA:68,0
DA:78,1
DA:79,1
DA:80,1
DA:81,1
DA:85,1
DA:86,1
DA:89,1
DA:90,1
DA:91,1
DA:92,1
DA:93,1
DA:96,1
DA:97,1
DA:98,1
DA:100,1
DA:101,1
DA:106,1
DA:108,1
DA:109,1
DA:110,1
DA:113,1
DA:115,1
DA:116,1
DA:117,1
DA:119,1
DA:120,1
DA:123,1
DA:125,1
DA:126,1
DA:127,1
DA:130,1
DA:131,1
DA:134,1
DA:144,7
DA:145,7
DA:146,7
DA:154,0
DA:155,0
DA:156,0
DA:157,0
DA:158,0
DA:159,0
DA:161,0
DA:162,0
DA:163,0
DA:164,0
DA:165,0
DA:166,0
DA:167,0
DA:168,0
DA:175,0
DA:176,0
DA:177,0
DA:185,1
DA:191,1
DA:192,1
DA:193,1
DA:194,1
DA:195,1
DA:198,1
DA:199,1
DA:200,1
DA:203,1
DA:205,1
DA:206,1
DA:207,1
DA:208,1
DA:209,1
DA:210,1
DA:212,1
DA:215,1
DA:216,1
DA:217,1
DA:218,1
DA:221,1
DA:224,1
DA:228,1
DA:229,1
DA:230,1
DA:231,1
DA:232,1
DA:233,1
DA:236,1
DA:238,1
DA:239,1
DA:240,1
DA:243,1
DA:248,1
DA:250,1
DA:253,1
DA:258,1
DA:259,1
DA:260,1
DA:263,1
DA:265,1
DA:266,1
DA:267,1
DA:268,1
DA:271,1
DA:272,1
DA:275,1
DA:276,1
DA:277,1
DA:280,1
DA:282,1
DA:283,1
DA:284,1
DA:285,1
DA:287,1
DA:288,1
DA:289,10
DA:290,10
DA:291,10
DA:294,10
DA:295,10
DA:299,10
DA:300,10
DA:302,1
DA:303,1
DA:306,1
DA:308,1
DA:309,1
DA:310,1
DA:311,1
DA:315,1
DA:316,1
DA:317,1
BRF:0
BRH:0
LF:153
LH:116
end_of_record
SF:/Users/hubertshelley/Documents/silent/silent/silent/src/grpc/utils.rs
FN:10,_RNvNtNtCs9iG4RRqsTsR_6silent4grpc5utils19merge_grpc_responseB5_
FN:23,_RNCNCNvNtNtCs9iG4RRqsTsR_6silent4grpc5utils19merge_grpc_response00B9_
FN:10,_RNCNvNtNtCs9iG4RRqsTsR_6silent4grpc5utils19merge_grpc_response0B7_
FN:10,_RNvNtNtCs7wZ7Ymcehhq_6silent4grpc5utils19merge_grpc_responseB5_
FN:34,_RNvNtNtNtCs7wZ7Ymcehhq_6silent4grpc5utils5testss_30test_merge_grpc_response_basic
FN:182,_RNvNtNtNtCs7wZ7Ymcehhq_6silent4grpc5utils5testss_31test_merge_grpc_response_http_2
FN:197,_RNvNtNtNtCs7wZ7Ymcehhq_6silent4grpc5utils5testss_32test_merge_grpc_response_http_11
FN:48,_RNvNtNtNtCs7wZ7Ymcehhq_6silent4grpc5utils5testss_34test_merge_grpc_response_with_body
FN:63,_RNvNtNtNtCs7wZ7Ymcehhq_6silent4grpc5utils5testss_35test_merge_grpc_response_empty_body
FN:299,_RNvNtNtNtCs7wZ7Ymcehhq_6silent4grpc5utils5testss_35test_merge_grpc_response_no_headers
FN:79,_RNvNtNtNtCs7wZ7Ymcehhq_6silent4grpc5utils5testss_35test_merge_grpc_response_status_200
FN:93,_RNvNtNtNtCs7wZ7Ymcehhq_6silent4grpc5utils5testss_35test_merge_grpc_response_status_404
FN:107,_RNvNtNtNtCs7wZ7Ymcehhq_6silent4grpc5utils5testss_35test_merge_grpc_response_status_500
FN:123,_RNvNtNtNtCs7wZ7Ymcehhq_6silent4grpc5utils5testss_37test_merge_grpc_response_with_headers
FN:272,_RNvNtNtNtCs7wZ7Ymcehhq_6silent4grpc5utils5testss_38test_merge_grpc_response_full_response
FN:314,_RNvNtNtNtCs7wZ7Ymcehhq_6silent4grpc5utils5testss_38test_merge_grpc_response_no_extensions
FN:255,_RNvNtNtNtCs7wZ7Ymcehhq_6silent4grpc5utils5testss_39test_merge_grpc_response_body_is_stream
FN:140,_RNvNtNtNtCs7wZ7Ymcehhq_6silent4grpc5utils5testss_39test_merge_grpc_response_headers_extend
FN:214,_RNvNtNtNtCs7wZ7Ymcehhq_6silent4grpc5utils5testss_40test_merge_grpc_response_with_extensions
FN:159,_RNvNtNtNtCs7wZ7Ymcehhq_6silent4grpc5utils5testss_41test_merge_grpc_response_multiple_headers
FN:233,_RNvNtNtNtCs7wZ7Ymcehhq_6silent4grpc5utils5testss_42test_merge_grpc_response_extensions_extend
FN:329,_RNvNtNtNtCs7wZ7Ymcehhq_6silent4grpc5utils5testss_48test_merge_grpc_response_preserves_existing_data
FN:34,_RNCNvNtNtNtCs7wZ7Ymcehhq_6silent4grpc5utils5testss_30test_merge_grpc_response_basic0B9_
FN:182,_RNCNvNtNtNtCs7wZ7Ymcehhq_6silent4grpc5utils5testss_31test_merge_grpc_response_http_20B9_
FN:197,_RNCNvNtNtNtCs7wZ7Ymcehhq_6silent4grpc5utils5testss_32test_merge_grpc_response_http_110B9_
FN:48,_RNCNvNtNtNtCs7wZ7Ymcehhq_6silent4grpc5utils5testss_34test_merge_grpc_response_with_body0B9_
FN:63,_RNCNvNtNtNtCs7wZ7Ymcehhq_6silent4grpc5utils5testss_35test_merge_grpc_response_empty_body0B9_
FN:299,_RNCNvNtNtNtCs7wZ7Ymcehhq_6silent4grpc5utils5testss_35test_merge_grpc_response_no_headers0B9_
FN:79,_RNCNvNtNtNtCs7wZ7Ymcehhq_6silent4grpc5utils5testss_35test_merge_grpc_response_status_2000B9_
FN:93,_RNCNvNtNtNtCs7wZ7Ymcehhq_6silent4grpc5utils5testss_35test_merge_grpc_response_status_4040B9_
FN:107,_RNCNvNtNtNtCs7wZ7Ymcehhq_6silent4grpc5utils5testss_35test_merge_grpc_response_status_5000B9_
FN:123,_RNCNvNtNtNtCs7wZ7Ymcehhq_6silent4grpc5utils5testss_37test_merge_grpc_response_with_headers0B9_
FN:272,_RNCNvNtNtNtCs7wZ7Ymcehhq_6silent4grpc5utils5testss_38test_merge_grpc_response_full_response0B9_
FN:314,_RNCNvNtNtNtCs7wZ7Ymcehhq_6silent4grpc5utils5testss_38test_merge_grpc_response_no_extensions0B9_
FN:255,_RNCNvNtNtNtCs7wZ7Ymcehhq_6silent4grpc5utils5testss_39test_merge_grpc_response_body_is_stream0B9_
FN:140,_RNCNvNtNtNtCs7wZ7Ymcehhq_6silent4grpc5utils5testss_39test_merge_grpc_response_headers_extend0B9_
FN:214,_RNCNvNtNtNtCs7wZ7Ymcehhq_6silent4grpc5utils5testss_40test_merge_grpc_response_with_extensions0B9_
FN:159,_RNCNvNtNtNtCs7wZ7Ymcehhq_6silent4grpc5utils5testss_41test_merge_grpc_response_multiple_headers0B9_
FN:233,_RNCNvNtNtNtCs7wZ7Ymcehhq_6silent4grpc5utils5testss_42test_merge_grpc_response_extensions_extend0B9_
FN:329,_RNCNvNtNtNtCs7wZ7Ymcehhq_6silent4grpc5utils5testss_48test_merge_grpc_response_preserves_existing_data0B9_
FN:23,_RNCNCNvNtNtCs7wZ7Ymcehhq_6silent4grpc5utils19merge_grpc_response00B9_
FN:10,_RNCNvNtNtCs7wZ7Ymcehhq_6silent4grpc5utils19merge_grpc_response0B7_
FNDA:0,_RNvNtNtCs9iG4RRqsTsR_6silent4grpc5utils19merge_grpc_responseB5_
FNDA:0,_RNCNCNvNtNtCs9iG4RRqsTsR_6silent4grpc5utils19merge_grpc_response00B9_
FNDA:0,_RNCNvNtNtCs9iG4RRqsTsR_6silent4grpc5utils19merge_grpc_response0B7_
FNDA:34,_RNvNtNtCs7wZ7Ymcehhq_6silent4grpc5utils19merge_grpc_responseB5_
FNDA:1,_RNvNtNtNtCs7wZ7Ymcehhq_6silent4grpc5utils5testss_30test_merge_grpc_response_basic
FNDA:1,_RNvNtNtNtCs7wZ7Ymcehhq_6silent4grpc5utils5testss_31test_merge_grpc_response_http_2
FNDA:1,_RNvNtNtNtCs7wZ7Ymcehhq_6silent4grpc5utils5testss_32test_merge_grpc_response_http_11
FNDA:1,_RNvNtNtNtCs7wZ7Ymcehhq_6silent4grpc5utils5testss_34test_merge_grpc_response_with_body
FNDA:1,_RNvNtNtNtCs7wZ7Ymcehhq_6silent4grpc5utils5testss_35test_merge_grpc_response_empty_body
FNDA:1,_RNvNtNtNtCs7wZ7Ymcehhq_6silent4grpc5utils5testss_35test_merge_grpc_response_no_headers
FNDA:1,_RNvNtNtNtCs7wZ7Ymcehhq_6silent4grpc5utils5testss_35test_merge_grpc_response_status_200
FNDA:1,_RNvNtNtNtCs7wZ7Ymcehhq_6silent4grpc5utils5testss_35test_merge_grpc_response_status_404
FNDA:1,_RNvNtNtNtCs7wZ7Ymcehhq_6silent4grpc5utils5testss_35test_merge_grpc_response_status_500
FNDA:1,_RNvNtNtNtCs7wZ7Ymcehhq_6silent4grpc5utils5testss_37test_merge_grpc_response_with_headers
FNDA:1,_RNvNtNtNtCs7wZ7Ymcehhq_6silent4grpc5utils5testss_38test_merge_grpc_response_full_response
FNDA:1,_RNvNtNtNtCs7wZ7Ymcehhq_6silent4grpc5utils5testss_38test_merge_grpc_response_no_extensions
FNDA:1,_RNvNtNtNtCs7wZ7Ymcehhq_6silent4grpc5utils5testss_39test_merge_grpc_response_body_is_stream
FNDA:1,_RNvNtNtNtCs7wZ7Ymcehhq_6silent4grpc5utils5testss_39test_merge_grpc_response_headers_extend
FNDA:1,_RNvNtNtNtCs7wZ7Ymcehhq_6silent4grpc5utils5testss_40test_merge_grpc_response_with_extensions
FNDA:1,_RNvNtNtNtCs7wZ7Ymcehhq_6silent4grpc5utils5testss_41test_merge_grpc_response_multiple_headers
FNDA:1,_RNvNtNtNtCs7wZ7Ymcehhq_6silent4grpc5utils5testss_42test_merge_grpc_response_extensions_extend
FNDA:1,_RNvNtNtNtCs7wZ7Ymcehhq_6silent4grpc5utils5testss_48test_merge_grpc_response_preserves_existing_data
FNDA:1,_RNCNvNtNtNtCs7wZ7Ymcehhq_6silent4grpc5utils5testss_30test_merge_grpc_response_basic0B9_
FNDA:1,_RNCNvNtNtNtCs7wZ7Ymcehhq_6silent4grpc5utils5testss_31test_merge_grpc_response_http_20B9_
FNDA:1,_RNCNvNtNtNtCs7wZ7Ymcehhq_6silent4grpc5utils5testss_32test_merge_grpc_response_http_110B9_
FNDA:1,_RNCNvNtNtNtCs7wZ7Ymcehhq_6silent4grpc5utils5testss_34test_merge_grpc_response_with_body0B9_
FNDA:1,_RNCNvNtNtNtCs7wZ7Ymcehhq_6silent4grpc5utils5testss_35test_merge_grpc_response_empty_body0B9_
FNDA:1,_RNCNvNtNtNtCs7wZ7Ymcehhq_6silent4grpc5utils5testss_35test_merge_grpc_response_no_headers0B9_
FNDA:1,_RNCNvNtNtNtCs7wZ7Ymcehhq_6silent4grpc5utils5testss_35test_merge_grpc_response_status_2000B9_
FNDA:1,_RNCNvNtNtNtCs7wZ7Ymcehhq_6silent4grpc5utils5testss_35test_merge_grpc_response_status_4040B9_
FNDA:1,_RNCNvNtNtNtCs7wZ7Ymcehhq_6silent4grpc5utils5testss_35test_merge_grpc_response_status_5000B9_
FNDA:1,_RNCNvNtNtNtCs7wZ7Ymcehhq_6silent4grpc5utils5testss_37test_merge_grpc_response_with_headers0B9_
FNDA:1,_RNCNvNtNtNtCs7wZ7Ymcehhq_6silent4grpc5utils5testss_38test_merge_grpc_response_full_response0B9_
FNDA:1,_RNCNvNtNtNtCs7wZ7Ymcehhq_6silent4grpc5utils5testss_38test_merge_grpc_response_no_extensions0B9_
FNDA:1,_RNCNvNtNtNtCs7wZ7Ymcehhq_6silent4grpc5utils5testss_39test_merge_grpc_response_body_is_stream0B9_
FNDA:1,_RNCNvNtNtNtCs7wZ7Ymcehhq_6silent4grpc5utils5testss_39test_merge_grpc_response_headers_extend0B9_
FNDA:1,_RNCNvNtNtNtCs7wZ7Ymcehhq_6silent4grpc5utils5testss_40test_merge_grpc_response_with_extensions0B9_
FNDA:1,_RNCNvNtNtNtCs7wZ7Ymcehhq_6silent4grpc5utils5testss_41test_merge_grpc_response_multiple_headers0B9_
FNDA:1,_RNCNvNtNtNtCs7wZ7Ymcehhq_6silent4grpc5utils5testss_42test_merge_grpc_response_extensions_extend0B9_
FNDA:1,_RNCNvNtNtNtCs7wZ7Ymcehhq_6silent4grpc5utils5testss_48test_merge_grpc_response_preserves_existing_data0B9_
FNDA:0,_RNCNCNvNtNtCs7wZ7Ymcehhq_6silent4grpc5utils19merge_grpc_response00B9_
FNDA:34,_RNCNvNtNtCs7wZ7Ymcehhq_6silent4grpc5utils19merge_grpc_response0B7_
FNF:39
FNH:38
DA:10,34
DA:11,34
DA:13,34
DA:14,34
DA:15,34
DA:16,34
DA:18,34
DA:19,34
DA:20,34
DA:21,34
DA:22,34
DA:23,34
DA:24,34
DA:34,1
DA:35,1
DA:36,1
DA:37,1
DA:38,1
DA:39,1
DA:40,1
DA:42,1
DA:44,1
DA:45,1
DA:48,1
DA:49,1
DA:50,1
DA:51,1
DA:52,1
DA:53,1
DA:54,1
DA:56,1
DA:59,1
DA:60,1
DA:63,1
DA:64,1
DA:65,1
DA:66,1
DA:67,1
DA:68,1
DA:69,1
DA:71,1
DA:73,1
DA:74,1
DA:79,1
DA:80,1
DA:81,1
DA:82,1
DA:83,1
DA:84,1
DA:85,1
DA:87,1
DA:89,1
DA:90,1
DA:93,1
DA:94,1
DA:95,1
DA:96,1
DA:97,1
DA:98,1
DA:99,1
DA:101,1
DA:103,1
DA:104,1
DA:107,1
DA:108,1
DA:109,1
DA:110,1
DA:111,1
DA:112,1
DA:113,1
DA:115,1
DA:117,1
DA:118,1
DA:123,1
DA:124,1
DA:125,1
DA:126,1
DA:127,1
DA:128,1
DA:129,1
DA:130,1
DA:131,1
DA:133,1
DA:135,1
DA:136,1
DA:137,1
DA:140,1
DA:141,1
DA:142,1
DA:143,1
DA:145,1
DA:146,1
DA:147,1
DA:148,1
DA:149,1
DA:150,1
DA:152,1
DA:154,1
DA:155,1
DA:156,1
DA:159,1
DA:160,1
DA:161,1
DA:162,1
DA:163,1
DA:164,1
DA:165,1
DA:166,1
DA:167,1
DA:168,1
DA:169,1
DA:171,1
DA:173,1
DA:174,1
DA:175,1
DA:176,1
DA:177,1
DA:182,1
DA:183,1
DA:184,1
DA:185,1
DA:186,1
DA:187,1
DA:188,1
DA:189,1
DA:191,1
DA:193,1
DA:194,1
DA:197,1
DA:198,1
DA:199,1
DA:200,1
DA:201,1
DA:202,1
DA:203,1
DA:204,1
DA:206,1
DA:208,1
DA:209,1
DA:214,1
DA:215,1
DA:216,1
DA:218,1
DA:219,1
DA:220,1
DA:221,1
DA:222,1
DA:224,1
DA:226,1
DA:227,1
DA:228,1
DA:229,1
DA:230,1
DA:233,1
DA:234,1
DA:235,1
DA:237,1
DA:238,1
DA:239,1
DA:240,1
DA:241,1
DA:242,1
DA:244,1
DA:247,1
DA:249,1
DA:250,1
DA:255,1
DA:256,1
DA:257,1
DA:258,1
DA:259,1
DA:260,1
DA:261,1
DA:263,1
DA:266,1
DA:267,1
DA:272,1
DA:273,1
DA:274,1
DA:276,1
DA:277,1
DA:278,1
DA:279,1
DA:280,1
DA:281,1
DA:282,1
DA:283,1
DA:284,1
DA:286,1
DA:288,1
DA:289,1
DA:290,1
DA:291,1
DA:292,1
DA:293,1
DA:294,1
DA:299,1
DA:300,1
DA:301,1
DA:302,1
DA:303,1
DA:304,1
DA:305,1
DA:307,1
DA:310,1
DA:311,1
DA:314,1
DA:315,1
DA:316,1
DA:317,1
DA:318,1
DA:319,1
DA:320,1
DA:322,1
DA:325,1
DA:326,1
DA:329,1
DA:330,1
DA:331,1
DA:332,1
DA:333,1
DA:335,1
DA:336,1
DA:337,1
DA:338,1
DA:339,1
DA:341,1
DA:344,1
DA:345,1
DA:346,1
BRF:0
BRH:0
LF:269
LH:268
end_of_record
SF:/Users/hubertshelley/Documents/silent/silent/silent/src/handler/handler_fn.rs
FN:17,_RNvMNtNtCs9iG4RRqsTsR_6silent7handler10handler_fnINtB2_9HandlerFnpE3arcB6_
FN:13,_RNvMNtNtCs9iG4RRqsTsR_6silent7handler10handler_fnINtB2_9HandlerFnpE3newB6_
FN:28,_RNvXININtNtCs9iG4RRqsTsR_6silent7handler10handler_fns_0ppEINtB5_9HandlerFnpENtNtB7_13handler_trait7Handler4callB9_
FN:63,_RNCNCNvNtNtNtCs7wZ7Ymcehhq_6silent7handler10handler_fn5testss_19test_handler_fn_arc00Bb_
FN:42,_RNCNCNvNtNtNtCs7wZ7Ymcehhq_6silent7handler10handler_fn5testss_19test_handler_fn_new00Bb_
FN:223,_RNCNCNvNtNtNtCs7wZ7Ymcehhq_6silent7handler10handler_fn5testss_22test_handler_fn_static00Bb_
FN:50,_RNCNCNvNtNtNtCs7wZ7Ymcehhq_6silent7handler10handler_fn5testss_23test_handler_fn_closure00Bb_
FN:51,_RNCNCNvNtNtNtCs7wZ7Ymcehhq_6silent7handler10handler_fn5testss_23test_handler_fn_closures_00Bb_
FN:72,_RNCNCNvNtNtNtCs7wZ7Ymcehhq_6silent7handler10handler_fn5testss_25test_handler_fn_arc_clone00Bb_
FN:81,_RNCNCNvNtNtNtCs7wZ7Ymcehhq_6silent7handler10handler_fn5testss_26test_handler_fn_arc_shared00Bb_
FN:63,_RNCNvNtNtNtCs7wZ7Ymcehhq_6silent7handler10handler_fn5testss_19test_handler_fn_arc0B9_
FN:42,_RNCNvNtNtNtCs7wZ7Ymcehhq_6silent7handler10handler_fn5testss_19test_handler_fn_new0B9_
FN:223,_RNCNvNtNtNtCs7wZ7Ymcehhq_6silent7handler10handler_fn5testss_22test_handler_fn_static0B9_
FN:50,_RNCNvNtNtNtCs7wZ7Ymcehhq_6silent7handler10handler_fn5testss_23test_handler_fn_closure0B9_
FN:53,_RNCNvNtNtNtCs7wZ7Ymcehhq_6silent7handler10handler_fn5testss_23test_handler_fn_closures_0B9_
FN:72,_RNCNvNtNtNtCs7wZ7Ymcehhq_6silent7handler10handler_fn5testss_25test_handler_fn_arc_clone0B9_
FN:81,_RNCNvNtNtNtCs7wZ7Ymcehhq_6silent7handler10handler_fn5testss_26test_handler_fn_arc_shared0B9_
FN:62,_RNvNtNtNtCs7wZ7Ymcehhq_6silent7handler10handler_fn5testss_19test_handler_fn_arc
FN:41,_RNvNtNtNtCs7wZ7Ymcehhq_6silent7handler10handler_fn5testss_19test_handler_fn_new
FN:220,_RNvNtNtNtCs7wZ7Ymcehhq_6silent7handler10handler_fn5testss_22test_handler_fn_static
FN:48,_RNvNtNtNtCs7wZ7Ymcehhq_6silent7handler10handler_fn5testss_23test_handler_fn_closure
FN:163,_RNvNtNtNtCs7wZ7Ymcehhq_6silent7handler10handler_fn5testss_24test_handler_fn_call_arc
FN:71,_RNvNtNtNtCs7wZ7Ymcehhq_6silent7handler10handler_fn5testss_25test_handler_fn_arc_clone
FN:124,_RNvNtNtNtCs7wZ7Ymcehhq_6silent7handler10handler_fn5testss_25test_handler_fn_call_html
FN:111,_RNvNtNtNtCs7wZ7Ymcehhq_6silent7handler10handler_fn5testss_25test_handler_fn_call_json
FN:100,_RNvNtNtNtCs7wZ7Ymcehhq_6silent7handler10handler_fn5testss_25test_handler_fn_call_text
FN:213,_RNvNtNtNtCs7wZ7Ymcehhq_6silent7handler10handler_fn5testss_25test_handler_fn_send_sync
FN:80,_RNvNtNtNtCs7wZ7Ymcehhq_6silent7handler10handler_fn5testss_26test_handler_fn_arc_shared
FN:135,_RNvNtNtNtCs7wZ7Ymcehhq_6silent7handler10handler_fn5testss_26test_handler_fn_call_empty
FN:177,_RNvNtNtNtCs7wZ7Ymcehhq_6silent7handler10handler_fn5testss_27test_handler_fn_async_delay
FN:231,_RNvNtNtNtCs7wZ7Ymcehhq_6silent7handler10handler_fn5testss_27test_handler_fn_return_type
FN:305,_RNvNtNtNtCs7wZ7Ymcehhq_6silent7handler10handler_fn5testss_30test_handler_fn_empty_response
FN:321,_RNvNtNtNtCs7wZ7Ymcehhq_6silent7handler10handler_fn5testss_30test_handler_fn_large_response
FN:378,_RNvNtNtNtCs7wZ7Ymcehhq_6silent7handler10handler_fn5testss_30test_handler_fn_no_memory_leak
FN:190,_RNvNtNtNtCs7wZ7Ymcehhq_6silent7handler10handler_fn5testss_32test_handler_fn_concurrent_calls
FN:334,_RNvNtNtNtCs7wZ7Ymcehhq_6silent7handler10handler_fn5testss_32test_handler_fn_unicode_response
FN:344,_RNvNtNtNtCs7wZ7Ymcehhq_6silent7handler10handler_fn5testss_33test_handler_fn_different_methods
FN:243,_RNvNtNtNtCs7wZ7Ymcehhq_6silent7handler10handler_fn5testss_33test_handler_fn_error_propagation
FN:285,_RNvNtNtNtCs7wZ7Ymcehhq_6silent7handler10handler_fn5testss_33test_handler_fn_with_move_closure
FN:364,_RNvNtNtNtCs7wZ7Ymcehhq_6silent7handler10handler_fn5testss_34test_handler_fn_multiple_arc_calls
FN:146,_RNvNtNtNtCs7wZ7Ymcehhq_6silent7handler10handler_fn5testss_38test_handler_fn_call_with_request_data
FN:259,_RNvNtNtNtCs7wZ7Ymcehhq_6silent7handler10handler_fn5testss_38test_handler_fn_with_captured_variable
FN:215,_RINvNvNtNtNtCs7wZ7Ymcehhq_6silent7handler10handler_fn5testss_25test_handler_fn_send_sync16assert_send_syncINtB6_9HandlerFnFNtNtNtBa_4core7request7RequestEINtNtNtCsiMcf32LsBml_4core6future5ready5ReadyNtNtB21_8response8ResponseEEEBa_
FN:164,_RNCNCNCNvNtNtNtCs7wZ7Ymcehhq_6silent7handler10handler_fn5testss_24test_handler_fn_call_arc000Bd_
FN:125,_RNCNCNCNvNtNtNtCs7wZ7Ymcehhq_6silent7handler10handler_fn5testss_25test_handler_fn_call_html000Bd_
FN:112,_RNCNCNCNvNtNtNtCs7wZ7Ymcehhq_6silent7handler10handler_fn5testss_25test_handler_fn_call_json000Bd_
FN:101,_RNCNCNCNvNtNtNtCs7wZ7Ymcehhq_6silent7handler10handler_fn5testss_25test_handler_fn_call_text000Bd_
FN:136,_RNCNCNCNvNtNtNtCs7wZ7Ymcehhq_6silent7handler10handler_fn5testss_26test_handler_fn_call_empty000Bd_
FN:178,_RNCNCNCNvNtNtNtCs7wZ7Ymcehhq_6silent7handler10handler_fn5testss_27test_handler_fn_async_delay000Bd_
FN:232,_RNCNCNCNvNtNtNtCs7wZ7Ymcehhq_6silent7handler10handler_fn5testss_27test_handler_fn_return_type000Bd_
FN:306,_RNCNCNCNvNtNtNtCs7wZ7Ymcehhq_6silent7handler10handler_fn5testss_30test_handler_fn_empty_response000Bd_
FN:322,_RNCNCNCNvNtNtNtCs7wZ7Ymcehhq_6silent7handler10handler_fn5testss_30test_handler_fn_large_response000Bd_
FN:379,_RNCNCNCNvNtNtNtCs7wZ7Ymcehhq_6silent7handler10handler_fn5testss_30test_handler_fn_no_memory_leak000Bd_
FN:191,_RNCNCNCNvNtNtNtCs7wZ7Ymcehhq_6silent7handler10handler_fn5testss_32test_handler_fn_concurrent_calls000Bd_
FN:335,_RNCNCNCNvNtNtNtCs7wZ7Ymcehhq_6silent7handler10handler_fn5testss_32test_handler_fn_unicode_response000Bd_
FN:345,_RNCNCNCNvNtNtNtCs7wZ7Ymcehhq_6silent7handler10handler_fn5testss_33test_handler_fn_different_methods000Bd_
FN:244,_RNCNCNCNvNtNtNtCs7wZ7Ymcehhq_6silent7handler10handler_fn5testss_33test_handler_fn_error_propagation000Bd_
FN:290,_RNCNCNCNvNtNtNtCs7wZ7Ymcehhq_6silent7handler10handler_fn5testss_33test_handler_fn_with_move_closure000Bd_
FN:365,_RNCNCNCNvNtNtNtCs7wZ7Ymcehhq_6silent7handler10handler_fn5testss_34test_handler_fn_multiple_arc_calls000Bd_
FN:147,_RNCNCNCNvNtNtNtCs7wZ7Ymcehhq_6silent7handler10handler_fn5testss_38test_handler_fn_call_with_request_data000Bd_
FN:268,_RNCNCNCNvNtNtNtCs7wZ7Ymcehhq_6silent7handler10handler_fn5testss_38test_handler_fn_with_captured_variable000Bd_
FN:164,_RNCNCNvNtNtNtCs7wZ7Ymcehhq_6silent7handler10handler_fn5testss_24test_handler_fn_call_arc00Bb_
FN:125,_RNCNCNvNtNtNtCs7wZ7Ymcehhq_6silent7handler10handler_fn5testss_25test_handler_fn_call_html00Bb_
FN:114,_RNCNCNvNtNtNtCs7wZ7Ymcehhq_6silent7handler10handler_fn5testss_25test_handler_fn_call_json00Bb_
FN:101,_RNCNCNvNtNtNtCs7wZ7Ymcehhq_6silent7handler10handler_fn5testss_25test_handler_fn_call_text00Bb_
FN:136,_RNCNCNvNtNtNtCs7wZ7Ymcehhq_6silent7handler10handler_fn5testss_26test_handler_fn_call_empty00Bb_
FN:182,_RNCNCNvNtNtNtCs7wZ7Ymcehhq_6silent7handler10handler_fn5testss_27test_handler_fn_async_delay00Bb_
FN:232,_RNCNCNvNtNtNtCs7wZ7Ymcehhq_6silent7handler10handler_fn5testss_27test_handler_fn_return_type00Bb_
FN:310,_RNCNCNvNtNtNtCs7wZ7Ymcehhq_6silent7handler10handler_fn5testss_30test_handler_fn_empty_response00Bb_
FN:325,_RNCNCNvNtNtNtCs7wZ7Ymcehhq_6silent7handler10handler_fn5testss_30test_handler_fn_large_response00Bb_
FN:379,_RNCNCNvNtNtNtCs7wZ7Ymcehhq_6silent7handler10handler_fn5testss_30test_handler_fn_no_memory_leak00Bb_
FN:194,_RNCNCNvNtNtNtCs7wZ7Ymcehhq_6silent7handler10handler_fn5testss_32test_handler_fn_concurrent_calls00Bb_
FN:335,_RNCNCNvNtNtNtCs7wZ7Ymcehhq_6silent7handler10handler_fn5testss_32test_handler_fn_unicode_response00Bb_
FN:349,_RNCNCNvNtNtNtCs7wZ7Ymcehhq_6silent7handler10handler_fn5testss_33test_handler_fn_different_methods00Bb_
FN:247,_RNCNCNvNtNtNtCs7wZ7Ymcehhq_6silent7handler10handler_fn5testss_33test_handler_fn_error_propagation00Bb_
FN:288,_RNCNCNvNtNtNtCs7wZ7Ymcehhq_6silent7handler10handler_fn5testss_33test_handler_fn_with_move_closure00Bb_
FN:365,_RNCNCNvNtNtNtCs7wZ7Ymcehhq_6silent7handler10handler_fn5testss_34test_handler_fn_multiple_arc_calls00Bb_
FN:151,_RNCNCNvNtNtNtCs7wZ7Ymcehhq_6silent7handler10handler_fn5testss_38test_handler_fn_call_with_request_data00Bb_
FN:266,_RNCNCNvNtNtNtCs7wZ7Ymcehhq_6silent7handler10handler_fn5testss_38test_handler_fn_with_captured_variable00Bb_
FN:163,_RNCNvNtNtNtCs7wZ7Ymcehhq_6silent7handler10handler_fn5testss_24test_handler_fn_call_arc0B9_
FN:124,_RNCNvNtNtNtCs7wZ7Ymcehhq_6silent7handler10handler_fn5testss_25test_handler_fn_call_html0B9_
FN:111,_RNCNvNtNtNtCs7wZ7Ymcehhq_6silent7handler10handler_fn5testss_25test_handler_fn_call_json0B9_
FN:100,_RNCNvNtNtNtCs7wZ7Ymcehhq_6silent7handler10handler_fn5testss_25test_handler_fn_call_text0B9_
FN:135,_RNCNvNtNtNtCs7wZ7Ymcehhq_6silent7handler10handler_fn5testss_26test_handler_fn_call_empty0B9_
FN:177,_RNCNvNtNtNtCs7wZ7Ymcehhq_6silent7handler10handler_fn5testss_27test_handler_fn_async_delay0B9_
FN:231,_RNCNvNtNtNtCs7wZ7Ymcehhq_6silent7handler10handler_fn5testss_27test_handler_fn_return_type0B9_
FN:305,_RNCNvNtNtNtCs7wZ7Ymcehhq_6silent7handler10handler_fn5testss_30test_handler_fn_empty_response0B9_
FN:321,_RNCNvNtNtNtCs7wZ7Ymcehhq_6silent7handler10handler_fn5testss_30test_handler_fn_large_response0B9_
FN:378,_RNCNvNtNtNtCs7wZ7Ymcehhq_6silent7handler10handler_fn5testss_30test_handler_fn_no_memory_leak0B9_
FN:190,_RNCNvNtNtNtCs7wZ7Ymcehhq_6silent7handler10handler_fn5testss_32test_handler_fn_concurrent_calls0B9_
FN:334,_RNCNvNtNtNtCs7wZ7Ymcehhq_6silent7handler10handler_fn5testss_32test_handler_fn_unicode_response0B9_
FN:344,_RNCNvNtNtNtCs7wZ7Ymcehhq_6silent7handler10handler_fn5testss_33test_handler_fn_different_methods0B9_
FN:243,_RNCNvNtNtNtCs7wZ7Ymcehhq_6silent7handler10handler_fn5testss_33test_handler_fn_error_propagation0B9_
FN:285,_RNCNvNtNtNtCs7wZ7Ymcehhq_6silent7handler10handler_fn5testss_33test_handler_fn_with_move_closure0B9_
FN:364,_RNCNvNtNtNtCs7wZ7Ymcehhq_6silent7handler10handler_fn5testss_34test_handler_fn_multiple_arc_calls0B9_
FN:146,_RNCNvNtNtNtCs7wZ7Ymcehhq_6silent7handler10handler_fn5testss_38test_handler_fn_call_with_request_data0B9_
FN:259,_RNCNvNtNtNtCs7wZ7Ymcehhq_6silent7handler10handler_fn5testss_38test_handler_fn_with_captured_variable0B9_
FN:17,_RNvMNtNtCs7wZ7Ymcehhq_6silent7handler10handler_fnINtB2_9HandlerFnFNtNtNtB6_4core7request7RequestENCNCNvNtNtNtB6_5route14handler_append5testss_38test_into_handler_with_response_output00E3arcB6_
FN:13,_RNvMNtNtCs7wZ7Ymcehhq_6silent7handler10handler_fnINtB2_9HandlerFnFNtNtNtB6_4core7request7RequestENCNCNvNtNtNtB6_5route14handler_append5testss_38test_into_handler_with_response_output00E3newB6_
FN:17,_RNvMNtNtCs7wZ7Ymcehhq_6silent7handler10handler_fnINtB2_9HandlerFnNCNCNvNtB2_5testss_24test_handler_fn_call_arc00E3arcB6_
FN:13,_RNvMNtNtCs7wZ7Ymcehhq_6silent7handler10handler_fnINtB2_9HandlerFnNCNCNvNtB2_5testss_24test_handler_fn_call_arc00E3newB6_
FN:13,_RNvMNtNtCs7wZ7Ymcehhq_6silent7handler10handler_fnINtB2_9HandlerFnNCNCNvNtB2_5testss_25test_handler_fn_call_html00E3newB6_
FN:13,_RNvMNtNtCs7wZ7Ymcehhq_6silent7handler10handler_fnINtB2_9HandlerFnNCNCNvNtB2_5testss_25test_handler_fn_call_json00E3newB6_
FN:13,_RNvMNtNtCs7wZ7Ymcehhq_6silent7handler10handler_fnINtB2_9HandlerFnNCNCNvNtB2_5testss_25test_handler_fn_call_text00E3newB6_
FN:13,_RNvMNtNtCs7wZ7Ymcehhq_6silent7handler10handler_fnINtB2_9HandlerFnNCNCNvNtB2_5testss_26test_handler_fn_call_empty00E3newB6_
FN:13,_RNvMNtNtCs7wZ7Ymcehhq_6silent7handler10handler_fnINtB2_9HandlerFnNCNCNvNtB2_5testss_27test_handler_fn_async_delay00E3newB6_
FN:13,_RNvMNtNtCs7wZ7Ymcehhq_6silent7handler10handler_fnINtB2_9HandlerFnNCNCNvNtB2_5testss_27test_handler_fn_return_type00E3newB6_
FN:13,_RNvMNtNtCs7wZ7Ymcehhq_6silent7handler10handler_fnINtB2_9HandlerFnNCNCNvNtB2_5testss_30test_handler_fn_empty_response00E3newB6_
FN:13,_RNvMNtNtCs7wZ7Ymcehhq_6silent7handler10handler_fnINtB2_9HandlerFnNCNCNvNtB2_5testss_30test_handler_fn_large_response00E3newB6_
FN:13,_RNvMNtNtCs7wZ7Ymcehhq_6silent7handler10handler_fnINtB2_9HandlerFnNCNCNvNtB2_5testss_30test_handler_fn_no_memory_leak00E3newB6_
FN:13,_RNvMNtNtCs7wZ7Ymcehhq_6silent7handler10handler_fnINtB2_9HandlerFnNCNCNvNtB2_5testss_32test_handler_fn_concurrent_calls00E3newB6_
FN:13,_RNvMNtNtCs7wZ7Ymcehhq_6silent7handler10handler_fnINtB2_9HandlerFnNCNCNvNtB2_5testss_32test_handler_fn_unicode_response00E3newB6_
FN:13,_RNvMNtNtCs7wZ7Ymcehhq_6silent7handler10handler_fnINtB2_9HandlerFnNCNCNvNtB2_5testss_33test_handler_fn_different_methods00E3newB6_
FN:13,_RNvMNtNtCs7wZ7Ymcehhq_6silent7handler10handler_fnINtB2_9HandlerFnNCNCNvNtB2_5testss_33test_handler_fn_error_propagation00E3newB6_
FN:13,_RNvMNtNtCs7wZ7Ymcehhq_6silent7handler10handler_fnINtB2_9HandlerFnNCNCNvNtB2_5testss_33test_handler_fn_with_move_closure00E3newB6_
FN:13,_RNvMNtNtCs7wZ7Ymcehhq_6silent7handler10handler_fnINtB2_9HandlerFnNCNCNvNtB2_5testss_34test_handler_fn_multiple_arc_calls00E3newB6_
FN:13,_RNvMNtNtCs7wZ7Ymcehhq_6silent7handler10handler_fnINtB2_9HandlerFnNCNCNvNtB2_5testss_38test_handler_fn_call_with_request_data00E3newB6_
FN:13,_RNvMNtNtCs7wZ7Ymcehhq_6silent7handler10handler_fnINtB2_9HandlerFnNCNCNvNtB2_5testss_38test_handler_fn_with_captured_variable00E3newB6_
FN:17,_RNvMNtNtCs7wZ7Ymcehhq_6silent7handler10handler_fnINtB2_9HandlerFnNCNvNtB2_5testss_19test_handler_fn_arc0E3arcB6_
FN:13,_RNvMNtNtCs7wZ7Ymcehhq_6silent7handler10handler_fnINtB2_9HandlerFnNCNvNtB2_5testss_19test_handler_fn_arc0E3newB6_
FN:13,_RNvMNtNtCs7wZ7Ymcehhq_6silent7handler10handler_fnINtB2_9HandlerFnNCNvNtB2_5testss_19test_handler_fn_new0E3newB6_
FN:13,_RNvMNtNtCs7wZ7Ymcehhq_6silent7handler10handler_fnINtB2_9HandlerFnNCNvNtB2_5testss_22test_handler_fn_static0E3newB6_
FN:13,_RNvMNtNtCs7wZ7Ymcehhq_6silent7handler10handler_fnINtB2_9HandlerFnNCNvNtB2_5testss_23test_handler_fn_closure0E3newB6_
FN:13,_RNvMNtNtCs7wZ7Ymcehhq_6silent7handler10handler_fnINtB2_9HandlerFnNCNvNtB2_5testss_23test_handler_fn_closures_0E3newB6_
FN:17,_RNvMNtNtCs7wZ7Ymcehhq_6silent7handler10handler_fnINtB2_9HandlerFnNCNvNtB2_5testss_25test_handler_fn_arc_clone0E3arcB6_
FN:13,_RNvMNtNtCs7wZ7Ymcehhq_6silent7handler10handler_fnINtB2_9HandlerFnNCNvNtB2_5testss_25test_handler_fn_arc_clone0E3newB6_
FN:17,_RNvMNtNtCs7wZ7Ymcehhq_6silent7handler10handler_fnINtB2_9HandlerFnNCNvNtB2_5testss_26test_handler_fn_arc_shared0E3arcB6_
FN:13,_RNvMNtNtCs7wZ7Ymcehhq_6silent7handler10handler_fnINtB2_9HandlerFnNCNvNtB2_5testss_26test_handler_fn_arc_shared0E3newB6_
FN:17,_RNvMNtNtCs7wZ7Ymcehhq_6silent7handler10handler_fnINtB2_9HandlerFnNCNvNtNtNtB6_5route14handler_append5testss_25test_handler_return_typess_0E3arcB6_
FN:13,_RNvMNtNtCs7wZ7Ymcehhq_6silent7handler10handler_fnINtB2_9HandlerFnNCNvNtNtNtB6_5route14handler_append5testss_25test_handler_return_typess_0E3newB6_
FN:17,_RNvMNtNtCs7wZ7Ymcehhq_6silent7handler10handler_fnINtB2_9HandlerFnNCNvNtNtNtB6_5route14handler_append5testss_30test_handler_fn_arc_conversion0E3arcB6_
FN:13,_RNvMNtNtCs7wZ7Ymcehhq_6silent7handler10handler_fnINtB2_9HandlerFnNCNvNtNtNtB6_5route14handler_append5testss_30test_handler_fn_arc_conversion0E3newB6_
FN:17,_RNvMNtNtCs7wZ7Ymcehhq_6silent7handler10handler_fnINtB2_9HandlerFnNCNvNtNtNtB6_5route14handler_append5testss_30test_response_into_arc_handler0E3arcB6_
FN:13,_RNvMNtNtCs7wZ7Ymcehhq_6silent7handler10handler_fnINtB2_9HandlerFnNCNvNtNtNtB6_5route14handler_append5testss_30test_response_into_arc_handler0E3newB6_
FN:17,_RNvMNtNtCs7wZ7Ymcehhq_6silent7handler10handler_fnINtB2_9HandlerFnNCNvNtNtNtB6_5route14handler_append5testss_31test_route_with_response_output0E3arcB6_
FN:13,_RNvMNtNtCs7wZ7Ymcehhq_6silent7handler10handler_fnINtB2_9HandlerFnNCNvNtNtNtB6_5route14handler_append5testss_31test_route_with_response_output0E3newB6_
FN:17,_RNvMNtNtCs7wZ7Ymcehhq_6silent7handler10handler_fnINtB2_9HandlerFnNCNvNtNtNtB6_5route14handler_append5testss_42test_handler_with_different_response_typess_0E3arcB6_
FN:13,_RNvMNtNtCs7wZ7Ymcehhq_6silent7handler10handler_fnINtB2_9HandlerFnNCNvNtNtNtB6_5route14handler_append5testss_42test_handler_with_different_response_typess_0E3newB6_
FN:28,_RNvXs_NtNtCs7wZ7Ymcehhq_6silent7handler10handler_fnINtB4_9HandlerFnFNtNtNtB8_4core7request7RequestENCNCNvNtNtNtB8_5route14handler_append5testss_38test_into_handler_with_response_output00ENtNtB6_13handler_trait7Handler4callB8_
FN:28,_RNvXs_NtNtCs7wZ7Ymcehhq_6silent7handler10handler_fnINtB4_9HandlerFnNCNCNvNtB4_5testss_24test_handler_fn_call_arc00ENtNtB6_13handler_trait7Handler4callB8_
FN:28,_RNvXs_NtNtCs7wZ7Ymcehhq_6silent7handler10handler_fnINtB4_9HandlerFnNCNCNvNtB4_5testss_25test_handler_fn_call_html00ENtNtB6_13handler_trait7Handler4callB8_
FN:28,_RNvXs_NtNtCs7wZ7Ymcehhq_6silent7handler10handler_fnINtB4_9HandlerFnNCNCNvNtB4_5testss_25test_handler_fn_call_json00ENtNtB6_13handler_trait7Handler4callB8_
FN:28,_RNvXs_NtNtCs7wZ7Ymcehhq_6silent7handler10handler_fnINtB4_9HandlerFnNCNCNvNtB4_5testss_25test_handler_fn_call_text00ENtNtB6_13handler_trait7Handler4callB8_
FN:28,_RNvXs_NtNtCs7wZ7Ymcehhq_6silent7handler10handler_fnINtB4_9HandlerFnNCNCNvNtB4_5testss_26test_handler_fn_call_empty00ENtNtB6_13handler_trait7Handler4callB8_
FN:28,_RNvXs_NtNtCs7wZ7Ymcehhq_6silent7handler10handler_fnINtB4_9HandlerFnNCNCNvNtB4_5testss_27test_handler_fn_async_delay00ENtNtB6_13handler_trait7Handler4callB8_
FN:28,_RNvXs_NtNtCs7wZ7Ymcehhq_6silent7handler10handler_fnINtB4_9HandlerFnNCNCNvNtB4_5testss_27test_handler_fn_return_type00ENtNtB6_13handler_trait7Handler4callB8_
FN:28,_RNvXs_NtNtCs7wZ7Ymcehhq_6silent7handler10handler_fnINtB4_9HandlerFnNCNCNvNtB4_5testss_30test_handler_fn_empty_response00ENtNtB6_13handler_trait7Handler4callB8_
FN:28,_RNvXs_NtNtCs7wZ7Ymcehhq_6silent7handler10handler_fnINtB4_9HandlerFnNCNCNvNtB4_5testss_30test_handler_fn_large_response00ENtNtB6_13handler_trait7Handler4callB8_
FN:28,_RNvXs_NtNtCs7wZ7Ymcehhq_6silent7handler10handler_fnINtB4_9HandlerFnNCNCNvNtB4_5testss_30test_handler_fn_no_memory_leak00ENtNtB6_13handler_trait7Handler4callB8_
FN:28,_RNvXs_NtNtCs7wZ7Ymcehhq_6silent7handler10handler_fnINtB4_9HandlerFnNCNCNvNtB4_5testss_32test_handler_fn_concurrent_calls00ENtNtB6_13handler_trait7Handler4callB8_
FN:28,_RNvXs_NtNtCs7wZ7Ymcehhq_6silent7handler10handler_fnINtB4_9HandlerFnNCNCNvNtB4_5testss_32test_handler_fn_unicode_response00ENtNtB6_13handler_trait7Handler4callB8_
FN:28,_RNvXs_NtNtCs7wZ7Ymcehhq_6silent7handler10handler_fnINtB4_9HandlerFnNCNCNvNtB4_5testss_33test_handler_fn_different_methods00ENtNtB6_13handler_trait7Handler4callB8_
FN:28,_RNvXs_NtNtCs7wZ7Ymcehhq_6silent7handler10handler_fnINtB4_9HandlerFnNCNCNvNtB4_5testss_33test_handler_fn_error_propagation00ENtNtB6_13handler_trait7Handler4callB8_
FN:28,_RNvXs_NtNtCs7wZ7Ymcehhq_6silent7handler10handler_fnINtB4_9HandlerFnNCNCNvNtB4_5testss_33test_handler_fn_with_move_closure00ENtNtB6_13handler_trait7Handler4callB8_
FN:28,_RNvXs_NtNtCs7wZ7Ymcehhq_6silent7handler10handler_fnINtB4_9HandlerFnNCNCNvNtB4_5testss_34test_handler_fn_multiple_arc_calls00ENtNtB6_13handler_trait7Handler4callB8_
FN:28,_RNvXs_NtNtCs7wZ7Ymcehhq_6silent7handler10handler_fnINtB4_9HandlerFnNCNCNvNtB4_5testss_38test_handler_fn_call_with_request_data00ENtNtB6_13handler_trait7Handler4callB8_
FN:28,_RNvXs_NtNtCs7wZ7Ymcehhq_6silent7handler10handler_fnINtB4_9HandlerFnNCNCNvNtB4_5testss_38test_handler_fn_with_captured_variable00ENtNtB6_13handler_trait7Handler4callB8_
FN:28,_RNvXs_NtNtCs7wZ7Ymcehhq_6silent7handler10handler_fnINtB4_9HandlerFnNCNvNtNtNtB8_5route14handler_append5testss_25test_handler_return_typess_0ENtNtB6_13handler_trait7Handler4callB8_
FN:28,_RNvXs_NtNtCs7wZ7Ymcehhq_6silent7handler10handler_fnINtB4_9HandlerFnNCNvNtNtNtB8_5route14handler_append5testss_30test_response_into_arc_handler0ENtNtB6_13handler_trait7Handler4callB8_
FN:28,_RNvXs_NtNtCs7wZ7Ymcehhq_6silent7handler10handler_fnINtB4_9HandlerFnNCNvNtNtNtB8_5route14handler_append5testss_31test_route_with_response_output0ENtNtB6_13handler_trait7Handler4callB8_
FN:28,_RNvXs_NtNtCs7wZ7Ymcehhq_6silent7handler10handler_fnINtB4_9HandlerFnNCNvNtNtNtB8_5route14handler_append5testss_42test_handler_with_different_response_typess_0ENtNtB6_13handler_trait7Handler4callB8_
FNDA:0,_RNvMNtNtCs9iG4RRqsTsR_6silent7handler10handler_fnINtB2_9HandlerFnpE3arcB6_
FNDA:0,_RNvMNtNtCs9iG4RRqsTsR_6silent7handler10handler_fnINtB2_9HandlerFnpE3newB6_
FNDA:0,_RNvXININtNtCs9iG4RRqsTsR_6silent7handler10handler_fns_0ppEINtB5_9HandlerFnpENtNtB7_13handler_trait7Handler4callB9_
FNDA:0,_RNCNCNvNtNtNtCs7wZ7Ymcehhq_6silent7handler10handler_fn5testss_19test_handler_fn_arc00Bb_
FNDA:0,_RNCNCNvNtNtNtCs7wZ7Ymcehhq_6silent7handler10handler_fn5testss_19test_handler_fn_new00Bb_
FNDA:0,_RNCNCNvNtNtNtCs7wZ7Ymcehhq_6silent7handler10handler_fn5testss_22test_handler_fn_static00Bb_
FNDA:0,_RNCNCNvNtNtNtCs7wZ7Ymcehhq_6silent7handler10handler_fn5testss_23test_handler_fn_closure00Bb_
FNDA:0,_RNCNCNvNtNtNtCs7wZ7Ymcehhq_6silent7handler10handler_fn5testss_23test_handler_fn_closures_00Bb_
FNDA:0,_RNCNCNvNtNtNtCs7wZ7Ymcehhq_6silent7handler10handler_fn5testss_25test_handler_fn_arc_clone00Bb_
FNDA:0,_RNCNCNvNtNtNtCs7wZ7Ymcehhq_6silent7handler10handler_fn5testss_26test_handler_fn_arc_shared00Bb_
FNDA:0,_RNCNvNtNtNtCs7wZ7Ymcehhq_6silent7handler10handler_fn5testss_19test_handler_fn_arc0B9_
FNDA:0,_RNCNvNtNtNtCs7wZ7Ymcehhq_6silent7handler10handler_fn5testss_19test_handler_fn_new0B9_
FNDA:0,_RNCNvNtNtNtCs7wZ7Ymcehhq_6silent7handler10handler_fn5testss_22test_handler_fn_static0B9_
FNDA:0,_RNCNvNtNtNtCs7wZ7Ymcehhq_6silent7handler10handler_fn5testss_23test_handler_fn_closure0B9_
FNDA:0,_RNCNvNtNtNtCs7wZ7Ymcehhq_6silent7handler10handler_fn5testss_23test_handler_fn_closures_0B9_
FNDA:0,_RNCNvNtNtNtCs7wZ7Ymcehhq_6silent7handler10handler_fn5testss_25test_handler_fn_arc_clone0B9_
FNDA:0,_RNCNvNtNtNtCs7wZ7Ymcehhq_6silent7handler10handler_fn5testss_26test_handler_fn_arc_shared0B9_
FNDA:1,_RNvNtNtNtCs7wZ7Ymcehhq_6silent7handler10handler_fn5testss_19test_handler_fn_arc
FNDA:1,_RNvNtNtNtCs7wZ7Ymcehhq_6silent7handler10handler_fn5testss_19test_handler_fn_new
FNDA:1,_RNvNtNtNtCs7wZ7Ymcehhq_6silent7handler10handler_fn5testss_22test_handler_fn_static
FNDA:1,_RNvNtNtNtCs7wZ7Ymcehhq_6silent7handler10handler_fn5testss_23test_handler_fn_closure
FNDA:1,_RNvNtNtNtCs7wZ7Ymcehhq_6silent7handler10handler_fn5testss_24test_handler_fn_call_arc
FNDA:1,_RNvNtNtNtCs7wZ7Ymcehhq_6silent7handler10handler_fn5testss_25test_handler_fn_arc_clone
FNDA:1,_RNvNtNtNtCs7wZ7Ymcehhq_6silent7handler10handler_fn5testss_25test_handler_fn_call_html
FNDA:1,_RNvNtNtNtCs7wZ7Ymcehhq_6silent7handler10handler_fn5testss_25test_handler_fn_call_json
FNDA:1,_RNvNtNtNtCs7wZ7Ymcehhq_6silent7handler10handler_fn5testss_25test_handler_fn_call_text
FNDA:1,_RNvNtNtNtCs7wZ7Ymcehhq_6silent7handler10handler_fn5testss_25test_handler_fn_send_sync
FNDA:1,_RNvNtNtNtCs7wZ7Ymcehhq_6silent7handler10handler_fn5testss_26test_handler_fn_arc_shared
FNDA:1,_RNvNtNtNtCs7wZ7Ymcehhq_6silent7handler10handler_fn5testss_26test_handler_fn_call_empty
FNDA:1,_RNvNtNtNtCs7wZ7Ymcehhq_6silent7handler10handler_fn5testss_27test_handler_fn_async_delay
FNDA:1,_RNvNtNtNtCs7wZ7Ymcehhq_6silent7handler10handler_fn5testss_27test_handler_fn_return_type
FNDA:1,_RNvNtNtNtCs7wZ7Ymcehhq_6silent7handler10handler_fn5testss_30test_handler_fn_empty_response
FNDA:1,_RNvNtNtNtCs7wZ7Ymcehhq_6silent7handler10handler_fn5testss_30test_handler_fn_large_response
FNDA:1,_RNvNtNtNtCs7wZ7Ymcehhq_6silent7handler10handler_fn5testss_30test_handler_fn_no_memory_leak
FNDA:1,_RNvNtNtNtCs7wZ7Ymcehhq_6silent7handler10handler_fn5testss_32test_handler_fn_concurrent_calls
FNDA:1,_RNvNtNtNtCs7wZ7Ymcehhq_6silent7handler10handler_fn5testss_32test_handler_fn_unicode_response
FNDA:1,_RNvNtNtNtCs7wZ7Ymcehhq_6silent7handler10handler_fn5testss_33test_handler_fn_different_methods
FNDA:1,_RNvNtNtNtCs7wZ7Ymcehhq_6silent7handler10handler_fn5testss_33test_handler_fn_error_propagation
FNDA:1,_RNvNtNtNtCs7wZ7Ymcehhq_6silent7handler10handler_fn5testss_33test_handler_fn_with_move_closure
FNDA:1,_RNvNtNtNtCs7wZ7Ymcehhq_6silent7handler10handler_fn5testss_34test_handler_fn_multiple_arc_calls
FNDA:1,_RNvNtNtNtCs7wZ7Ymcehhq_6silent7handler10handler_fn5testss_38test_handler_fn_call_with_request_data
FNDA:1,_RNvNtNtNtCs7wZ7Ymcehhq_6silent7handler10handler_fn5testss_38test_handler_fn_with_captured_variable
FNDA:1,_RINvNvNtNtNtCs7wZ7Ymcehhq_6silent7handler10handler_fn5testss_25test_handler_fn_send_sync16assert_send_syncINtB6_9HandlerFnFNtNtNtBa_4core7request7RequestEINtNtNtCsiMcf32LsBml_4core6future5ready5ReadyNtNtB21_8response8ResponseEEEBa_
FNDA:1,_RNCNCNCNvNtNtNtCs7wZ7Ymcehhq_6silent7handler10handler_fn5testss_24test_handler_fn_call_arc000Bd_
FNDA:1,_RNCNCNCNvNtNtNtCs7wZ7Ymcehhq_6silent7handler10handler_fn5testss_25test_handler_fn_call_html000Bd_
FNDA:1,_RNCNCNCNvNtNtNtCs7wZ7Ymcehhq_6silent7handler10handler_fn5testss_25test_handler_fn_call_json000Bd_
FNDA:1,_RNCNCNCNvNtNtNtCs7wZ7Ymcehhq_6silent7handler10handler_fn5testss_25test_handler_fn_call_text000Bd_
FNDA:1,_RNCNCNCNvNtNtNtCs7wZ7Ymcehhq_6silent7handler10handler_fn5testss_26test_handler_fn_call_empty000Bd_
FNDA:1,_RNCNCNCNvNtNtNtCs7wZ7Ymcehhq_6silent7handler10handler_fn5testss_27test_handler_fn_async_delay000Bd_
FNDA:1,_RNCNCNCNvNtNtNtCs7wZ7Ymcehhq_6silent7handler10handler_fn5testss_27test_handler_fn_return_type000Bd_
FNDA:1,_RNCNCNCNvNtNtNtCs7wZ7Ymcehhq_6silent7handler10handler_fn5testss_30test_handler_fn_empty_response000Bd_
FNDA:1,_RNCNCNCNvNtNtNtCs7wZ7Ymcehhq_6silent7handler10handler_fn5testss_30test_handler_fn_large_response000Bd_
FNDA:10,_RNCNCNCNvNtNtNtCs7wZ7Ymcehhq_6silent7handler10handler_fn5testss_30test_handler_fn_no_memory_leak000Bd_
FNDA:3,_RNCNCNCNvNtNtNtCs7wZ7Ymcehhq_6silent7handler10handler_fn5testss_32test_handler_fn_concurrent_calls000Bd_
FNDA:1,_RNCNCNCNvNtNtNtCs7wZ7Ymcehhq_6silent7handler10handler_fn5testss_32test_handler_fn_unicode_response000Bd_
FNDA:3,_RNCNCNCNvNtNtNtCs7wZ7Ymcehhq_6silent7handler10handler_fn5testss_33test_handler_fn_different_methods000Bd_
FNDA:1,_RNCNCNCNvNtNtNtCs7wZ7Ymcehhq_6silent7handler10handler_fn5testss_33test_handler_fn_error_propagation000Bd_
FNDA:1,_RNCNCNCNvNtNtNtCs7wZ7Ymcehhq_6silent7handler10handler_fn5testss_33test_handler_fn_with_move_closure000Bd_
FNDA:100,_RNCNCNCNvNtNtNtCs7wZ7Ymcehhq_6silent7handler10handler_fn5testss_34test_handler_fn_multiple_arc_calls000Bd_
FNDA:1,_RNCNCNCNvNtNtNtCs7wZ7Ymcehhq_6silent7handler10handler_fn5testss_38test_handler_fn_call_with_request_data000Bd_
FNDA:3,_RNCNCNCNvNtNtNtCs7wZ7Ymcehhq_6silent7handler10handler_fn5testss_38test_handler_fn_with_captured_variable000Bd_
FNDA:1,_RNCNCNvNtNtNtCs7wZ7Ymcehhq_6silent7handler10handler_fn5testss_24test_handler_fn_call_arc00Bb_
FNDA:1,_RNCNCNvNtNtNtCs7wZ7Ymcehhq_6silent7handler10handler_fn5testss_25test_handler_fn_call_html00Bb_
FNDA:1,_RNCNCNvNtNtNtCs7wZ7Ymcehhq_6silent7handler10handler_fn5testss_25test_handler_fn_call_json00Bb_
FNDA:1,_RNCNCNvNtNtNtCs7wZ7Ymcehhq_6silent7handler10handler_fn5testss_25test_handler_fn_call_text00Bb_
FNDA:1,_RNCNCNvNtNtNtCs7wZ7Ymcehhq_6silent7handler10handler_fn5testss_26test_handler_fn_call_empty00Bb_
FNDA:1,_RNCNCNvNtNtNtCs7wZ7Ymcehhq_6silent7handler10handler_fn5testss_27test_handler_fn_async_delay00Bb_
FNDA:1,_RNCNCNvNtNtNtCs7wZ7Ymcehhq_6silent7handler10handler_fn5testss_27test_handler_fn_return_type00Bb_
FNDA:1,_RNCNCNvNtNtNtCs7wZ7Ymcehhq_6silent7handler10handler_fn5testss_30test_handler_fn_empty_response00Bb_
FNDA:1,_RNCNCNvNtNtNtCs7wZ7Ymcehhq_6silent7handler10handler_fn5testss_30test_handler_fn_large_response00Bb_
FNDA:10,_RNCNCNvNtNtNtCs7wZ7Ymcehhq_6silent7handler10handler_fn5testss_30test_handler_fn_no_memory_leak00Bb_
FNDA:3,_RNCNCNvNtNtNtCs7wZ7Ymcehhq_6silent7handler10handler_fn5testss_32test_handler_fn_concurrent_calls00Bb_
FNDA:1,_RNCNCNvNtNtNtCs7wZ7Ymcehhq_6silent7handler10handler_fn5testss_32test_handler_fn_unicode_response00Bb_
FNDA:3,_RNCNCNvNtNtNtCs7wZ7Ymcehhq_6silent7handler10handler_fn5testss_33test_handler_fn_different_methods00Bb_
FNDA:1,_RNCNCNvNtNtNtCs7wZ7Ymcehhq_6silent7handler10handler_fn5testss_33test_handler_fn_error_propagation00Bb_
FNDA:1,_RNCNCNvNtNtNtCs7wZ7Ymcehhq_6silent7handler10handler_fn5testss_33test_handler_fn_with_move_closure00Bb_
FNDA:100,_RNCNCNvNtNtNtCs7wZ7Ymcehhq_6silent7handler10handler_fn5testss_34test_handler_fn_multiple_arc_calls00Bb_
FNDA:1,_RNCNCNvNtNtNtCs7wZ7Ymcehhq_6silent7handler10handler_fn5testss_38test_handler_fn_call_with_request_data00Bb_
FNDA:3,_RNCNCNvNtNtNtCs7wZ7Ymcehhq_6silent7handler10handler_fn5testss_38test_handler_fn_with_captured_variable00Bb_
FNDA:1,_RNCNvNtNtNtCs7wZ7Ymcehhq_6silent7handler10handler_fn5testss_24test_handler_fn_call_arc0B9_
FNDA:1,_RNCNvNtNtNtCs7wZ7Ymcehhq_6silent7handler10handler_fn5testss_25test_handler_fn_call_html0B9_
FNDA:1,_RNCNvNtNtNtCs7wZ7Ymcehhq_6silent7handler10handler_fn5testss_25test_handler_fn_call_json0B9_
FNDA:1,_RNCNvNtNtNtCs7wZ7Ymcehhq_6silent7handler10handler_fn5testss_25test_handler_fn_call_text0B9_
FNDA:1,_RNCNvNtNtNtCs7wZ7Ymcehhq_6silent7handler10handler_fn5testss_26test_handler_fn_call_empty0B9_
FNDA:1,_RNCNvNtNtNtCs7wZ7Ymcehhq_6silent7handler10handler_fn5testss_27test_handler_fn_async_delay0B9_
FNDA:1,_RNCNvNtNtNtCs7wZ7Ymcehhq_6silent7handler10handler_fn5testss_27test_handler_fn_return_type0B9_
FNDA:1,_RNCNvNtNtNtCs7wZ7Ymcehhq_6silent7handler10handler_fn5testss_30test_handler_fn_empty_response0B9_
FNDA:1,_RNCNvNtNtNtCs7wZ7Ymcehhq_6silent7handler10handler_fn5testss_30test_handler_fn_large_response0B9_
FNDA:1,_RNCNvNtNtNtCs7wZ7Ymcehhq_6silent7handler10handler_fn5testss_30test_handler_fn_no_memory_leak0B9_
